18578858	5 min in minimal medium +0.2% glu / 0 min in minimal medium +0.2% glu	GSE7	GSM515	2	5		3		1	1	0	0	mbplot		5		GPL17		NC_000913
30524415	5 min in minimal medium +0.2% glu / 0 min in minimal medium +0.2% glu	GSE7	GSM515	2	5		3		1	1	0	0	mbplot		5		GPL17		NC_000913
30533428	5 min in minimal medium +0.2% glu + 50ug/ml Trp / 0 min in minimal medium +0.2% glu	GSE7	GSM531	2	5		3		1	1	0	0	mbplot		5		GPL17		NC_000913
18583365	5 min in minimal medium +0.2% glu + 50ug/ml Trp / 0 min in minimal medium +0.2% glu	GSE7	GSM531	2	5		3		1	1	0	0	mbplot		5		GPL17		NC_000913
30542441	5 min 10 ug/ml indole acrylate minimal medium / 0 min minimal medium	GSE7	GSM557	2	5		3		1	1	0	0	mbplot		5		GPL16		NC_000913
18587872	5 min 10 ug/ml indole acrylate minimal medium / 0 min minimal medium	GSE7	GSM557	2	5		3		1	1	0	0	mbplot		5		GPL16		NC_000913
18592379	5 min 15 ug/ml indole acrylate minimal medium / 0 min minimal medium	GSE7	GSM561	2	5		3		1	1	0	0	mbplot		5		GPL16		NC_000913
30551454	5 min 15 ug/ml indole acrylate minimal medium / 0 min minimal medium	GSE7	GSM561	2	5		3		1	1	0	0	mbplot		5		GPL16		NC_000913
18596886	10 min 10 ug/ml indole acrylate minimal medium / 0 min minimal medium	GSE7	GSM558	2	5		3		1	1	0	0	mbplot		10		GPL16		NC_000913
30560467	10 min 10 ug/ml indole acrylate minimal medium / 0 min minimal medium	GSE7	GSM558	2	5		3		1	1	0	0	mbplot		10		GPL16		NC_000913
30569480	10 min 15 ug/ml indole acrylate minimal medium / 0 min minimal medium	GSE7	GSM562	2	5		3		1	1	0	0	mbplot		10		GPL16		NC_000913
18601393	10 min 15 ug/ml indole acrylate minimal medium / 0 min minimal medium	GSE7	GSM562	2	5		3		1	1	0	0	mbplot		10		GPL16		NC_000913
18607718	15 min in minimal medium +0.2% glu / 0 min in minimal medium +0.2% glu	GSE7	GSM516	2	5		3		1	1	0	0	mbplot		15		GPL17		NC_000913
30578493	15 min in minimal medium +0.2% glu / 0 min in minimal medium +0.2% glu	GSE7	GSM516	2	5		3		1	1	0	0	mbplot		15		GPL17		NC_000913
18612225	15 min in minimal medium +0.2% glu + 50ug/ml Trp / 0 min in minimal medium +0.2% glu	GSE7	GSM532	2	5		3		1	1	0	0	mbplot		15		GPL17		NC_000913
30587506	15 min in minimal medium +0.2% glu + 50ug/ml Trp / 0 min in minimal medium +0.2% glu	GSE7	GSM532	2	5		3		1	1	0	0	mbplot		15		GPL17		NC_000913
18617885	30 min in minimal medium +0.2% glu / 0 min in minimal medium +0.2% glu	GSE7	GSM517	2	5		3		1	1	0	0	mbplot		30		GPL17		NC_000913
30596519	30 min in minimal medium +0.2% glu / 0 min in minimal medium +0.2% glu	GSE7	GSM517	2	5		3		1	1	0	0	mbplot		30		GPL17		NC_000913
30605532	30 min in minimal medium + 0.2% glu + 50ug/ml Trp / 0 min in minimal medium + 0.2% glu	GSE7	GSM533	2	5		3		1	1	0	0	mbplot		30		GPL17		NC_000913
18623057	30 min in minimal medium + 0.2% glu + 50ug/ml Trp / 0 min in minimal medium + 0.2% glu	GSE7	GSM533	2	5		3		1	1	0	0	mbplot		30		GPL17		NC_000913
30614545	30 min 10 ug/ml indole acrylate minimal medium / 0 min minimal medium	GSE7	GSM559	2	5		3		1	1	0	0	mbplot		30		GPL16		NC_000913
18627564	30 min 10 ug/ml indole acrylate minimal medium / 0 min minimal medium	GSE7	GSM559	2	5		3		1	1	0	0	mbplot		30		GPL16		NC_000913
18632071	30 min 15 ug/ml indole acrylate minimal medium / 0 min minimal medium	GSE7	GSM563	2	5		3		1	1	0	0	mbplot		30		GPL16		NC_000913
30623558	30 min 15 ug/ml indole acrylate minimal medium / 0 min minimal medium	GSE7	GSM563	2	5		3		1	1	0	0	mbplot		30		GPL16		NC_000913
18636614	60 min in minimal medium +0.2% glu / 0 min in minimal medium +0.2% glu	GSE7	GSM519	2	5		3		1	1	0	0	mbplot		60		GPL17		NC_000913
30632571	60 min in minimal medium +0.2% glu / 0 min in minimal medium +0.2% glu	GSE7	GSM519	2	5		3		1	1	0	0	mbplot		60		GPL17		NC_000913
18642903	60 min in minimal medium +0.2% glu + 50ug/ml Trp / 0 min in minimal medium +0.2% glu	GSE7	GSM534	2	5		3		1	1	0	0	mbplot		60		GPL17		NC_000913
30641584	60 min in minimal medium +0.2% glu + 50ug/ml Trp / 0 min in minimal medium +0.2% glu	GSE7	GSM534	2	5		3		1	1	0	0	mbplot		60		GPL17		NC_000913
30650597	60 min minimal medium + 0.2% glu / 0 min minimal medium + 0.2% glu	GSE7	GSM555,GSM570	2	5		3		1	1	0	0	mbplot		60		GPL16		NC_000913
18647410	60 min minimal medium + 0.2% glu / 0 min minimal medium + 0.2% glu	GSE7	GSM555,GSM570	2	5		3		1	1	0	0	mbplot		60		GPL16		NC_000913
18651917	60 min minimal medium + 0.2% glu+ 50ug/ml Trp / 0 min minimal medium + 0.2% glu	GSE7	GSM556,GSM565	2	5		3		1	1	0	0	mbplot		60		GPL17		NC_000913
30659610	60 min minimal medium + 0.2% glu+ 50ug/ml Trp / 0 min minimal medium + 0.2% glu	GSE7	GSM556,GSM565	2	5		3		1	1	0	0	mbplot		60		GPL17		NC_000913
30668623	60 min 10 ug/ml indole acrylate minimal medium / 0 min minimal medium	GSE7	GSM560	2	5		3		1	1	0	0	mbplot		60		GPL16		NC_000913
18656424	60 min 10 ug/ml indole acrylate minimal medium / 0 min minimal medium	GSE7	GSM560	2	5		3		1	1	0	0	mbplot		60		GPL16		NC_000913
30677636	60 min 15 ug/ml indole acrylate minimal medium / 0 min minimal medium	GSE7	GSM564	2	5		3		1	1	0	0	mbplot		60		GPL16		NC_000913
18660931	60 min 15 ug/ml indole acrylate minimal medium / 0 min minimal medium	GSE7	GSM564	2	5		3		1	1	0	0	mbplot		60		GPL16		NC_000913
18665438	tnaA minimal +50 ug/ml Trp / genomic DNA	GSE7	GSM513	2	5		3		1	1	0	0	mbplot				GPL17		NC_000913
30686649	tnaA minimal +50 ug/ml Trp / genomic DNA	GSE7	GSM513	2	5		3		1	1	0	0	mbplot				GPL17		NC_000913
30695662	trpR tnaA minimal +50 ug/ml Trp/ genomic DNA	GSE7	GSM514	2	5		3		1	1	0	0	mbplot				GPL17		NC_000913
18669945	trpR tnaA minimal +50 ug/ml Trp/ genomic DNA	GSE7	GSM514	2	5		3		1	1	0	0	mbplot				GPL17		NC_000913
30704675	TESING 2DMEAN VS CONT 1DMEAN	GSE7	GSM515	2	5		3		1	1	0	0	mbplot	TESTING			GPL17		NC_000913
18678959	W3110 wt + trp / W3110 wt - trp	GSE7	GSM535	2	5		3		1	1	0	0	mbplot				GPL17		NC_000913
30713688	W3110 wt + trp / W3110 wt - trp	GSE7	GSM535	2	5		3		1	1	0	0	mbplot				GPL17		NC_000913
30722701	tnaA trpR minimal +50 ug/ml Trp / tnaA minimal +Trp 50ug/ml	GSE7	GSM536	2	5		3		1	1	0	0	mbplot				GPL17		NC_000913
18683466	tnaA trpR minimal +50 ug/ml Trp / tnaA minimal +Trp 50ug/ml	GSE7	GSM536	2	5		3		1	1	0	0	mbplot				GPL17		NC_000913
18687973	trpR minimal + 0.2% glucose / WT minimal + 0.2% glucose	GSE7	GSM537	2	5		3		1	1	0	0	mbplot				GPL17		NC_000913
30731714	trpR minimal + 0.2% glucose / WT minimal + 0.2% glucose	GSE7	GSM537	2	5		3		1	1	0	0	mbplot				GPL17		NC_000913
18692480	trpR + 50 ug/ml Trp / WT + 50 ug/ml Trp	GSE7	GSM538	2	5		3		1	1	0	0	mbplot				GPL17		NC_000913
30740727	trpR + 50 ug/ml Trp / WT + 50 ug/ml Trp	GSE7	GSM538	2	5		3		1	1	0	0	mbplot				GPL17		NC_000913
30749740	W3110 trpR2 + trp / W3110 trpR2 - trp	GSE7	GSM539	2	5		3		1	1	0	0	mbplot				GPL17		NC_000913
18696987	W3110 trpR2 + trp / W3110 trpR2 - trp	GSE7	GSM539	2	5		3		1	1	0	0	mbplot				GPL17		NC_000913
30758753	trpEA trpR minimal +50 ug/ml Trp / trpEA minimal +50ug/ml Trp	GSE7	GSM540	2	5		3		1	1	0	0	mbplot				GPL17		NC_000913
18701494	trpEA trpR minimal +50 ug/ml Trp / trpEA minimal +50ug/ml Trp	GSE7	GSM540	2	5		3		1	1	0	0	mbplot				GPL17		NC_000913
30767766	tnaA trpA46PR9 = trpA bradytroph minimal / tnaA minimal	GSE7	GSM541	2	5		3		1	1	0	0	mbplot				GPL17		NC_000913
18706001	tnaA trpA46PR9 = trpA bradytroph minimal / tnaA minimal	GSE7	GSM541	2	5		3		1	1	0	0	mbplot				GPL17		NC_000913
30776779	WT 5 min after 1 min UV treatment / WT 0 min before UV treatment	GSE9	GSM510	2	3		5		1	1	0	0	mbplot		5		GPL17		NC_000913
18710508	WT 5 min after 1 min UV treatment / WT 0 min before UV treatment	GSE9	GSM510	2	3		5		1	1	0	0	mbplot		5		GPL17		NC_000913
30785792	lexA 5 min after 1 min UV treatment / WT 0 min before UV treatment	GSE9	GSM547	2	5		3		1	1	0	0	mbplot		5		GPL18		NC_000913
18715015	lexA 5 min after 1 min UV treatment / WT 0 min before UV treatment	GSE9	GSM547	2	5		3		1	1	0	0	mbplot		5		GPL18		NC_000913
30794805	WT 10 min after 1 min UV treatment / WT 0 min before UV treatment	GSE9	GSM506	2	3		5		1	1	0	0	mbplot		10		GPL17		NC_000913
18719522	WT 10 min after 1 min UV treatment / WT 0 min before UV treatment	GSE9	GSM506	2	3		5		1	1	0	0	mbplot		10		GPL17		NC_000913
30803818	lexA 10 min after 1 min UV treatment / WT 0 min before UV treatment	GSE9	GSM544	2	5		3		1	1	0	0	mbplot		10		GPL18		NC_000913
18724029	lexA 10 min after 1 min UV treatment / WT 0 min before UV treatment	GSE9	GSM544	2	5		3		1	1	0	0	mbplot		10		GPL18		NC_000913
18728536	WT 20 min untreated cells / WT 0 min before UV treatment	GSE9	GSM507	2	3		5		1	1	0	0	mbplot		20		GPL17		NC_000913
30812831	WT 20 min untreated cells / WT 0 min before UV treatment	GSE9	GSM507	2	3		5		1	1	0	0	mbplot		20		GPL17		NC_000913
30821844	WT 20 min after 1 min UV treatment / WT 0 min before UV treatment	GSE9	GSM508	2	3		5		1	1	0	0	mbplot		20		GPL17		NC_000913
18733043	WT 20 min after 1 min UV treatment / WT 0 min before UV treatment	GSE9	GSM508	2	3		5		1	1	0	0	mbplot		20		GPL17		NC_000913
30830857	lexA 20 min untreated cells / WT 0 min before UV treatment	GSE9	GSM542	2	5		3		1	1	0	0	mbplot		20		GPL18		NC_000913
18737550	lexA 20 min untreated cells / WT 0 min before UV treatment	GSE9	GSM542	2	5		3		1	1	0	0	mbplot		20		GPL18		NC_000913
18742057	lexA 20 min after 1 min UV treatment / WT 0 min before UV treatment	GSE9	GSM545	2	5		3		1	1	0	0	mbplot		20		GPL18		NC_000913
30839870	lexA 20 min after 1 min UV treatment / WT 0 min before UV treatment	GSE9	GSM545	2	5		3		1	1	0	0	mbplot		20		GPL18		NC_000913
30848883	WT 40 min after 1 min UV treatment / WT 0 min before UV treatment	GSE9	GSM509	2	3		5		1	1	0	0	mbplot		40		GPL17		NC_000913
18746564	WT 40 min after 1 min UV treatment / WT 0 min before UV treatment	GSE9	GSM509	2	3		5		1	1	0	0	mbplot		40		GPL17		NC_000913
18751071	lexA 40 min after 1 min UV treatment / WT 0 min before UV treatment	GSE9	GSM546	2	5		3		1	1	0	0	mbplot		40		GPL18		NC_000913
30857896	lexA 40 min after 1 min UV treatment / WT 0 min before UV treatment	GSE9	GSM546	2	5		3		1	1	0	0	mbplot		40		GPL18		NC_000913
30866909	WT 60 min untreated cells / WT 0 min before UV treatment	GSE9	GSM511	2	3		5		1	1	0	0	mbplot		60		GPL17		NC_000913
18755578	WT 60 min untreated cells / WT 0 min before UV treatment	GSE9	GSM511	2	3		5		1	1	0	0	mbplot		60		GPL17		NC_000913
18760085	WT 60 min after 1 min UV treatment / WT 0 min before UV treatment	GSE9	GSM512	2	3		5		1	1	0	0	mbplot		60		GPL17		NC_000913
30875922	WT 60 min after 1 min UV treatment / WT 0 min before UV treatment	GSE9	GSM512	2	3		5		1	1	0	0	mbplot		60		GPL17		NC_000913
30884935	lexA 60 min untreated cells / WT 0 min before UV treatment	GSE9	GSM543	2	5		3		1	1	0	0	mbplot		60		GPL18		NC_000913
18764592	lexA 60 min untreated cells / WT 0 min before UV treatment	GSE9	GSM543	2	5		3		1	1	0	0	mbplot		60		GPL18		NC_000913
30893948	lexA 60 min after 1 min UV treatment / WT 0 min before UV treatment	GSE9	GSM548	2	5		3		1	1	0	0	mbplot		60		GPL18		NC_000913
18769099	lexA 60 min after 1 min UV treatment / WT 0 min before UV treatment	GSE9	GSM548	2	5		3		1	1	0	0	mbplot		60		GPL18		NC_000913
30902961	lexA 0 min before UV treatment / WT 0 min before UV treatment 	GSE9	GSM549	2	5		3		1	1	0	0	mbplot				GPL18		NC_000913
18773606	lexA 0 min before UV treatment / WT 0 min before UV treatment 	GSE9	GSM549	2	5		3		1	1	0	0	mbplot				GPL18		NC_000913
18778113	10 min with 0.3 ug/ml mitomycin C / 0 min no MMC	GSE33	GSM1373/GSM1371	1			3		1	1	0	0	mbplot		10		GPL102	NC_000913	NC_000913
30911974	10 min with 0.3 ug/ml mitomycin C / 0 min no MMC	GSE33	GSM1373/GSM1371	1			3		1	1	0	0	mbplot		10		GPL102	NC_000913	NC_000913
30920987	25 min with 0.3 ug/ml mitomycin C / 0 min no MMC	GSE33	GSM1372,GSM1374/GSM1371	1			3		1	1	0	0	mbplot		25		GPL102	NC_000913	NC_000913
18782620	25 min with 0.3 ug/ml mitomycin C / 0 min no MMC	GSE33	GSM1372,GSM1374/GSM1371	1			3		1	1	0	0	mbplot		25		GPL102	NC_000913	NC_000913
30930000	40 min normal growth / 0 min normal growth	GSE33	GSM1368/GSM1367	1			3		1	1	0	0	mbplot		40		GPL102	NC_000913	NC_000913
18787127	40 min normal growth / 0 min normal growth	GSE33	GSM1368/GSM1367	1			3		1	1	0	0	mbplot		40		GPL102	NC_000913	NC_000913
30939013	40 min with 0.3 ug/ml mitomycin C / 0 min no MMC	GSE33	GSM1376/GSM1375	1			3		1	1	0	0	mbplot		40		GPL102	NC_000913	NC_000913
18791634	40 min with 0.3 ug/ml mitomycin C / 0 min no MMC	GSE33	GSM1376/GSM1375	1			3		1	1	0	0	mbplot		40		GPL102	NC_000913	NC_000913
18796141	10 min exposure to 3.0 ug/ml mitomycin C followed by 50 min growth / 0 min no MMC	GSE33	GSM1380/GSM1379	1			3		1	1	0	0	mbplot		50		GPL102	NC_000913	NC_000913
30948026	10 min exposure to 3.0 ug/ml mitomycin C followed by 50 min growth / 0 min no MMC	GSE33	GSM1380/GSM1379	1			3		1	1	0	0	mbplot		50		GPL102	NC_000913	NC_000913
30957039	10 min exposure to 3.0 ug/ml mitomycin C followed by 70 min growth / 0 min no MMC	GSE33	GSM1382/GSM1381	1			3		1	1	0	0	mbplot		70		GPL102	NC_000913	NC_000913
18800648	10 min exposure to 3.0 ug/ml mitomycin C followed by 70 min growth / 0 min no MMC	GSE33	GSM1382/GSM1381	1			3		1	1	0	0	mbplot		70		GPL102	NC_000913	NC_000913
30966052	80 min normal growth / 0 min normal growth	GSE33	GSM1370/GSM1369	1			3		1	1	0	0	mbplot		80		GPL102	NC_000913	NC_000913
18805155	80 min normal growth / 0 min normal growth	GSE33	GSM1370/GSM1369	1			3		1	1	0	0	mbplot		80		GPL102	NC_000913	NC_000913
18809662	80 min with 0.3 ug/ml mitomycin C / 0 min no MMC	GSE33	GSM1378/GSM1377	1			3		1	1	0	0	mbplot		80		GPL102	NC_000913	NC_000913
30975065	80 min with 0.3 ug/ml mitomycin C / 0 min no MMC	GSE33	GSM1378/GSM1377	1			3		1	1	0	0	mbplot		80		GPL102	NC_000913	NC_000913
10664067	2mM hydrogen peroxide treat 10min/5min	GSE116	GSM3196,GSM3197,GSM3198,GSM3199,GSM3200,GSM3201/GSM3191,GSM3192,GSM3193,GSM3194,GSM3195	1			40		1	1	0	0	maplot				GPL224		
10668908	2mM hydrogen peroxide 30min/5min	GSE116	GSM3202,GSM3203,GSM3204,GSM3205,GSM3206/GSM3191,GSM3192,GSM3193,GSM3194,GSM3195	1			40		1	1	0	0	maplot				GPL224		
10678590	2mM hydrogen peroxide 30min /10min	GSE116	GSM3202,GSM3203,GSM3204,GSM3205,GSM3206/GSM3196,GSM3197,GSM3198,GSM3199,GSM3200,GSM3201	1			40		1	1	0	0	maplot				GPL224		
10673749	2mM hydrogen peroxide 60min/ 5min	GSE116	GSM3208,GSM3209,GSM3210,GSM3211,GSM3212,GSM3213/GSM3191,GSM3192,GSM3193,GSM3194,GSM3195	1			40		1	1	0	0	maplot				GPL224		
10683431	2mM hydrogen peroxide 60 min/ 10min	GSE116	GSM3208,GSM3209,GSM3210,GSM3211,GSM3212,GSM3213/GSM3196,GSM3197,GSM3198,GSM3199,GSM3200,GSM3201	1			40		1	1	0	0	maplot				GPL224		
10688272	2mM hydrogen peroxide 60 min/ 30min	GSE116	GSM3208,GSM3209,GSM3210,GSM3211,GSM3212,GSM3213/GSM3202,GSM3203,GSM3204,GSM3205,GSM3206	1			40		1	1	0	0	maplot				GPL224		
30984078	high temperature evolved line 42-1 / Ancestor	GSE533	GSM8112,GSM8113,GSM8114/GSM7886,GSM8110,GSM8111	1			1		1	1	0	0	mbplot			1	GPL189	NC_000913	NC_000913
18814169	high temperature evolved line 42-1 / Ancestor	GSE533	GSM8112,GSM8113,GSM8114/GSM7886,GSM8110,GSM8111	1			1		1	1	0	0	mbplot			1	GPL189	NC_000913	NC_000913
18818676	high temperature evolved line 42-2 / Ancestor	GSE533	GSM8115,GSM8116,GSM8117/GSM7886,GSM8110,GSM8111	1			1		1	1	0	0	mbplot			2	GPL189	NC_000913	NC_000913
30993091	high temperature evolved line 42-2 / Ancestor	GSE533	GSM8115,GSM8116,GSM8117/GSM7886,GSM8110,GSM8111	1			1		1	1	0	0	mbplot			2	GPL189	NC_000913	NC_000913
18823183	high temperature evolved line 42-3 / Ancestor	GSE533	GSM8118,GSM8119,GSM8120/GSM7886,GSM8110,GSM8111	1			1		1	1	0	0	mbplot			3	GPL189	NC_000913	NC_000913
31002104	high temperature evolved line 42-3 / Ancestor	GSE533	GSM8118,GSM8119,GSM8120/GSM7886,GSM8110,GSM8111	1			1		1	1	0	0	mbplot			3	GPL189	NC_000913	NC_000913
9648476	LT2 30min post treatment with 2ug/ml Mitomycin C. / LT2 pretreatment	GSE622	GSM10520,GSM10521,GSM10522	2	3	4	15	16	1	1	0	0	mbplot				GPL224		
9653317	LT2 3hr post treatment Mitomycin C / LT2 log pretreatment	GSE622	GSM11619,GSM11620,GSM11621	2	3	4	15	16	1	1	0	0	mbplot				GPL224		
9658158	LT2 40 min post treatment Mitomycin C / LT2 pretreatment	GSE622	GSM12425,GSM12426,GSM12427	2	3	4	15	16	1	1	0	0	mbplot				GPL331		
9663132	LT2 5 min post treatment Mitomycin C / LT2 pretreatment	GSE622	GSM12441,GSM12442,GSM12443	2	3	4	15	16	1	1	0	0	mbplot				GPL224		
9667973	LT2 20 min post treatment / LT2 pretreatment	GSE622	GSM12458,GSM12459,GSM12460	2	3	4	15	16	1	1	0	0	mbplot				GPL224		
9672814	LT2 10 min post treatment / LT2 pretreatment	GSE622	GSM12461,GSM12462,GSM12463	2	3	4	15	16	1	1	0	0	mbplot				GPL224		
9677655	LT2 10 min post treatment / LT2 pretreatment	GSE622	GSM9490,GSM9491,GSM9492	2	3	4	15	16	1	1	0	0	mbplot				GPL224		
9682496	LT2 40 min post treatment Mitomycin C / LT2 pretreatment	GSE622	GSM9493,GSM9494,GSM9495	2	3	4	15	16	1	1	0	0	mbplot				GPL224		
9687337	LT2 5 min post treatment Mitomycin C / LT2 pretreatment	GSE622	GSM9496,GSM9498	2	3	4	15	16	1	1	0	0	mbplot				GPL224		
9692178	LT2 60 min post treatment Mitomycin C / LT2 pretreatment	GSE622	GSM9499,GSM9500,GSM9501	2	3	4	15	16	1	1	0	0	mbplot				GPL224		
9697019	LT2 20 min post treatment / LT2 pretreatment	GSE622	GSM9554,GSM9555,GSM9556	2	3	4	15	16	1	1	0	0	mbplot				GPL331		
9701993	LT2 30 min post treatment Mitomycin C / LT2 pretreatment	GSE622	GSM9557,GSM9558,GSM9559	2	3	4	15	16	1	1	0	0	mbplot				GPL331		
9706967	LT2 120 min post treatment / LT2 pretreatment	GSE622	GSM9560,GSM9561,GSM9562	2	3	4	15	16	1	1	0	0	mbplot				GPL331		
9711941	LT2 180 min post treatment / LT2 pretreatment	GSE622	GSM9563,GSM9564,GSM9565	2	3	4	15	16	1	1	0	0	mbplot				GPL331		
9716915	LT2 240 min post treatment Mitomycin C / LT2 pretreatment	GSE622	GSM9566,GSM9567,GSM9568	2	3	4	15	16	1	1	0	0	mbplot				GPL331		
7443026	LT2 20min post H2O2 treatment / LT2 Pretreatment	GSE806	GSM10063,GSM10064,GSM10065	2	3	4	15	16	1	1	0	0	mbplot				GPL331		
7452974	LT2 180 min post H2O2 treatment / LT2 pretreatment	GSE806	GSM11911,GSM11912,GSM11913	2	3	4	15	16	1	1	0	0	mbplot				GPL331		
7461856	LT2 120 min post H2O2 treatment / LT2 pretreatment	GSE806	GSM11914,GSM11915,GSM11916	2	3	4	15	16	1	1	0	0	mbplot				GPL331		
7466830	LT2 5 min post H2O2 treatment / LT2 pretreatment	GSE806	GSM11917,GSM11918,GSM11919	2	3	4	15	16	1	1	0	0	mbplot				GPL331		
7471804	LT2 240 min post H2O2 treatment / LT2 pretreatment	GSE806	GSM11920,GSM11921,GSM11922	2	3	4	15	16	1	1	0	0	mbplot				GPL331		
7476778	LT2 20 min post H2O2 treatment / LT2 pretreatment	GSE806	GSM11923,GSM11924,GSM11925	2	3	4	15	16	1	1	0	0	mbplot				GPL331		
7481752	LT2 20 min post H2O2 treatment / LT2 pretreatment	GSE806	GSM11926,GSM11927,GSM11928	2	3	4	15	16	1	1	0	0	mbplot				GPL331		
7489387	LT2 5 min post H2O2 treatment / LT2 pretreatment	GSE806	GSM11929,GSM11930,GSM11931	2	3	4	15	16	1	1	0	0	mbplot				GPL331		
7448000	LT2 20 min post H2O2 treatment / LT2 pretreatment	GSE806	GSM11932,GSM11933,GSM11934	2	3	4	15	16	1	1	0	0	mbplot				GPL331		
7499683	LT2 40 min post H2O2 treatment / LT2 pretreatment	GSE806	GSM11935,GSM11936,GSM11937	2	3	4	15	16	1	1	0	0	mbplot				GPL331		
7515288	LT2 180 min post H2O2 treatment / LT2 pretreatment	GSE806	GSM11938,GSM11939,GSM11940	2	3	4	15	16	1	1	0	0	mbplot				GPL331		
7528211	LT2 120 min post H2O2 treatment / LT2 pretreatment	GSE806	GSM11941,GSM11942,GSM11943	2	3	4	15	16	1	1	0	0	mbplot				GPL331		
7535545	LT2 240 min post H2O2 treatment / LT2 pretreatment	GSE806	GSM11944,GSM11945,GSM11946	2	3	4	15	16	1	1	0	0	mbplot				GPL331		
7544427	LT2 30 min post H2O2 treatment / LT2 pretreatment	GSE806	GSM11948,GSM11949,GSM11950	2	3	4	15	16	1	1	0	0	mbplot				GPL331		
7549401	LT2 60 min post H2O2 treatment / LT2 pretreatment	GSE806	GSM11951,GSM11952,GSM11953	2	3	4	15	16	1	1	0	0	mbplot				GPL331		
31011117	appY Aerobic / WT Aerobic	GSE1121	GSM18235,GSM18236,GSM18237/GSM18261,GSM18262,GSM18263	1			1		1	1	0	0	mbplot				GPL199	NC_000913	NC_000913
18827690	appY Aerobic / WT Aerobic	GSE1121	GSM18235,GSM18236,GSM18237/GSM18261,GSM18262,GSM18263	1			1		1	1	0	0	mbplot				GPL199	NC_000913	NC_000913
31020322	arcA Aerobic / WT Aerobic	GSE1121	GSM18246,GSM18247,GSM18248/GSM18261,GSM18262,GSM18263	1			1		1	1	0	0	mbplot				GPL199	NC_000913	NC_000913
18832293	arcA Aerobic / WT Aerobic	GSE1121	GSM18246,GSM18247,GSM18248/GSM18261,GSM18262,GSM18263	1			1		1	1	0	0	mbplot				GPL199	NC_000913	NC_000913
31029527	arcA fnr Aerobic / WT Aerobic	GSE1121	GSM18249,GSM18250,GSM18251/GSM18261,GSM18262,GSM18263	1			1		1	1	0	0	mbplot				GPL199	NC_000913	NC_000913
18836896	arcA fnr Aerobic / WT Aerobic	GSE1121	GSM18249,GSM18250,GSM18251/GSM18261,GSM18262,GSM18263	1			1		1	1	0	0	mbplot				GPL199	NC_000913	NC_000913
31038732	fnr Aerobic / WT Aerobic	GSE1121	GSM18252,GSM18253,GSM18254/GSM18261,GSM18262,GSM18263	1			1		1	1	0	0	mbplot				GPL199	NC_000913	NC_000913
18841499	fnr Aerobic / WT Aerobic	GSE1121	GSM18252,GSM18253,GSM18254/GSM18261,GSM18262,GSM18263	1			1		1	1	0	0	mbplot				GPL199	NC_000913	NC_000913
18846102	oxyR Aerobic / WT Aerobic	GSE1121	GSM18255,GSM18256,GSM18257/GSM18261,GSM18262,GSM18263	1			1		1	1	0	0	mbplot				GPL199	NC_000913	NC_000913
31047937	oxyR Aerobic / WT Aerobic	GSE1121	GSM18255,GSM18256,GSM18257/GSM18261,GSM18262,GSM18263	1			1		1	1	0	0	mbplot				GPL199	NC_000913	NC_000913
18850705	soxS Aerobic / WT Aerobic	GSE1121	GSM18258,GSM18259,GSM18260/GSM18261,GSM18262,GSM18263	1			1		1	1	0	0	mbplot				GPL199	NC_000913	NC_000913
31057142	soxS Aerobic / WT Aerobic	GSE1121	GSM18258,GSM18259,GSM18260/GSM18261,GSM18262,GSM18263	1			1		1	1	0	0	mbplot				GPL199	NC_000913	NC_000913
31066347	appY Anaerobic / WT Anaerobic	GSE1121	GSM18264,GSM18265,GSM18266/GSM18286,GSM18287,GSM18288,GSM18289	1			1		1	1	0	0	mbplot				GPL199	NC_000913	NC_000913
18855308	appY Anaerobic / WT Anaerobic	GSE1121	GSM18264,GSM18265,GSM18266/GSM18286,GSM18287,GSM18288,GSM18289	1			1		1	1	0	0	mbplot				GPL199	NC_000913	NC_000913
18859911	arcA Anaerobic / WT Anaerobic	GSE1121	GSM18271,GSM18272,GSM18273/GSM18286,GSM18287,GSM18288,GSM18289	1			1		1	1	0	0	mbplot				GPL199	NC_000913	NC_000913
31075552	arcA Anaerobic / WT Anaerobic	GSE1121	GSM18271,GSM18272,GSM18273/GSM18286,GSM18287,GSM18288,GSM18289	1			1		1	1	0	0	mbplot				GPL199	NC_000913	NC_000913
18864514	arcA fnr Anaerobic / WT Anaerobic	GSE1121	GSM18274,GSM18275,GSM18276/GSM18286,GSM18287,GSM18288,GSM18289	1			1		1	1	0	0	mbplot				GPL199	NC_000913	NC_000913
31084757	arcA fnr Anaerobic / WT Anaerobic	GSE1121	GSM18274,GSM18275,GSM18276/GSM18286,GSM18287,GSM18288,GSM18289	1			1		1	1	0	0	mbplot				GPL199	NC_000913	NC_000913
18869117	fnr Anaerobic / WT Anaerobic	GSE1121	GSM18277,GSM18278,GSM18279/GSM18286,GSM18287,GSM18288,GSM18289	1			1		1	1	0	0	mbplot				GPL199	NC_000913	NC_000913
31093962	fnr Anaerobic / WT Anaerobic	GSE1121	GSM18277,GSM18278,GSM18279/GSM18286,GSM18287,GSM18288,GSM18289	1			1		1	1	0	0	mbplot				GPL199	NC_000913	NC_000913
18873720	oxyR Anaerobic / WT Anaerobic	GSE1121	GSM18280,GSM18281,GSM18282/GSM18286,GSM18287,GSM18288,GSM18289	1			1		1	1	0	0	mbplot				GPL199	NC_000913	NC_000913
31103167	oxyR Anaerobic / WT Anaerobic	GSE1121	GSM18280,GSM18281,GSM18282/GSM18286,GSM18287,GSM18288,GSM18289	1			1		1	1	0	0	mbplot				GPL199	NC_000913	NC_000913
18878323	soxS Anaerobic / WT Anaerobic	GSE1121	GSM18283,GSM18284,GSM18285/GSM18286,GSM18287,GSM18288,GSM18289	1			1		1	1	0	0	mbplot				GPL199	NC_000913	NC_000913
31112372	soxS Anaerobic / WT Anaerobic	GSE1121	GSM18283,GSM18284,GSM18285/GSM18286,GSM18287,GSM18288,GSM18289	1			1		1	1	0	0	mbplot				GPL199	NC_000913	NC_000913
31121577	Anaerobic WT / Aerobic WT	GSE1121	GSM18286,GSM18287,GSM18288,GSM18289/GSM18261,GSM18262,GSM18263	1			1		1	1	0	0	mbplot				GPL199	NC_000913	NC_000913
18882926	Anaerobic WT / Aerobic WT	GSE1121	GSM18286,GSM18287,GSM18288,GSM18289/GSM18261,GSM18262,GSM18263	1			1		1	1	0	0	mbplot				GPL199	NC_000913	NC_000913
31130782	MG1655 + F-plasmid / MG1655	GSE1154	GSM19371,GSM19372/GSM19356,GSM19370	1			1		1	1	0	0	mbplot				GPL73	NC_000913	NC_000913
18887529	MG1655 + F-plasmid / MG1655	GSE1154	GSM19371,GSM19372/GSM19356,GSM19370	1			1		1	1	0	0	mbplot				GPL73	NC_000913	NC_000913
31139987	DH5-alpha + F-plasmid / DH5-alpha	GSE1154	GSM19375,GSM19376/GSM19373,GSM19374	1			1		1	1	0	0	mbplot				GPL73	NC_000913	NC_000913
18892132	DH5-alpha + F-plasmid / DH5-alpha	GSE1154	GSM19375,GSM19376/GSM19373,GSM19374	1			1		1	1	0	0	mbplot				GPL73	NC_000913	NC_000913
31149192	melR* / melR mutant	GSE1421	GSM23459,GSM23465,GSM23467	2	1		5		1	1	0	0	mbplot				GPL1246		NC_000913
30043437	melR* / melR mutant	GSE1421	GSM23465	2	1	3	5	7	1	0	0	0	mbplot				GPL1246		
7969550	14028_cheY in broth / 14028	GSE1632	GSM23105,GSM23106,GSM23107	2	3	4	15	16	1	1	0	0	mbplot				GPL224		
7979869	14028 cheY / 14028	GSE1632	GSM23108,GSM23109,GSM23110	2	3	4	15	16	1	1	0	0	mbplot				GPL224		
7987449	QW105 / 14028	GSE1632	GSM23126,GSM23127,GSM23128	2	3	4	15	16	1	1	0	0	mbplot				GPL224		
7992290	cheY / 14028	GSE1632	GSM23333,GSM23334,GSM23335	2	3	4	15	16	1	1	0	0	mbplot				GPL224		
7997131	cheA 2h on plate / 14028 2h on plate	GSE1632	GSM23905,GSM23906,GSM23907	2	3	4	15	16	1	1	0	0	mbplot				GPL224		
8001972	cheA 4h on plate / 14028 4h on plate	GSE1632	GSM23909,GSM23910,GSM23911	2	3	4	15	16	1	1	0	0	mbplot				GPL224		
8006813	cheB 2h on plate / 14028 2h on plate	GSE1632	GSM23913,GSM23914,GSM23915	2	3	4	15	16	1	1	0	0	mbplot				GPL224		
8011654	cheB 4h on plate / 14028 4h on plate	GSE1632	GSM23917,GSM23918,GSM23920	2	3	4	15	16	1	1	0	0	mbplot				GPL224		
8265782	cheA 1.5h with glucose in broth / 14028 1.5h with glucose in broth	GSE1632	GSM23973,GSM23974,GSM23975	2	3	5	15	16	1	1	0	0	mbplot				GPL224		
8255681	cheA 2.5h with glucose in broth / 14028 2.5h with glucose in broth	GSE1632	GSM23976,GSM23977,GSM23978	2	15	16	3	4	1	1	0	0	mbplot				GPL224		
8250840	cheA 4h with glucose in broth / 14028 4h with glucose in broth	GSE1632	GSM23981,GSM23982,GSM23983	2	3	5	15	16	1	1	0	0	mbplot				GPL224		
8211586	cheB 2.5h with glucose in broth / 14028 2.5h with glucose in plate	GSE1632	GSM23986,GSM23987,GSM23988	2	3	4	15	16	1	1	0	0	mbplot				GPL224		
8216777	cheY 2.5h with glucose in broth / 14028 2.5h with glucose in broth	GSE1632	GSM23992,GSM23993,GSM23994	2	15	16	3	4	1	1	0	0	mbplot				GPL224		
8185127	cheA 3h  glucose in plate / 14028 3h  glucose in plate	GSE1632	GSM24267,GSM24268,GSM24269	2	3	4	15	16	1	1	0	0	mbplot				GPL548		
8181895	cheB 1.5h  glucose in broth / 14028 1.5h  glucose in broth	GSE1632	GSM24270,GSM24271,GSM24272	2	3	4	15	16	1	1	0	0	mbplot				GPL548		
8168492	cheB 3h  glucose in plate / 14028 3h  glucose in plate	GSE1632	GSM24273,GSM24274,GSM24275	2	3	4	15	16	1	1	0	0	mbplot				GPL548		
8173491	cheB 4h  glucose in broth / 14028 4h  glucose in broth	GSE1632	GSM24276,GSM24277,GSM24278	2	3	4	15	16	1	1	0	0	mbplot				GPL548		
8159585	cheY 1.5h  glucose in broth / 14028 1.5h  glucose in broth	GSE1632	GSM24279,GSM24280,GSM24281	2	3	4	15	16	1	1	0	0	mbplot				GPL548		
8154586	cheY 4h  glucose in broth / 14028 4h  glucose in broth	GSE1632	GSM24282,GSM24283,GSM24284	2	3	4	15	16	1	1	0	0	mbplot				GPL548		
8060395	cheA 2.5h  glucose in broth / 14028 2.5h  glucose in broth	GSE1632	GSM24395,GSM24396,GSM24397	2	3	4	15	16	1	1	0	0	mbplot				GPL548		
8065394	cheA 2h  glucose in broth / 14028 2h  glucose in broth	GSE1632	GSM24398,GSM24399,GSM24400	2	3	4	15	16	1	1	0	0	mbplot				GPL548		
8051488	cheA 3h  glucose in broth / 14028 3h  glucose in broth	GSE1632	GSM24401,GSM24402,GSM24403	2	3	4	15	16	1	1	0	0	mbplot				GPL548		
8046489	cheB 2.5h  glucose in broth / 14028 2.5h  glucose in broth	GSE1632	GSM24404,GSM24405,GSM24406	2	3	4	15	16	1	1	0	0	mbplot				GPL548		
8041490	cheB 2h  glucose in broth / 14028 2h  glucose in broth	GSE1632	GSM24407,GSM24408,GSM24409	2	3	4	15	16	1	1	0	0	mbplot				GPL548		
8036491	cheB 3h  glucose in broth / 14028 3h  glucose in broth	GSE1632	GSM24410,GSM24411,GSM24412	2	3	4	15	16	1	1	0	0	mbplot				GPL548		
8031492	cheY 2.5h  glucose in broth / 14028 2.5h  glucose in broth	GSE1632	GSM24413,GSM24414,GSM24415	2	3	4	15	16	1	1	0	0	mbplot				GPL548		
8026493	cheY 3h  glucose in broth / 14028 3h  glucose in broth	GSE1632	GSM24416,GSM24417,GSM24418	2	3	4	15	16	1	1	0	0	mbplot				GPL548		
8021494	cheZ 2.5h  glucose in broth / 14028 2.5h  glucose in broth	GSE1632	GSM24419,GSM24420,GSM24421	2	3	4	15	16	1	1	0	0	mbplot				GPL548		
8016495	cheZ 3h  glucose in broth / 14028 3h  glucose in broth	GSE1632	GSM24422,GSM24423,GSM24424	2	3	4	15	16	1	1	0	0	mbplot				GPL548		
9083952	0.1ug/mL Mtm / control (0.33h)	GSE1642	GSM27855	2			1		0	0	0	0	mbplot				GPL1396		
9115965	0.2ug/mL Mtm / ctrl (0.33h)	GSE1642	GSM27856	2			1		0	0	0	0	mbplot				GPL1396		
9088178	0.1ug/mL Mtm / ctrl (0.75h)	GSE1642	GSM27857	2			1		0	0	0	0	mbplot				GPL1396		
9120191	0.2ug/mL Mtm / ctrl (0.75h)	GSE1642	GSM27858	2			1		0	0	0	0	mbplot				GPL1396		
9124417	0.2ug/mL Mtm / ctrl (1.5h)	GSE1642	GSM27859	2			1		0	0	0	0	mbplot				GPL1396		
9132869	0.2ug/mL Mtm / ctrl (2h)	GSE1642	GSM27860,GSM27861,GSM27862,GSM27863	2			1		0	0	0	0	mbplot				GPL1396		
9137095	0.2ug/mL Mtm / ctrl (4h)	GSE1642	GSM27864,GSM27865,GSM27866,GSM27867,GSM27868	2			1		0	0	0	0	mbplot				GPL1396		
9141321	0.2ug/mL Mtm / ctrl (6h)	GSE1642	GSM27869	2			1		0	0	0	0	mbplot				GPL1396		
9910332	4mM H202/ctrl 1hour	GSE1642	GSM27870	2			1		0	0	0	0	mbplot				GPL1396		
9914558	4mM H2O2 / ctrl 2hour	GSE1642	GSM27871,GSM27872,GSM27873,GSM27874	2			1		0	0	0	0	mbplot				GPL1396		
9918784	4mM H2O2 / ctrl 4hour	GSE1642	GSM27875,GSM27876,GSM27877,GSM27878	2			1		0	0	0	0	mbplot				GPL1396		
9540379	25mJ/cm2 UV / ctrl (2h)	GSE1642	GSM27879	2			1		0	0	0	0	mbplot				GPL1396		
10007302	60mJ/cm2 UV / ctrl (2h)	GSE1642	GSM27880	2			1		0	0	0	0	mbplot				GPL1396		
9536153	25mJ/cm2 UV / ctrl (6h)	GSE1642	GSM27881	2			1		0	0	0	0	mbplot				GPL1396		
10011528	60mJ/cm2 UV / ctrl (6h)	GSE1642	GSM27882	2			1		0	0	0	0	mbplot				GPL1396		
9035558	0.12mg/mL PZA / pH5.6 (2h)	GSE1642	GSM27883	2			1		0	0	0	0	mbplot				GPL1396		
9256920	1.2mg/mL PZA / pH5.6 (2h)	GSE1642	GSM27884	2			1		0	0	0	0	mbplot				GPL1396		
9031332	0.12mg/mL PZA / pH5.6 (2.5h)	GSE1642	GSM27885	2			1		0	0	0	0	mbplot				GPL1396		
9039784	0.12mg/mL PZA / pH5.6 (4h)	GSE1642	GSM27886,GSM27888,GSM27890,GSM27891	2			1		0	0	0	0	mbplot				GPL1396		
9261146	1.2mg/mL PZA / pH5.6 (4h)	GSE1642	GSM27887,GSM27889,GSM27892	2			1		0	0	0	0	mbplot				GPL1396		
9265372	1.2mg/mL PZA / pH5.6 (5h)	GSE1642	GSM27893	2			1		0	0	0	0	mbplot				GPL1396		
9048236	0.12mg/mL PZA / pH5.6 (5h)	GSE1642	GSM27894	2			1		0	0	0	0	mbplot				GPL1396		
9044010	0.12mg/mL PZA / pH5.6 (5.5h)	GSE1642	GSM27895	2			1		0	0	0	0	mbplot				GPL1396		
9269598	1.2mg/mL PZA / pH5.6 (6h)	GSE1642	GSM27896,GSM27897	2			1		0	0	0	0	mbplot				GPL1396		
9052462	0.12mg/mL PZA / pH5.6 (6h)	GSE1642	GSM27898,GSM27899	2			1		0	0	0	0	mbplot				GPL1396		
9273824	1.2mg/mL PZA / pH5.6 (7h)	GSE1642	GSM27900,GSM27901	2			1		0	0	0	0	mbplot				GPL1396		
9249241	1.2mg/mL PZA / pH5.6 (10.5h)	GSE1642	GSM27902	2			1		0	0	0	0	mbplot				GPL1396		
9022880	0.12mg/mL PZA/ pH5.6 (10.5h)	GSE1642	GSM27903	2			1		0	0	0	0	mbplot				GPL1396		
9027106	0.12mg/mL PZA / pH5.6 (11h)	GSE1642	GSM27904	2			1		0	0	0	0	mbplot				GPL1396		
9253467	1.2mg/mL PZA / pH5.6 (16h)	GSE1642	GSM27905	2			1		0	0	0	0	mbplot				GPL1396		
9005976	0.12mg/mL Nam / pH5.6 (2h)	GSE1642	GSM27906,GSM27907	2			1		0	0	0	0	mbplot				GPL1396		
9010202	0.12mg/mL Nam / pH5.6 (4h)	GSE1642	GSM27908,GSM27909,GSM27910	2			1		0	0	0	0	mbplot				GPL1396		
9245015	1.2mg/mL Nam / pH5.6 (5h)	GSE1642	GSM27911	2			1		0	0	0	0	mbplot				GPL1396		
9014428	0.12mg/mL Nam / pH5.6 (5.5h)	GSE1642	GSM27912	2			1		0	0	0	0	mbplot				GPL1396		
9018654	0.12mg/mL Nam / pH5.6 (7h)	GSE1642	GSM27913	2			1		0	0	0	0	mbplot				GPL1396		
9236563	1.2mg/mL Nam / pH5.6 (10.5h)	GSE1642	GSM27914	2			1		0	0	0	0	mbplot				GPL1396		
8989072	0.12mg/mL BZA/pH5.6 (2h) ( mAdb expid	GSE1642	GSM27980	2			1		0	0	0	0	mbplot				GPL1396		
8993298	0.12mg/mL BZA/pH5.6 (4h) ( mAdb expid	GSE1642	GSM27981,GSM27982	2			1		0	0	0	0	mbplot				GPL1396		
8997524	0.12mg/mL BZA / pH5.6 (5h) ( mAdb expid	GSE1642	GSM27983	2			1		0	0	0	0	mbplot				GPL1396		
9001750	0.12mg/mL BZA / pH5.6 (7h) ( mAdb expid	GSE1642	GSM27984	2			1		0	0	0	0	mbplot				GPL1396		
8984846	0.12mg/mL BZA/pH5.6 (11h) ( mAdb expid	GSE1642	GSM27985	2			1		0	0	0	0	mbplot				GPL1396		
9610539	40ug/mL 5-CL-PZA / pH5.6 (2h)	GSE1642	GSM27986,GSM27988	2			1		0	0	0	0	mbplot				GPL1396		
10027273	80ug/mL 5-CL-PZA / pH5.6 (2h)	GSE1642	GSM27987	2			1		0	0	0	0	mbplot				GPL1396		
9615043	40ug/mL 5-CL-PZA / pH5.6 (4h)	GSE1642	GSM27989,GSM27990,GSM27991	2			1		0	0	0	0	mbplot				GPL1396		
10084957	pH4.8 / pH6.8 (2h)	GSE1642	GSM27992,GSM27993,GSM27994	2			1		0	0	0	0	mbplot				GPL1396		
10089183	pH4.8 / pH6.8 (4h)	GSE1642	GSM27995,GSM27996,GSM27997	2			1		0	0	0	0	mbplot				GPL1396		
10097635	pH4.8 / pH6.8 (5h)	GSE1642	GSM27998	2			1		0	0	0	0	mbplot				GPL1396		
10093409	pH4.8 / pH6.8 (5.5h)	GSE1642	GSM27999	2			1		0	0	0	0	mbplot				GPL1396		
10101861	pH4.8 / pH6.8 (6h)	GSE1642	GSM28000	2			1		0	0	0	0	mbplot				GPL1396		
10106087	pH4.8/ pH6.8 (7h)	GSE1642	GSM28001	2			1		0	0	0	0	mbplot				GPL1396		
10080731	pH4.8 / pH6.8 11hour	GSE1642	GSM28002	2			1		0	0	0	0	mbplot				GPL1396		
10122991	pH5.2 / pH6.8 (2h)	GSE1642	GSM28003	2			1		0	0	0	0	mbplot				GPL1396		
10131443	pH5.2 / pH6.8 (5h)	GSE1642	GSM28004	2			1		0	0	0	0	mbplot				GPL1396		
10127217	pH5.2 / pH6.8 (5.5h)	GSE1642	GSM28005	2			1		0	0	0	0	mbplot				GPL1396		
10110313	pH5.2 / pH6.8 (10.5h)	GSE1642	GSM28006	2			1		0	0	0	0	mbplot				GPL1396		
10114539	ppH5.2 / pH6.8 (11h)	GSE1642	GSM28007	2			1		0	0	0	0	mbplot				GPL1396		
10118765	pH5.2 / pH6.8 (16h)	GSE1642	GSM28008	2			1		0	0	0	0	mbplot				GPL1396		
10144121	pH5.6 / pH6.8 (2h)	GSE1642	GSM28009,GSM28010	2			1		0	0	0	0	mbplot				GPL1396		
10148347	pH5.6 / pH6.8 (4h)	GSE1642	GSM28011,GSM28012,GSM28013	2			1		0	0	0	0	mbplot				GPL1396		
10156799	pH5.6 / pH6.8 (7h)	GSE1642	GSM28014	2			1		0	0	0	0	mbplot				GPL1396		
10152573	pH5.6 / pH6.8 (5h)	GSE1642	GSM28015	2			1		0	0	0	0	mbplot				GPL1396		
10135669	pH5.6 / pH6.8 (11h)	GSE1642	GSM28016	2			1		0	0	0	0	mbplot				GPL1396		
10139895	pH5.6 / pH6.8 (16h)	GSE1642	GSM28017	2			1		0	0	0	0	mbplot				GPL1396		
9092404	0.1ug/mL Mtm / control (1.5h)	GSE1642	GSM28018	2			1		0	0	0	0	mbplot				GPL1396		
9487123	20mJ/cm2 UV / ctrl (6h)	GSE1642	GSM28019	2			1		0	0	0	0	mbplot				GPL1396		
9602087	40mJ/cm2 UV / ctrl (6h)	GSE1642	GSM28020	2			1		0	0	0	0	mbplot				GPL1396		
9145588	0.2ug/mL Mtm / ctrl (8h)	GSE1642	GSM28021,GSM28022	2			1		0	0	0	0	mbplot				GPL1396		
9923010	4 mM H2O2 / ctrl 8hour	GSE1642	GSM28023	2			1		0	0	0	0	mbplot				GPL1396		
9495575	20mJ/cm2 UV / ctrl (8h)	GSE1642	GSM28024	2			1		0	0	0	0	mbplot				GPL1396		
9606313	40mJ/cm2 UV / ctrl (8h)	GSE1642	GSM28025,GSM28026	2			1		0	0	0	0	mbplot				GPL1396		
9128643	0.2ug/mL Mtm / ctrl (12h)	GSE1642	GSM28027	2			1		0	0	0	0	mbplot				GPL1396		
9906106	4mM H2O2 / ctrl 12h	GSE1642	GSM28028	2			1		0	0	0	0	mbplot				GPL1396		
9491349	20mJ/cm2 UV / ctrl (12h)	GSE1642	GSM28029	2			1		0	0	0	0	mbplot				GPL1396		
9597861	40mJ/cm2 UV / ctrl (12h)	GSE1642	GSM28030	2			1		0	0	0	0	mbplot				GPL1396		
9352188	10ug/mL EMB / DMSO (12h)	GSE1642	GSM28031	2			1		0	0	0	0	mbplot				GPL1396		
10052629	DIPED 5ug/mL / DMSO, 12h	GSE1642	GSM28032	2			1		0	0	0	0	mbplot				GPL1396		
10061919	ethambutol (10ug/mL) / DMSO, 12h	GSE1642	GSM28033	2			1		0	0	0	0	mbplot				GPL1396		
9981575	5ug/mL DIPED / DMSO, 12h	GSE1642	GSM28034	2			1		0	0	0	0	mbplot				GPL1396		
10044177	DIPED (10ug/mL) / DMSO, 12h	GSE1642	GSM28035,GSM28036	2			1		0	0	0	0	mbplot				GPL1396		
10057693	EMB (10ug/mL) / DMSO, 12h	GSE1642	GSM28037,GSM28038,GSM28045	2			1		0	0	0	0	mbplot				GPL1396		
10048403	DIPED (50ug/mL) / DMSO, 12h	GSE1642	GSM28039,GSM28040,GSM28041	2			1		0	0	0	0	mbplot				GPL1396		
10039951	DIPED (100ug/mL) / DMSO, 12h	GSE1642	GSM28042,GSM28043,GSM28044	2			1		0	0	0	0	mbplot				GPL1396		
8963080	#241 (0.1ug/mL) vs DMSO, 12h	GSE1642	GSM28046	2			1		0	0	0	0	mbplot				GPL1396		
8971532	#241 (1ug/mL) / DMSO, 12h	GSE1642	GSM28047	2			1		0	0	0	0	mbplot				GPL1396		
8967306	#241 (10ug/mL) / DMSO,12h	GSE1642	GSM28048,GSM28049	2			1		0	0	0	0	mbplot				GPL1396		
8950402	109 (0.1ug/mL) vs DMSO, 12h	GSE1642	GSM28050	2			1		0	0	0	0	mbplot				GPL1396		
8958854	#109 (1ug/mL) /DMSO, 12h	GSE1642	GSM28051,GSM28052	2			1		0	0	0	0	mbplot				GPL1396		
8954628	#109 (10ug/mL) / DMSO, 12h	GSE1642	GSM28053,GSM28054	2			1		0	0	0	0	mbplot				GPL1396		
10165251	Rif (5ug/mL) vs DMSO, 2.5h	GSE1642	GSM28055,GSM28056	2			1		0	0	0	0	mbplot				GPL1396		
10161025	Rif (0.5ug/mL) vs DMSO, 2.5h	GSE1642	GSM28057,GSM28058	2			1		0	0	0	0	mbplot				GPL1396		
9313130	10ug/mL Amikacin / EtOH, 6h	GSE1642	GSM28059	2			1		0	0	0	0	mbplot				GPL1396		
9998850	5ug/mL Streptomycin / EtOH, 6h	GSE1642	GSM28060,GSM28061	2			1		0	0	0	0	mbplot				GPL1396		
9111739	0.2ug/mL INH / EtOH, 6h	GSE1642	GSM28062	2			1		0	0	0	0	mbplot				GPL1396		
9100856	0.2mg/mL Amp / EtOH, 6h	GSE1642	GSM28063,GSM28064,GSM28089,GSM28090	2			1		0	0	0	0	mbplot				GPL1396		
9413896	12ug/mL Ethionamide / EtOH, 6h	GSE1642	GSM28065,GSM28066	2			1		0	0	0	0	mbplot				GPL1396		
9056688	0.13mg/mL TLM / DMSO, 6h	GSE1642	GSM28067,GSM28068	2			1		0	0	0	0	mbplot				GPL1396		
8980620	0.1 mg/mL Triclosan / EtOH, 6h ( mAdb expid	GSE1642	GSM28069,GSM28070	2			1		0	0	0	0	mbplot				GPL1396		
9377021	10ug/mL Ofloxacin / DMSO, 6h	GSE1642	GSM28071,GSM28072	2			1		0	0	0	0	mbplot				GPL1396		
9969609	5ug/mL Amikacin / EtOH, 6h	GSE1642	GSM28073,GSM28074	2			1		0	0	0	0	mbplot				GPL1396		
9619269	40ug/mL Ethionamide / EtOH, 6h	GSE1642	GSM28075,GSM28076	2			1		0	0	0	0	mbplot				GPL1396		
9175764	0.4ug/mL INH / EtOH, 6h	GSE1642	GSM28077,GSM28078	2			1		0	0	0	0	mbplot				GPL1396		
9988232	5ug/mL Ofloxacin / EtOH, 6h	GSE1642	GSM28079,GSM28080	2			1		0	0	0	0	mbplot				GPL1396		
9157327	0.2ug/mL Rif / DMSO, 6h	GSE1642	GSM28081,GSM28082	2			1		0	0	0	0	mbplot				GPL1396		
9585183	2ug/mL Streptomycin / EtOH, 6h	GSE1642	GSM28083,GSM28084	2			1		0	0	0	0	mbplot				GPL1396		
9393925	10ug/mL Tetracycline / EtOH, 6h	GSE1642	GSM28085,GSM28086	2			1		0	0	0	0	mbplot				GPL1396		
9418122	130ug/mL TLM / DMSO, 6h	GSE1642	GSM28087,GSM28088	2			1		0	0	0	0	mbplot				GPL1396		
10003076	5ug/mL Tetracycline / EtOH, 6h	GSE1642	GSM28091	2			1		0	0	0	0	mbplot				GPL1396		
9105082	0.2mg/mL TLM / EtOH, 6h	GSE1642	GSM28092,GSM28093	2			1		0	0	0	0	mbplot				GPL1396		
9060914	0.15mg/mL Triclosan / EtOH, 6h	GSE1642	GSM28094,GSM28095	2			1		0	0	0	0	mbplot				GPL1396		
9317356	10ug/mL Capreomycin / EtOH, 6h	GSE1642	GSM28096,GSM28097	2			1		0	0	0	0	mbplot				GPL1396		
9360640	10ug/mL Levofloxacin / EtOH, 6h	GSE1642	GSM28098,GSM28099	2			1		0	0	0	0	mbplot				GPL1396		
9223249	0.5ug/mL Rifapentine / EtOH, 6h	GSE1642	GSM28100,GSM28101	2			1		0	0	0	0	mbplot				GPL1396		
9949002	50ug/mL Roxithromycin / EtOH, 6h	GSE1642	GSM28102,GSM28103	2			1		0	0	0	0	mbplot				GPL1396		
9065140	0.1mg/mL Triclosan / EtOH, 6h	GSE1642	GSM28104,GSM28105	2			1		0	0	0	0	mbplot				GPL1396		
9974918	5ug/mL Capreomycin / EtOH, 6h	GSE1642	GSM28106,GSM28107	2			1		0	0	0	0	mbplot				GPL1396		
9164466	0.32ug/mL Cerulenin / EtOH, 6h	GSE1642	GSM28108,GSM28109	2			1		0	0	0	0	mbplot				GPL1396		
9593635	30ug/mL Roxithromycin / EtOH, 6h	GSE1642	GSM28110,GSM28111	2			1		0	0	0	0	mbplot				GPL1396		
9219023	0.5ug/mL Cerulenin / EtOH, 6h	GSE1642	GSM28112,GSM28113	2			1		0	0	0	0	mbplot				GPL1396		
9341280	10ug/mL Chlorpromazine / EtOH, 6h	GSE1642	GSM28114,GSM28115	2			1		0	0	0	0	mbplot				GPL1396		
10015754	60ug/mL Chlorpromazine / EtOH, 6h	GSE1642	GSM28116	2			1		0	0	0	0	mbplot				GPL1396		
9343736	10ug/mL clotrimazole / EtOH, 6h	GSE1642	GSM28117,GSM28118	2			1		0	0	0	0	mbplot				GPL1396		
9347962	10ug/mL Econazole / EtOH, 6h	GSE1642	GSM28119,GSM28120	2			1		0	0	0	0	mbplot				GPL1396		
9096630	0.1ug/mL Rifapentine / EtOH, 6h	GSE1642	GSM28121,GSM28122	2			1		0	0	0	0	mbplot				GPL1396		
9389699	10ug/mL Roxithromycin / EtOH, 6h	GSE1642	GSM28123,GSM28124	2			1		0	0	0	0	mbplot				GPL1396		
9499801	20ug/mL Cephalexin / Control, 6h	GSE1642	GSM28125,GSM28126	2			1		0	0	0	0	mbplot				GPL1396		
9282912	100ug/mL Cephalexin / EtOH, 6h	GSE1642	GSM28127,GSM28128	2			1		0	0	0	0	mbplot				GPL1396		
9958090	50ug/mL Triclosan / EtOH, 6h	GSE1642	GSM28129,GSM28130	2			1		0	0	0	0	mbplot				GPL1396		
9287138	100ug/mL Triclosan / EtOH, 6h	GSE1642	GSM28131,GSM28132	2			1		0	0	0	0	mbplot				GPL1396		
9331931	10ug/mL chlorpromazine/  ctrl, 6h	GSE1642	GSM28133,GSM28134	2			1		0	0	0	0	mbplot				GPL1396		
9516182	20ug/mL Procept 6776 / DMSO, 6h	GSE1642	GSM28135,GSM28153	2			1		0	0	0	0	mbplot				GPL1396		
9206345	0.5ug/mL #121940 / DMSO, 6h	GSE1642	GSM28136,GSM28137	2			1		0	0	0	0	mbplot				GPL1396		
9190616	0.5ug/mL #111891/ DMSO, 6h	GSE1642	GSM28138,GSM28139	2			1		0	0	0	0	mbplot				GPL1396		
9202119	0.5ug/mL #111895 / DMSO, 6h	GSE1642	GSM28140,GSM28146	2			1		0	0	0	0	mbplot				GPL1396		
9589409	30ug/mL Procept 6776 / DMSO, 6h	GSE1642	GSM28141,GSM28142	2			1		0	0	0	0	mbplot				GPL1396		
9993288	5ug/mL Procept 6778 / DMSO, 6h	GSE1642	GSM28143,GSM28144	2			1		0	0	0	0	mbplot				GPL1396		
9520408	20ug/mL Procept 6778 / DMSO, 6h	GSE1642	GSM28145,GSM28154,GSM28155	2			1		0	0	0	0	mbplot				GPL1396		
9210571	0.5ug/mL #124196 / DMSO, 6h	GSE1642	GSM28147,GSM28148	2			1		0	0	0	0	mbplot				GPL1396		
9576731	2ug/mL #121940 / DMSO, 6h	GSE1642	GSM28149,GSM28195	2			1		0	0	0	0	mbplot				GPL1396		
9478671	200uM Dipyridyl / ctrl, 6h	GSE1642	GSM28150	2			1		0	0	0	0	mbplot				GPL1396		
9409670	12.5ug/mL Antimycin / DMSO, 6h	GSE1642	GSM28151	2			1		0	0	0	0	mbplot				GPL1396		
9544605	25ug/mL Antimycin /  DMSO, 6h	GSE1642	GSM28152	2			1		0	0	0	0	mbplot				GPL1396		
9633508	40ug/mL Procept 6778 / DMSO, 6h	GSE1642	GSM28156,GSM28157	2			1		0	0	0	0	mbplot				GPL1396		
9572505	2ug/mL #111895 / DMSO, 6h	GSE1642	GSM28158,GSM28159,GSM28197	2			1		0	0	0	0	mbplot				GPL1396		
10031499	9ug/mL Ascididemin Natural product / DMSO, 6h	GSE1642	GSM28160,GSM28193,GSM28194	2			1		0	0	0	0	mbplot				GPL1396		
9936324	50ug/mL Antimycin A / DMSO 6hour	GSE1642	GSM28161,GSM28162,GSM28198	2			1		0	0	0	0	mbplot				GPL1396		
9381247	10ug/mL PA-1/ DMSO, 6h	GSE1642	GSM28163,GSM28164,GSM28173	2			1		0	0	0	0	mbplot				GPL1396		
9385473	10ug/mL PA-21 / DMSO, 6h	GSE1642	GSM28165,GSM28166	2			1		0	0	0	0	mbplot				GPL1396		
9400582	10ug/mL Triclosan /  DMSO, 6h	GSE1642	GSM28167,GSM28168,GSM28176,GSM28178	2			1		0	0	0	0	mbplot				GPL1396		
10173703	WT t	GSE1642	GSM28169,GSM28170	2			1		0	0	0	0	mbplot				GPL1396		
10169477	WT t	GSE1642	GSM28171,GSM28172	2			1		0	0	0	0	mbplot				GPL1396		
9944776	5ug/mL PA-21 / DMSO	GSE1642	GSM28174,GSM28177	2			1		0	0	0	0	mbplot				GPL1396		
9940550	50ug/mL PA-1 / DMSO 6 hour	GSE1642	GSM28175	2			1		0	0	0	0	mbplot				GPL1396		
9214797	0.5ug/mL Cerulenin / DMSO, 6h	GSE1642	GSM28179,GSM28180,GSM28181,GSM28199	2			1		0	0	0	0	mbplot				GPL1396		
9424779	150uM Deferoxamine / ctrl, 6h	GSE1642	GSM28182,GSM28183,GSM28184	2			1		0	0	0	0	mbplot				GPL1396		
9293795	100uM Dipyridyl / Ctrl, 6h	GSE1642	GSM28185,GSM28186	2			1		0	0	0	0	mbplot				GPL1396		
9232337	1 ug/mL #111891 / DMSO, 6h	GSE1642	GSM28187	2			1		0	0	0	0	mbplot				GPL1396		
9442955	1ug/mL #111891 / DMSO, 6h	GSE1642	GSM28188	2			1		0	0	0	0	mbplot				GPL1396		
9449612	1ug/mL #111895 / DMSO, 6h	GSE1642	GSM28189,GSM28190	2			1		0	0	0	0	mbplot				GPL1396		
9456269	1ug/mL #124196 / DMSO, 6h	GSE1642	GSM28191,GSM28192	2			1		0	0	0	0	mbplot				GPL1396		
9568279	2ug/mL #111891 / DMSO, 6h	GSE1642	GSM28196	2			1		0	0	0	0	mbplot				GPL1396		
9531927	250uM Deferoxamine / DMSO, 6h	GSE1642	GSM28200	2			1		0	0	0	0	mbplot				GPL1396		
9482897	200uM Dipyridy / DMSO, 6h	GSE1642	GSM28201	2			1		0	0	0	0	mbplot				GPL1396		
10035725	9ug/mL Natural product / DMSO, 6h	GSE1642	GSM28202	2			1		0	0	0	0	mbplot				GPL1396		
9932098	4ug/mL Natural compound / DMSO 6hour	GSE1642	GSM28203	2			1		0	0	0	0	mbplot				GPL1396		
9436298	1ug/mL #109 / DMSO, 6h	GSE1642	GSM28204,GSM28206	2			1		0	0	0	0	mbplot				GPL1396		
9300452	10ug/mL #109 / DMSO, 6h	GSE1642	GSM28205,GSM28207	2			1		0	0	0	0	mbplot				GPL1396		
9460495	1ug/mL #241 / DMSO, 6h	GSE1642	GSM28208,GSM28209	2			1		0	0	0	0	mbplot				GPL1396		
9304678	10ug/mL #241 / DMSO, 6h	GSE1642	GSM28210	2			1		0	0	0	0	mbplot				GPL1396		
9464721	1ug/mL #59 / DMSO, 6h	GSE1642	GSM28211,GSM28212	2			1		0	0	0	0	mbplot				GPL1396		
9308904	10ug/mL #59 / DMSO, 6h	GSE1642	GSM28213,GSM28214	2			1		0	0	0	0	mbplot				GPL1396		
9356414	10ug/mL EMB / DMSO, 6h	GSE1642	GSM28215,GSM28216	2			1		0	0	0	0	mbplot				GPL1396		
9453838	1ug/mL #121940 /  DMSO, 12h	GSE1642	GSM28217	2			1		0	0	0	0	mbplot				GPL1343		
9440524	1ug/mL #111891 / DMSO, 12h	GSE1642	GSM28218	2			1		0	0	0	0	mbplot				GPL1343		
9447181	1ug/mL #111895 / DMSO, 12h	GSE1642	GSM28219	2			1		0	0	0	0	mbplot				GPL1343		
9341305	10ug/mL clofazimine / DMSO, 6h	GSE1642	GSM28220	2			1		0	0	0	0	mbplot				GPL1343		
9527065	24ug/mL clotrimazole / DMS, 6h	GSE1642	GSM28221,GSM28241,GSM28242	2			1		0	0	0	0	mbplot				GPL1343		
9504027	20ug/mL chlorpromazine / DMSO, 6h	GSE1642	GSM28222,GSM28243	2			1		0	0	0	0	mbplot				GPL1343		
9476240	2.5mM Dinitrophenol / DMSO, 6h	GSE1642	GSM28223	2			1		0	0	0	0	mbplot				GPL1343		
9953228	50ug/mL Thioridazine: DMSO, 6h	GSE1642	GSM28224	2			1		0	0	0	0	mbplot				GPL1343		
9955659	50ug/mL Triclosan / DMSO, 6h	GSE1642	GSM28225	2			1		0	0	0	0	mbplot				GPL1343		
9278050	100ug/mL Cephalexin / Ctrl, 6h	GSE1642	GSM28228	2			1		0	0	0	0	mbplot				GPL1343		
9508889	20ug/mL ethambutol / DMSO	GSE1642	GSM28232	2			1		0	0	0	0	mbplot				GPL1343		
9529496	24ug/mL Econazole / DMSO, 6h	GSE1642	GSM28234,GSM28235	2			1		0	0	0	0	mbplot				GPL1343		
10071007	Minimal medium (Succinate): 7H9-based medium	GSE1642	GSM28237,GSM28238	2			1		0	0	0	0	mbplot				GPL1343		
9422348	13ug/mL clofazimine / DMSO, 6h	GSE1642	GSM28239,GSM28240	2			1		0	0	0	0	mbplot				GPL1343		
9580957	2ug/mL PA824 / DMSO, 6h	GSE1642	GSM28246	2			1		0	0	0	0	mbplot				GPL1396		
9154395	0.2ug/mL PA824 / DMSO, 6h	GSE1642	GSM28248,GSM28250	2			1		0	0	0	0	mbplot				GPL1343		
9404808	10uM CCCP / DMSO, 6h	GSE1642	GSM28252	2			1		0	0	0	0	mbplot				GPL1343		
9280481	100ug/mL Cephalexin / DMSO, 6h	GSE1642	GSM28253,GSM28257	2			1		0	0	0	0	mbplot				GPL1343		
9291364	100uM DCCD / DMSO, 6h	GSE1642	GSM28254	2			1		0	0	0	0	mbplot				GPL1343		
9429005	1mM DNP / DMSO, 6h	GSE1642	GSM28255,GSM28273	2			1		0	0	0	0	mbplot				GPL1343		
9511320	20ug/mL KCN / DMSO, 6h	GSE1642	GSM28256	2			1		0	0	0	0	mbplot				GPL1343		
9398151	10ug/mL Thioridazine / DMSO, 6h	GSE1642	GSM28258,GSM28270	2			1		0	0	0	0	mbplot				GPL1343		
9374590	10ug/mL Novobiocin / DMSO, 6h	GSE1642	GSM28259,GSM28269,GSM28275	2			1		0	0	0	0	mbplot				GPL1343		
9985801	5ug/mL KCN / DMSO, 6h	GSE1642	GSM28260,GSM28268	2			1		0	0	0	0	mbplot				GPL1343		
9184064	0.5mM DNP / DMSO, 6h	GSE1642	GSM28261	2			1		0	0	0	0	mbplot				GPL1343		
9524634	20uM DCCD / DMSO, 6h	GSE1642	GSM28262,GSM28267	2			1		0	0	0	0	mbplot				GPL1343		
9964747	50uM CCCP / DMSO, 6h	GSE1642	GSM28263,GSM28266,GSM28310	2			1		0	0	0	0	mbplot				GPL1343		
10068576	Min med -Palmitate: Min med - Glucose	GSE1642	GSM28264	2			1		0	0	0	0	mbplot				GPL1343		
10066145	Min med - Succinate / Min med glucose	GSE1642	GSM28265	2			1		0	0	0	0	mbplot				GPL1343		
9298021	10mM Succinate (min med) / 10mM Glucose (min med)	GSE1642	GSM28271,GSM28276,GSM28282	2			1		0	0	0	0	mbplot				GPL1343		
8978189	0.05mM Palmitate (min med)/ 10mM Glucose (min med)	GSE1642	GSM28272,GSM28277,GSM28283	2			1		0	0	0	0	mbplot				GPL1343		
9553693	25ug/mL Thioridazine / DMSO, 6h	GSE1642	GSM28274	2			1		0	0	0	0	mbplot				GPL1343		
9471378	1ug/mL ARP4 / DMSO, 6h	GSE1642	GSM28278	2			1		0	0	0	0	mbplot				GPL1343		
9929667	4ug/mL ARP4 / DMSO 6 hour	GSE1642	GSM28279	2			1		0	0	0	0	mbplot				GPL1343		
9468947	1ug/mL ARP2 / DMSO, 6h	GSE1642	GSM28280	2			1		0	0	0	0	mbplot				GPL1343		
9927236	4ug/mL ARP2 / DMSO 6hour	GSE1642	GSM28281	2			1		0	0	0	0	mbplot				GPL1343		
9372159	10ug/mL methoxatin / DMSO, 6h	GSE1642	GSM28284,GSM28290	2			1		0	0	0	0	mbplot				GPL1343		
9074228	0.1mM GSNO/5ug/mL KCN / DMSO, 6h	GSE1642	GSM28285,GSM28292	2			1		0	0	0	0	mbplot				GPL1343		
9081521	0.1mM GSNO / DMSO, 6h	GSE1642	GSM28286,GSM28291,GSM28352	2			1		0	0	0	0	mbplot				GPL1343		
10024842	7d Dubos NRP-1/ Dubos log phase	GSE1642	GSM28287,GSM28288	2			1		0	0	0	0	mbplot				GPL1343		
9513751	20ug/mL methoxatin / DMSO, 6h	GSE1642	GSM28289	2			1		0	0	0	0	mbplot				GPL1343		
10055262	Dubos NRP-1 / Dubos log-phase	GSE1642	GSM28293	2			1		0	0	0	0	mbplot				GPL1343		
9431436	1mM DTNB / DMSO, 6h	GSE1642	GSM28294	2			1		0	0	0	0	mbplot				GPL1343		
9560986	2mM DTT / DMSO, 6h	GSE1642	GSM28295,GSM28300	2			1		0	0	0	0	mbplot				GPL1343		
9473809	1uM Valinomycin / DMSO, 6h	GSE1642	GSM28296,GSM28302,GSM28304	2			1		0	0	0	0	mbplot				GPL1343		
9407239	10uM Valinomycin / DMSO, 6h	GSE1642	GSM28297	2			1		0	0	0	0	mbplot				GPL1343		
9556124	2mM b-mercaptoethanol / DMSO, 6h	GSE1642	GSM28298	2			1		0	0	0	0	mbplot				GPL1343		
9558555	2mM DTNB / DMSO	GSE1642	GSM28299	2			1		0	0	0	0	mbplot				GPL1343		
9967178	50uM Nigericin / DMSO, 6h	GSE1642	GSM28301,GSM28311,GSM28350	2			1		0	0	0	0	mbplot				GPL1343		
9962316	50ug/mL Verapamil / DMSO, 6h	GSE1642	GSM28303	2			1		0	0	0	0	mbplot				GPL1343		
9506458	20ug/mL CPZ / DMSO, 6h	GSE1642	GSM28305,GSM28316	2			1		0	0	0	0	mbplot				GPL1343		
10073438	PBS/Tw/DMSO / 7H9, 6h	GSE1642	GSM28306	2			1		0	0	0	0	mbplot				GPL1343		
9369728	10ug/mL menadione / DMSO, 6h	GSE1642	GSM28307,GSM28351	2			1		0	0	0	0	mbplot				GPL1343		
9071797	0.1mM GSNO/20ug/mL CPZ / DMSO, 6h	GSE1642	GSM28308,GSM28314	2			1		0	0	0	0	mbplot				GPL1343		
9069366	0.1mM GSNO/10ug/mL menadione / DMSO, 6h	GSE1642	GSM28309,GSM28315	2			1		0	0	0	0	mbplot				GPL1343		
9229906	0.5uM Valinomycin / DMSO, 6h	GSE1642	GSM28312	2			1		0	0	0	0	mbplot				GPL1343		
9227475	0.5uM Valinomycin/ 70mM KCl / DMSO, 6h	GSE1642	GSM28313	2			1		0	0	0	0	mbplot				GPL1343		
9364866	10ug/mL menadione (Dubos) / DMSO, 6h	GSE1642	GSM28317	2			1		0	0	0	0	mbplot				GPL1343		
9903675	Dubos NRP-1 / Dubos aerobic 4 day in log phase	GSE1642	GSM28318,GSM28329	2			1		0	0	0	0	mbplot				GPL1343		
9901244	Dubos NRP-1/NO3 / Dubos aerobic 4 days	GSE1642	GSM28319	2			1		0	0	0	0	mbplot				GPL1343		
9551262	25ug/mL CPZ / DMSO ctrl, 6h	GSE1642	GSM28320,GSM28330,GSM28334,GSM28347	2			1		0	0	0	0	mbplot				GPL1343		
8975758	0.02mM GSNO/ DMSO, 6h	GSE1642	GSM28321	2			1		0	0	0	0	mbplot				GPL1343		
9548831	25ug/mL CPZ   0.1mM GSNO / DMSO	GSE1642	GSM28322,GSM28326,GSM28336,GSM28340,GSM28344,GSM28354	2			1		0	0	0	0	mbplot				GPL1343		
9979144	5ug/mL Clofazimine   0.1mM GSNO / DMSO	GSE1642	GSM28323,GSM28332,GSM28341,GSM28353	2			1		0	0	0	0	mbplot				GPL1343		
9173333	0.4mM NaN3 / DMSO, 4h	GSE1642	GSM28324,GSM28333	2			1		0	0	0	0	mbplot				GPL1343		
10075869	PBS/Tween80/DMSO / DMSO, 6h	GSE1642	GSM28325	2			1		0	0	0	0	mbplot				GPL1343		
9367297	10ug/mL menadione   0.1mM GSNO / DMSO	GSE1642	GSM28327,GSM28345,GSM28355	2			1		0	0	0	0	mbplot				GPL1343		
9170902	0.4mM NaN3 / DMSO	GSE1642	GSM28328,GSM28346	2			1		0	0	0	0	mbplot				GPL1343		
9079090	0.1mM GSNO / DMSO, 4h	GSE1642	GSM28331	2			1		0	0	0	0	mbplot				GPL1343		
10022411	6ug/mL Menadione / DMSO, 6h	GSE1642	GSM28335	2			1		0	0	0	0	mbplot				GPL1343		
10019980	6ug/mL Menadione   0.1mM GSNO / DMSO	GSE1642	GSM28337	2			1		0	0	0	0	mbplot				GPL1343		
9563417	2mM NaN3 / DMSO, 6h	GSE1642	GSM28338,GSM28349	2			1		0	0	0	0	mbplot				GPL1343		
9565848	2mM ZnSO4 / DMSO, 6h	GSE1642	GSM28339	2			1		0	0	0	0	mbplot				GPL1343		
9076659	0.1mM GSNO / DMSO, 3.5h	GSE1642	GSM28342	2			1		0	0	0	0	mbplot				GPL1343		
9109308	0.2mM NaN3 / DMSO	GSE1642	GSM28343	2			1		0	0	0	0	mbplot				GPL1343		
9433867	1mM DTT /  DMSO, 6h	GSE1642	GSM28348	2			1		0	0	0	0	mbplot				GPL1343		
10078300	PBS/Tween / 7H9	GSE1642	GSM28356	2			1		0	0	0	0	mbplot				GPL1343		
31168741	mRNA abundance WT on LB / Genomic DNA from dnaC(ts) mutant	GSE1730	GSM30231,GSM30232,GSM30233,GSM30234	2	2		1		1	1	0	0	mbplot				GPL1436		NC_000913
18906518	mRNA abundance WT on LB / Genomic DNA from dnaC(ts) mutant	GSE1730	GSM30231,GSM30232,GSM30233,GSM30234	2	2		1		1	1	0	0	mbplot				GPL1436		NC_000913
18911012	mRNA abundance WT on LB / Genomic DNA from dnaC(ts) mutant (dye swap)	GSE1730	GSM30235,GSM30236,GSM30237,GSM30238	2	2		1		1	1	0	0	mbplot				GPL1436		NC_000913
31177728	mRNA abundance WT on LB / Genomic DNA from dnaC(ts) mutant (dye swap)	GSE1730	GSM30235,GSM30236,GSM30237,GSM30238	2	2		1		1	1	0	0	mbplot				GPL1436		NC_000913
31186715	mRNA abundance gyrA D82G mutant on LB / Genomic DNA from dnaC(ts) mutant	GSE1730	GSM30239,GSM30240,GSM30241,GSM30242	2	1		2		1	1	0	0	mbplot				GPL1436		NC_000913
18915506	mRNA abundance gyrA D82G mutant on LB / Genomic DNA from dnaC(ts) mutant	GSE1730	GSM30239,GSM30240,GSM30241,GSM30242	2	1		2		1	1	0	0	mbplot				GPL1436		NC_000913
18920000	mRNA abundance gyrA D82G mutant on LB / Genomic DNA from dnaC(ts) mutant (dye swap)	GSE1730	GSM30243,GSM30244,GSM30245,GSM30246	2	2		1		1	1	0	0	mbplot				GPL1436		NC_000913
31195702	mRNA abundance gyrA D82G mutant on LB / Genomic DNA from dnaC(ts) mutant (dye swap)	GSE1730	GSM30243,GSM30244,GSM30245,GSM30246	2	2		1		1	1	0	0	mbplot				GPL1436		NC_000913
31204689	mRNA abundance (wt in LB, norfloxacin for 10 min)  / Genomic DNA from dnaC(ts) mutant	GSE1730	GSM30247,GSM30248,GSM30249,GSM30250	2	1		2		1	1	0	0	mbplot				GPL1436		NC_000913
18924494	mRNA abundance (wt in LB, norfloxacin for 10 min)  / Genomic DNA from dnaC(ts) mutant	GSE1730	GSM30247,GSM30248,GSM30249,GSM30250	2	1		2		1	1	0	0	mbplot				GPL1436		NC_000913
31213676	mRNA abundance (wt in LB, norfloxacin for 10 min) / Genomic DNA from dnaC(ts) mutant (dye swap)	GSE1730	GSM30251,GSM30252,GSM30253,GSM30254	2	2		1		1	1	0	0	mbplot				GPL1436		NC_000913
18928988	mRNA abundance (wt in LB, norfloxacin for 10 min) / Genomic DNA from dnaC(ts) mutant (dye swap)	GSE1730	GSM30251,GSM30252,GSM30253,GSM30254	2	2		1		1	1	0	0	mbplot				GPL1436		NC_000913
31222663	mRNA abundance (wt in LB, norfloxacin for 30 min) / Genomic DNA from dnaC(ts) mutant	GSE1730	GSM30255,GSM30256,GSM30257,GSM30258	2	1		2		1	1	0	0	mbplot				GPL1436		NC_000913
18933482	mRNA abundance (wt in LB, norfloxacin for 30 min) / Genomic DNA from dnaC(ts) mutant	GSE1730	GSM30255,GSM30256,GSM30257,GSM30258	2	1		2		1	1	0	0	mbplot				GPL1436		NC_000913
31231650	mRNA abundance (wt in LB, norfloxacin for 30 min) / Genomic DNA from dnaC(ts) mutant (dye swap)	GSE1730	GSM30259,GSM30260,GSM30261,GSM30262	2	2		1		1	1	0	0	mbplot				GPL1436		NC_000913
18937976	mRNA abundance (wt in LB, norfloxacin for 30 min) / Genomic DNA from dnaC(ts) mutant (dye swap)	GSE1730	GSM30259,GSM30260,GSM30261,GSM30262	2	2		1		1	1	0	0	mbplot				GPL1436		NC_000913
31240637	mRNA abundance (gyrA D82G, LB) / mRNA abundance (wt, LB)	GSE1730	GSM30330,GSM30331,GSM30332,GSM30333	2	1		2		1	1	0	0	mbplot				GPL1436		NC_000913
18942470	mRNA abundance (gyrA D82G, LB) / mRNA abundance (wt, LB)	GSE1730	GSM30330,GSM30331,GSM30332,GSM30333	2	1		2		1	1	0	0	mbplot				GPL1436		NC_000913
31249624	mRNA abundance (gyrA D82G, LB) / mRNA abundance (wt, LB) (dye swap)	GSE1730	GSM30334,GSM30335,GSM30336,GSM30337	2	2		1		1	1	0	0	mbplot				GPL1436		NC_000913
18946964	mRNA abundance (gyrA D82G, LB) / mRNA abundance (wt, LB) (dye swap)	GSE1730	GSM30334,GSM30335,GSM30336,GSM30337	2	2		1		1	1	0	0	mbplot				GPL1436		NC_000913
31258611	mRNA abundance (wt, M9) / Genomic DNA from dnaC(ts) mutant	GSE1730	GSM30338,GSM30339,GSM30340,GSM30341	2	1		2		1	1	0	0	mbplot				GPL1436		NC_000913
18951458	mRNA abundance (wt, M9) / Genomic DNA from dnaC(ts) mutant	GSE1730	GSM30338,GSM30339,GSM30340,GSM30341	2	1		2		1	1	0	0	mbplot				GPL1436		NC_000913
31267598	2mM copper / no added copper	GSE1780	GSM30815,GSM30816,GSM30817	2	1	3	5	7	1	1	0	0	mbplot				GPL1246		NC_000913
18955952	2mM copper / no added copper	GSE1780	GSM30815,GSM30816,GSM30817	2	1	3	5	7	1	1	0	0	mbplot				GPL1246		NC_000913
31287147	0.75mM added copper / no added copper	GSE1780	GSM30818,GSM30819,GSM30820	2	1	3	5	7	1	1	0	0	mbplot				GPL1246		NC_000913
18965735	0.75mM added copper / no added copper	GSE1780	GSM30818,GSM30819,GSM30820	2	1	3	5	7	1	1	0	0	mbplot				GPL1246		NC_000913
18975518	no added copper / no added copper	GSE1780	GSM30821,GSM30822,GSM30823	2	1	3	5	7	1	1	0	0	mbplot				GPL1246		NC_000913
31306696	no added copper / no added copper	GSE1780	GSM30821,GSM30822,GSM30823	2	1	3	5	7	1	1	0	0	mbplot				GPL1246		NC_000913
26200694	L. acidophilus NCK1686 (NCFM::1524HPK) / L. acidophilus NCK1398 (NCFM::lacL) were exposed to MRS pH 5.5 (adjusted with lactate) for 30 min.	GSE1976	GSM35230,GSM35240	2			2		0	0	0	0	mbplot				GPL1401		
26198884	L. acidophilus NCK1686 (NCFM::HPK) / L. acidophilus NCK1398 (NCFM::LacL) were exposed to MRS pH 4.5 (adjusted with lactate) for 30 min.	GSE1976	GSM35238,GSM35244	2			2		0	0	0	0	mbplot				GPL1401		
26202504	L. acidophilus NCK1686 (NCFM::1524HPK) / L. acidophilus NCK1398 (NCFM::lacL) were exposed to MRS pH 6.8 (adjusted with lactate) for 30 min.	GSE1976	GSM35251,GSM35252	2			2		0	0	0	0	mbplot				GPL1401		
31326245	DM medium / LB medium	GSE1981	GSM35417,GSM35418,GSM35419	2	3		2		1	1	0	0	mbplot				GPL1325		NC_000913
18985301	DM medium / LB medium	GSE1981	GSM35417,GSM35418,GSM35419	2	3		2		1	1	0	0	mbplot				GPL1325		NC_000913
31335244	glycerol / glucose	GSE2037	GSM37068,GSM37069/GSM37063,GSM37064,GSM37065,GSM37066,GSM37067	1			1		1	1	0	0	mbplot				GPL199	NC_000913	NC_000913
18989801	glycerol / glucose	GSE2037	GSM37068,GSM37069/GSM37063,GSM37064,GSM37065,GSM37066,GSM37067	1			1		1	1	0	0	mbplot				GPL199	NC_000913	NC_000913
18994404	succinate / glucose	GSE2037	GSM37070,GSM37071/GSM37063,GSM37064,GSM37065,GSM37066,GSM37067	1			1		1	1	0	0	mbplot				GPL199	NC_000913	NC_000913
31344449	succinate / glucose	GSE2037	GSM37070,GSM37071/GSM37063,GSM37064,GSM37065,GSM37066,GSM37067	1			1		1	1	0	0	mbplot				GPL199	NC_000913	NC_000913
31353654	alanine / glucose	GSE2037	GSM37072,GSM37073/GSM37063,GSM37064,GSM37065,GSM37066,GSM37067	1			1		1	1	0	0	mbplot				GPL199	NC_000913	NC_000913
18999007	alanine / glucose	GSE2037	GSM37072,GSM37073/GSM37063,GSM37064,GSM37065,GSM37066,GSM37067	1			1		1	1	0	0	mbplot				GPL199	NC_000913	NC_000913
31362859	acetate / glucose	GSE2037	GSM37074,GSM37075/GSM37063,GSM37064,GSM37065,GSM37066,GSM37067	1			1		1	1	0	0	mbplot				GPL199	NC_000913	NC_000913
19003610	acetate / glucose	GSE2037	GSM37074,GSM37075/GSM37063,GSM37064,GSM37065,GSM37066,GSM37067	1			1		1	1	0	0	mbplot				GPL199	NC_000913	NC_000913
19008213	proline / glucose	GSE2037	GSM37076,GSM37077/GSM37063,GSM37064,GSM37065,GSM37066,GSM37067	1			1		1	1	0	0	mbplot				GPL199	NC_000913	NC_000913
31372064	proline / glucose	GSE2037	GSM37076,GSM37077/GSM37063,GSM37064,GSM37065,GSM37066,GSM37067	1			1		1	1	0	0	mbplot				GPL199	NC_000913	NC_000913
19012816	Aerobic steady-state 200uM GSNO for 5 minutes / No GSNO (Chemostat 1)	GSE2095	GSM37885	2	10	11	2	3	1	1	0	0	mbplot				GPL534		NC_000913
31381269	Aerobic steady-state 200uM GSNO for 5 minutes / No GSNO (Chemostat 1)	GSE2095	GSM37885	2	10	11	2	3	1	1	0	0	mbplot				GPL534		NC_000913
31390274	Aerobic steady-state 200uM GSNO for 5 minutes / No GSNO (Chemostat 1 dye swap)	GSE2095	GSM37886	2	2	3	10	11	1	1	0	0	mbplot				GPL534		NC_000913
19017319	Aerobic steady-state 200uM GSNO for 5 minutes / No GSNO (Chemostat 1 dye swap)	GSE2095	GSM37886	2	2	3	10	11	1	1	0	0	mbplot				GPL534		NC_000913
19021822	Aerobic steady-state 200uM GSNO for 5 minutes / No GSNO (Chemostat 2)	GSE2095	GSM37887	2	10	11	2	3	1	1	0	0	mbplot				GPL534		NC_000913
31399279	Aerobic steady-state 200uM GSNO for 5 minutes / No GSNO (Chemostat 2)	GSE2095	GSM37887	2	10	11	2	3	1	1	0	0	mbplot				GPL534		NC_000913
31408284	Aerobic steady-state 200uM GSNO for 5 minutes / No GSNO (Chemostat 2 dye swap)	GSE2095	GSM37888	2	2	3	10	11	1	1	0	0	mbplot				GPL534		NC_000913
19026325	Aerobic steady-state 200uM GSNO for 5 minutes / No GSNO (Chemostat 2 dye swap)	GSE2095	GSM37888	2	2	3	10	11	1	1	0	0	mbplot				GPL534		NC_000913
19030828	SAnaerobic steady-state 200uM GSNO for 5 minutes / No GSNO (Run 1)	GSE2129	GSM38546	2	10	11	2	3	1	1	0	0	mbplot				GPL534		NC_000913
31417289	SAnaerobic steady-state 200uM GSNO for 5 minutes / No GSNO (Run 1)	GSE2129	GSM38546	2	10	11	2	3	1	1	0	0	mbplot				GPL534		NC_000913
31426294	Anaerobic steady-state 200uM GSNO for 5 minutes / No GSNO (Run 1 dye swap)	GSE2129	GSM38547	2	2	3	10	11	1	1	0	0	mbplot				GPL534		NC_000913
19035331	Anaerobic steady-state 200uM GSNO for 5 minutes / No GSNO (Run 1 dye swap)	GSE2129	GSM38547	2	2	3	10	11	1	1	0	0	mbplot				GPL534		NC_000913
31435299	Anaerobic steady-state 200uM GSNO for 5 minutes / No GSNO (Run 2)	GSE2129	GSM38548	2	10	11	2	11	1	1	0	0	mbplot				GPL534		NC_000913
19039834	Anaerobic steady-state 200uM GSNO for 5 minutes / No GSNO (Run 2)	GSE2129	GSM38548	2	10	11	2	11	1	1	0	0	mbplot				GPL534		NC_000913
19044337	Anaerobic steady-state 200uM GSNO for 5 minutes / No GSNO (Run 2 dye swap)	GSE2129	GSM38549	2	2	3	10	11	1	1	0	0	mbplot				GPL534		NC_000913
31444304	Anaerobic steady-state 200uM GSNO for 5 minutes / No GSNO (Run 2 dye swap)	GSE2129	GSM38549	2	2	3	10	11	1	1	0	0	mbplot				GPL534		NC_000913
19048840	5 min sigma32 induction / Control	GSE2140	GSM38697,GSM38701/GSM38696,GSM38700	1			1		1	1	0	0	mbplot		5		GPL199	NC_000913	NC_000913
31453309	5 min sigma32 induction / Control	GSE2140	GSM38697,GSM38701/GSM38696,GSM38700	1			1		1	1	0	0	mbplot		5		GPL199	NC_000913	NC_000913
19053443	10 min sigma32 induction / Control	GSE2140	GSM38698,GSM38702/GSM38696,GSM38700	1			1		1	1	0	0	mbplot		10		GPL199	NC_000913	NC_000913
31462514	10 min sigma32 induction / Control	GSE2140	GSM38698,GSM38702/GSM38696,GSM38700	1			1		1	1	0	0	mbplot		10		GPL199	NC_000913	NC_000913
19058046	15 min sigma32 induction / Control	GSE2140	GSM38699,GSM38703/GSM38696,GSM38700	1			1		1	1	0	0	mbplot		15		GPL199	NC_000913	NC_000913
31471719	15 min sigma32 induction / Control	GSE2140	GSM38699,GSM38703/GSM38696,GSM38700	1			1		1	1	0	0	mbplot		15		GPL199	NC_000913	NC_000913
7626541	QW105(cheY)_1.0h on plate / SM100_1.0h on plate	GSE2340	GSM23150,GSM23151,GSM23152	2	15	16	3	4	1	1	0	0	mbplot				GPL224		
7643770	cheY 1.5h on plate / 14028 1.5h on plate	GSE2340	GSM23876,GSM23877,GSM23878	2	15	16	3	4	1	1	0	0	mbplot				GPL224		
7658027	cheY 1h on plate / 14028 1h on plate	GSE2340	GSM23879,GSM23880,GSM23881	2	15	16	3	4	1	1	0	0	mbplot				GPL224		
7689851	cheY 0h on plate / 14028 0h on plate	GSE2340	GSM23883,GSM23884,GSM23885	2	3	6	15	16	1	1	0	0	mbplot				GPL224		
7676523	cheY 2.5h on plate / 14028 2.5h on plate	GSE2340	GSM23889,GSM23890,GSM23891	2	3	4	15	16	1	1	0	0	mbplot				GPL224		
7685010	cheY 2h on plate / 14028 2h on plate	GSE2340	GSM23896,GSM23897,GSM23898	2	15	23	3	4	1	1	0	0	mbplot				GPL224		
7694692	cheY 4h on plate / 14028 4h on plate	GSE2340	GSM23900,GSM23901,GSM23902	2	3	6	15	16	1	1	0	0	mbplot				GPL224		
7699533	cheY 3h on plate / 14028 3h on plate	GSE2340	GSM43870,GSM43871,GSM43872	2	15	16	3	4	1	1	0	0	mbplot				GPL548		
7343454	Typhimurium 14028 cheA mutant / Typhimurium 14028 wt	GSE2341	GSM43873,GSM43874,GSM43875	2	15	16	3	8	1	1	0	0	mbplot				GPL548		
7352361	Typhimurium 14028 cheB mutant / Typhimurium 14028 wt	GSE2341	GSM43876,GSM43877,GSM43878	2	15	16	3	8	1	1	0	0	mbplot				GPL548		
7357549	Typhimurium 14028 cheZ mutant/Typhimurium 14028 wt	GSE2341	GSM43879,GSM43880,GSM43881	2	15	16	3	8	1	1	0	0	mbplot				GPL548		
7370175	Typhimurium 14028 cheYflgM double mutant / Typhimurium 14028 wt	GSE2341	GSM43882,GSM43883,GSM43884,GSM43894,GSM43895,GSM43896	2	15	16	3	8	1	1	0	0	mbplot				GPL1835		
7379151	Typhimurium 14028 cheZ mutant / Typhimurium 14028 wt	GSE2341	GSM43885,GSM43886,GSM43887	2	3	4	15	16	1	1	0	0	mbplot				GPL1835		
7392172	Typhimurium 14028 flgM mutant / Typhimurium 14028 wt	GSE2341	GSM43888,GSM43889,GSM43890,GSM43891,GSM43892,GSM43893	2	3	4	15	16	1	1	0	0	mbplot				GPL1835		
31480924	IS5 deletion / WT Motile strain	GSE2694	GSM52113,GSM52126,GSM52127,GSM52128,GSM52129,GSM52130	2			1		0	0	0	0	mbplot				GPL2101		NC_000913
19062649	IS5 deletion / WT Motile strain	GSE2694	GSM52113,GSM52126,GSM52127,GSM52128,GSM52129,GSM52130	2			1		0	0	0	0	mbplot				GPL2101		NC_000913
19067143	IS5 deletion / WT Non-motile strain	GSE2694	GSM52131,GSM52132	2			1		0	0	0	0	mbplot				GPL2109		NC_000913
31489911	IS5 deletion / WT Non-motile strain	GSE2694	GSM52131,GSM52132	2			1		0	0	0	0	mbplot				GPL2109		NC_000913
19071637	WT Non-motile strain / WT Motile strain	GSE2694	GSM52133,GSM52134,GSM52135,GSM52136,GSM52137,GSM52138,GSM52139,GSM52140	2			1		0	0	0	0	mbplot				GPL2110		NC_000913
31498898	WT Non-motile strain / WT Motile strain	GSE2694	GSM52133,GSM52134,GSM52135,GSM52136,GSM52137,GSM52138,GSM52139,GSM52140	2			1		0	0	0	0	mbplot				GPL2110		NC_000913
19076131	PHMB exposed  / unexposed	GSE2827	GSM62197,GSM62198,GSM62199/GSM62194,GSM62195,GSM62196	1			1		1	1	0	0	mbplot				GPL2568	NC_000913	NC_000913
31507885	PHMB exposed  / unexposed	GSE2827	GSM62197,GSM62198,GSM62199/GSM62194,GSM62195,GSM62196	1			1		1	1	0	0	mbplot				GPL2568	NC_000913	NC_000913
19080578	dam / WT	GSE2928	GSM63888,GSM63889,GSM63890/GSM63885,GSM63886,GSM63887	1			1		1	1	0	0	mbplot				GPL73	NC_000913	NC_000913
31516778	dam / WT	GSE2928	GSM63888,GSM63889,GSM63890/GSM63885,GSM63886,GSM63887	1			1		1	1	0	0	mbplot				GPL73	NC_000913	NC_000913
31525983	dam mutS / WT	GSE2928	GSM63891,GSM63892,GSM63893/GSM63885,GSM63886,GSM63887	1			1		1	1	0	0	mbplot				GPL73	NC_000913	NC_000913
19085181	dam mutS / WT	GSE2928	GSM63891,GSM63892,GSM63893/GSM63885,GSM63886,GSM63887	1			1		1	1	0	0	mbplot				GPL73	NC_000913	NC_000913
31535188	mutS / WT	GSE2928	GSM63894,GSM63895,GSM63896/GSM63885,GSM63886,GSM63887	1			1		1	1	0	0	mbplot				GPL73	NC_000913	NC_000913
19089784	mutS / WT	GSE2928	GSM63894,GSM63895,GSM63896/GSM63885,GSM63886,GSM63887	1			1		1	1	0	0	mbplot				GPL73	NC_000913	NC_000913
31544393	dam  / WT	GSE2999	GSM65588,GSM65589,GSM65590/GSM65600,GSM65601,GSM65622	1			1		1	1	0	0	mbplot				GPL73	NC_000913	NC_000913
19094387	dam  / WT	GSE2999	GSM65588,GSM65589,GSM65590/GSM65600,GSM65601,GSM65622	1			1		1	1	0	0	mbplot				GPL73	NC_000913	NC_000913
31553598	dam mutS  / WT	GSE2999	GSM65591,GSM65593,GSM65594/GSM65600,GSM65601,GSM65622	1			1		1	1	0	0	mbplot				GPL73	NC_000913	NC_000913
19098990	dam mutS  / WT	GSE2999	GSM65591,GSM65593,GSM65594/GSM65600,GSM65601,GSM65622	1			1		1	1	0	0	mbplot				GPL73	NC_000913	NC_000913
19103593	mutS  / WT	GSE2999	GSM65596,GSM65597,GSM65598/GSM65600,GSM65601,GSM65622	1			1		1	1	0	0	mbplot				GPL73	NC_000913	NC_000913
31562803	mutS  / WT	GSE2999	GSM65596,GSM65597,GSM65598/GSM65600,GSM65601,GSM65622	1			1		1	1	0	0	mbplot				GPL73	NC_000913	NC_000913
31572008	dam mutS, cisplatin treated / WT cisplatin treated	GSE2999	GSM65623,GSM65624,GSM65626/GSM65638,GSM65639,GSM65641	1			1		1	1	0	0	mbplot				GPL73	NC_000913	NC_000913
19108196	dam mutS, cisplatin treated / WT cisplatin treated	GSE2999	GSM65623,GSM65624,GSM65626/GSM65638,GSM65639,GSM65641	1			1		1	1	0	0	mbplot				GPL73	NC_000913	NC_000913
31581213	dam, cisplatin treated / WT cisplatin treated	GSE2999	GSM65628,GSM65629,GSM65630/GSM65638,GSM65639,GSM65641	1			1		1	1	0	0	mbplot				GPL73	NC_000913	NC_000913
19112799	dam, cisplatin treated / WT cisplatin treated	GSE2999	GSM65628,GSM65629,GSM65630/GSM65638,GSM65639,GSM65641	1			1		1	1	0	0	mbplot				GPL73	NC_000913	NC_000913
19117402	mutS, cisplatin treated / WT cisplatin treated	GSE2999	GSM65632,GSM65634,GSM65636/GSM65638,GSM65639,GSM65641	1			1		1	1	0	0	mbplot				GPL73	NC_000913	NC_000913
31590418	mutS, cisplatin treated / WT cisplatin treated	GSE2999	GSM65632,GSM65634,GSM65636/GSM65638,GSM65639,GSM65641	1			1		1	1	0	0	mbplot				GPL73	NC_000913	NC_000913
8851902	cDNA obtained 2h post-infection / Reference genomic DNA	GSE3095	GSM68748,GSM68749,GSM68750,GSM68751,GSM68752,GSM68753	2	3	4	15	16	1	1	0	0	mbplot				GPL548		
8856901	1XSCOTS cDNA obtained 2h post-infection / Reference genomic DNA	GSE3095	GSM68754,GSM68755,GSM68756,GSM68757,GSM68758,GSM68759	2	3	4	15	16	1	1	0	0	mbplot				GPL548		
8861900	2XSCOTS cDNA obtained 2h post-infection / Reference genomic DNA	GSE3095	GSM68760,GSM68761,GSM68762,GSM68763,GSM68764,GSM68765	2	3	4	15	16	1	1	0	0	mbplot				GPL548		
8866899	3XSCOTS cDNA obtained 2h post-infection / Reference genomic DNA	GSE3095	GSM68766,GSM68767,GSM68768,GSM68769,GSM68770,GSM68771	2	3	4	15	16	1	1	0	0	mbplot				GPL548		
7052969	3XSCOTS cDNA obtained from infection supernatant / Reference genomic DNA	GSE3096	GSM68772,GSM68773,GSM68774	2	3	4	15	16	1	1	0	0	mbplot				GPL548		
7066875	3XSCOTS cDNA obtained from infection supernatant / Reference genomic DNA	GSE3096	GSM68775,GSM68776,GSM68777	2	3	4	15	16	1	1	0	0	mbplot				GPL1835		
7047970	3XSCOTS cDNA obtained 0h post-infection / Reference genomic DNA	GSE3096	GSM68778,GSM68779,GSM68780	2	3	4	15	16	1	1	0	0	mbplot				GPL548		
7032904	3XSCOTS cDNA obtained 0h post-infection / Reference genomic DNA	GSE3096	GSM68781,GSM68782,GSM68783	2	3	4	15	16	1	1	0	0	mbplot				GPL1835		
7057968	3XSCOTS cDNA obtained 8h post-infection / Reference genomic DNA	GSE3096	GSM68784,GSM68785,GSM68786,GSM68787,GSM68788,GSM68789	2	3	4	15	16	1	1	0	0	mbplot				GPL548		
7042971	3XSCOTS cDNA obtained 24h post-infection / Reference genomic DNA	GSE3096	GSM68790,GSM68791,GSM68792,GSM68793,GSM68794,GSM68795	2	3	4	15	16	1	1	0	0	mbplot				GPL548		
19122005	WT pBAD-ryhB / WT pNM12 control	GSE3105	GSM67647,GSM67648/GSM67651,GSM67652	1			1		1	1	0	0	mbplot				GPL199	NC_000913	NC_000913
31599623	WT pBAD-ryhB / WT pNM12 control	GSE3105	GSM67647,GSM67648/GSM67651,GSM67652	1			1		1	1	0	0	mbplot				GPL199	NC_000913	NC_000913
31608828	fur pBAD-ryhB  / fur pNM12 control	GSE3105	GSM67655,GSM67656/GSM67657,GSM67658	1			1		1	1	0	0	mbplot				GPL199	NC_000913	NC_000913
19126608	fur pBAD-ryhB  / fur pNM12 control	GSE3105	GSM67655,GSM67656/GSM67657,GSM67658	1			1		1	1	0	0	mbplot				GPL199	NC_000913	NC_000913
31618033	WT pBAD-ryhB +FeSO4 + / WT pNM12 control +FeSO4	GSE3105	GSM67659,GSM67660/GSM67663,GSM67665	1			1		1	1	0	0	mbplot				GPL199	NC_000913	NC_000913
19132921	WT pBAD-ryhB +FeSO4 + / WT pNM12 control +FeSO4	GSE3105	GSM67659,GSM67660/GSM67663,GSM67665	1			1		1	1	0	0	mbplot				GPL199	NC_000913	NC_000913
31627238	rne pRNG3 / WT pPM30	GSE3123	GSM69768,GSM69775	2	12		11		1	1	0	0	mbplot				GPL2755		NC_000913
19139234	rne pRNG3 / WT pPM30	GSE3123	GSM69768,GSM69775	2	12		11		1	1	0	0	mbplot				GPL2755		NC_000913
19143854	rne pNRNE5 / WT pPM30	GSE3123	GSM69769,GSM69770	2	12		11		1	1	0	0	mbplot				GPL2755		NC_000913
31636477	rne pNRNE5 / WT pPM30	GSE3123	GSM69769,GSM69770	2	12		11		1	1	0	0	mbplot				GPL2755		NC_000913
19148474	rng / WT pPM30 Trial A	GSE3123	GSM69771	2	12		11		1	1	0	0	mbplot				GPL2755		NC_000913
31645716	rng / WT pPM30 Trial A	GSE3123	GSM69771	2	12		11		1	1	0	0	mbplot				GPL2755		NC_000913
31654955	rne pBADRNE / WT pPM30	GSE3123	GSM69772	2	12		11		1	1	0	0	mbplot				GPL2755		NC_000913
19153094	rne pBADRNE / WT pPM30	GSE3123	GSM69772	2	12		11		1	1	0	0	mbplot				GPL2755		NC_000913
31664194	WT pRNG3 / WT pPM30	GSE3123	GSM69773,GSM69774	2	12		11		1	1	0	0	mbplot				GPL2755		NC_000913
19157714	WT pRNG3 / WT pPM30	GSE3123	GSM69773,GSM69774	2	12		11		1	1	0	0	mbplot				GPL2755		NC_000913
19162334	rng / WT pPM30 Trial B	GSE3123	GSM69776	2	12		11		1	1	0	0	mbplot				GPL2755		NC_000913
31673433	rng / WT pPM30 Trial B	GSE3123	GSM69776	2	12		11		1	1	0	0	mbplot				GPL2755		NC_000913
31682672	rne pBAD-RNE without Arabinose / WT	GSE3123	GSM69777	2	12		11		1	1	0	0	mbplot				GPL2755		NC_000913
19168904	rne pBAD-RNE without Arabinose / WT	GSE3123	GSM69777	2	12		11		1	1	0	0	mbplot				GPL2755		NC_000913
8208028	strain 9802501/ H37Rv genomic DNA control	GSE3201	GSM71943,GSM71946,GSM71948,GSM71950	2			26		0	0	0	0	mbplot				GPL2787		
8204120	strain 9800608/ H37Rv genomic DNA control	GSE3201	GSM71944,GSM71945,GSM71947,GSM71951	2			26		0	0	0	0	mbplot				GPL2787		
8225526	strain CDC1551/ H37Rv genomic DNA control	GSE3201	GSM71949,GSM71953,GSM71957,GSM71984	2			26		0	0	0	0	mbplot				GPL2787		
8200212	strain 9700665/ H37Rv genomic DNA control	GSE3201	GSM71952,GSM71980,GSM71981,GSM71983	2			26		0	0	0	0	mbplot				GPL2787		
8242091	strain M3061a RNA/ H37Rv genomic DNA control	GSE3201	GSM71954,GSM71985,GSM71986,GSM71987	2			26		0	0	0	0	mbplot				GPL2787		
8189413	strain1843/ H37Rv genomic DNA control	GSE3201	GSM71955,GSM71966,GSM71969,GSM71973	2			26		0	0	0	0	mbplot				GPL2787		
8216815	strain 9802826/ H37Rv genomic DNA control	GSE3201	GSM71956,GSM71961,GSM71962,GSM71971	2			26		0	0	0	0	mbplot				GPL2787		
8235538	strainH37Rv/ H37Rv genomic DNA control	GSE3201	GSM71958,GSM71988,GSM71989,GSM71990	2			26		0	0	0	0	mbplot				GPL2787		
8229434	strain H37Ra/ H37Rv genomic DNA control	GSE3201	GSM71959,GSM71960,GSM71972,GSM71982	2			26		0	0	0	0	mbplot				GPL2787		
8178490	strain 1254 RNA / H37Rv genomic DNA control	GSE3201	GSM71963,GSM71964,GSM71968,GSM71976	2			26		0	0	0	0	mbplot				GPL2787		
8196304	strain3160/ H37Rv genomic DNA control	GSE3201	GSM71965,GSM71967,GSM71970,GSM71974	2			26		0	0	0	0	mbplot				GPL2787		
8164584	strain 1006 RNA/ H37Rv genomic DNA control	GSE3201	GSM71975,GSM71977,GSM71978,GSM71979	2			26		0	0	0	0	mbplot				GPL2787		
19173524	5 min glucose to acetate shift (WT) / WT reference (Exp 1)	GSE3250	GSM73149,GSM73150	2	2		4		1	1	0	0	mbplot		5		GPL2818		NC_000913
31691911	5 min glucose to acetate shift (WT) / WT reference (Exp 1)	GSE3250	GSM73149,GSM73150	2	2		4		1	1	0	0	mbplot		5		GPL2818		NC_000913
31700924	5 min glucose to acetate shift (WT) / WT reference (Exp 2)	GSE3250	GSM73151,GSM73152	2	2		4		1	1	0	0	mbplot		5		GPL2818		NC_000913
19178031	5 min glucose to acetate shift (WT) / WT reference (Exp 2)	GSE3250	GSM73151,GSM73152	2	2		4		1	1	0	0	mbplot		5		GPL2818		NC_000913
31709937	5 min glucose to acetate shift (ppsA mutant) / ppsA reference (Exp 1)	GSE3250	GSM73274,GSM73275	2	2		4		1	1	0	0	mbplot		5		GPL2818		NC_000913
19182538	5 min glucose to acetate shift (ppsA mutant) / ppsA reference (Exp 1)	GSE3250	GSM73274,GSM73275	2	2		4		1	1	0	0	mbplot		5		GPL2818		NC_000913
19187045	15 min glucose to acetate shift (WT) / WT reference (Exp 1)	GSE3250	GSM73153,GSM73154	2	2		4		1	1	0	0	mbplot		15		GPL2818		NC_000913
31718950	15 min glucose to acetate shift (WT) / WT reference (Exp 1)	GSE3250	GSM73153,GSM73154	2	2		4		1	1	0	0	mbplot		15		GPL2818		NC_000913
31727963	15 min glucose to acetate shift (WT) / WT reference (Exp 2)	GSE3250	GSM73155,GSM73156	2	2		4		1	1	0	0	mbplot		15		GPL2818		NC_000913
19191552	15 min glucose to acetate shift (WT) / WT reference (Exp 2)	GSE3250	GSM73155,GSM73156	2	2		4		1	1	0	0	mbplot		15		GPL2818		NC_000913
31736976	15 min glucose to acetate shift (ppsA mutant) / ppsA reference (Exp 1)	GSE3250	GSM73278,GSM73279	2	2		4		1	1	0	0	mbplot		15		GPL2818		NC_000913
19196059	15 min glucose to acetate shift (ppsA mutant) / ppsA reference (Exp 1)	GSE3250	GSM73278,GSM73279	2	2		4		1	1	0	0	mbplot		15		GPL2818		NC_000913
19200566	30 min glucose to acetate shift (WT) / WT reference (Exp 1)	GSE3250	GSM73157,GSM73158	2	2		4		1	1	0	0	mbplot		30		GPL2818		NC_000913
31745989	30 min glucose to acetate shift (WT) / WT reference (Exp 1)	GSE3250	GSM73157,GSM73158	2	2		4		1	1	0	0	mbplot		30		GPL2818		NC_000913
19205073	30 min glucose to acetate shift (WT) / WT reference (Exp 2)	GSE3250	GSM73159,GSM73160	2	2		4		1	1	0	0	mbplot		30		GPL2818		NC_000913
31755002	30 min glucose to acetate shift (WT) / WT reference (Exp 2)	GSE3250	GSM73159,GSM73160	2	2		4		1	1	0	0	mbplot		30		GPL2818		NC_000913
31764015	30 min glucose to acetate shift (ppsA mutant) / ppsA reference (Exp 1)	GSE3250	GSM73280,GSM73281	2	2		4		1	1	0	0	mbplot		30		GPL2818		NC_000913
19209580	30 min glucose to acetate shift (ppsA mutant) / ppsA reference (Exp 1)	GSE3250	GSM73280,GSM73281	2	2		4		1	1	0	0	mbplot		30		GPL2818		NC_000913
31773028	1 hour glucose to acetate shift (WT) / WT reference (Exp 1)	GSE3250	GSM73118,GSM73119	2	2	3	4	5	1	1	0	0	mbplot		60		GPL2815		NC_000913
19214087	1 hour glucose to acetate shift (WT) / WT reference (Exp 1)	GSE3250	GSM73118,GSM73119	2	2	3	4	5	1	1	0	0	mbplot		60		GPL2815		NC_000913
31782041	1 hour glucose to acetate shift (WT) / WT reference (Exp 3)	GSE3250	GSM73121,GSM73122	2	4	5	2	3	1	1	0	0	mbplot		60		GPL2817		NC_000913
19218594	1 hour glucose to acetate shift (WT) / WT reference (Exp 3)	GSE3250	GSM73121,GSM73122	2	4	5	2	3	1	1	0	0	mbplot		60		GPL2817		NC_000913
31791054	1 hour glucose to acetate shift (ppsA mutant) / ppsA reference (Exp 1)	GSE3250	GSM73252,GSM73253	2	2		4		1	1	0	0	mbplot		60		GPL2815		NC_000913
19223101	1 hour glucose to acetate shift (ppsA mutant) / ppsA reference (Exp 1)	GSE3250	GSM73252,GSM73253	2	2		4		1	1	0	0	mbplot		60		GPL2815		NC_000913
31800067	1 hour glucose to acetate shift (ppsA mutant) / ppsA reference (Exp 2)	GSE3250	GSM73254,GSM73255	2	2		4		1	1	0	0	mbplot		60		GPL2816		NC_000913
19227608	1 hour glucose to acetate shift (ppsA mutant) / ppsA reference (Exp 2)	GSE3250	GSM73254,GSM73255	2	2		4		1	1	0	0	mbplot		60		GPL2816		NC_000913
31809080	1 hour glucose to acetate shift (ppsA mutant) / ppsA reference (Exp 3)	GSE3250	GSM73256,GSM73257	2	4		2		1	1	0	0	mbplot		60		GPL2817		NC_000913
19234061	1 hour glucose to acetate shift (ppsA mutant) / ppsA reference (Exp 3)	GSE3250	GSM73256,GSM73257	2	4		2		1	1	0	0	mbplot		60		GPL2817		NC_000913
31818093	2 hour glucose to acetate shift (WT) / WT reference (Exp 1)	GSE3250	GSM73123,GSM73124	2	2	3	4	5	1	1	0	0	mbplot		120		GPL2815		NC_000913
19238568	2 hour glucose to acetate shift (WT) / WT reference (Exp 1)	GSE3250	GSM73123,GSM73124	2	2	3	4	5	1	1	0	0	mbplot		120		GPL2815		NC_000913
19243075	2 hour glucose to acetate shift (WT) / WT reference (Exp 3)	GSE3250	GSM73127,GSM73128	2	4	5	2	3	1	1	0	0	mbplot		120		GPL2817		NC_000913
31827106	2 hour glucose to acetate shift (WT) / WT reference (Exp 3)	GSE3250	GSM73127,GSM73128	2	4	5	2	3	1	1	0	0	mbplot		120		GPL2817		NC_000913
31836119	2 hour glucose to acetate shift (ppsA mutant) / ppsA reference (Exp 1)	GSE3250	GSM73258,GSM73259	2	2		4		1	1	0	0	mbplot		120		GPL2815		NC_000913
19247582	2 hour glucose to acetate shift (ppsA mutant) / ppsA reference (Exp 1)	GSE3250	GSM73258,GSM73259	2	2		4		1	1	0	0	mbplot		120		GPL2815		NC_000913
19252089	2 hour glucose to acetate shift (ppsA mutant) / ppsA reference (Exp 2)	GSE3250	GSM73260,GSM73261	2	2		4		1	1	0	0	mbplot		120		GPL2816		NC_000913
31845132	2 hour glucose to acetate shift (ppsA mutant) / ppsA reference (Exp 2)	GSE3250	GSM73260,GSM73261	2	2		4		1	1	0	0	mbplot		120		GPL2816		NC_000913
19256596	2 hour glucose to acetate shift (ppsA mutant) / ppsA reference (Exp 3)	GSE3250	GSM73262,GSM73263	2	4		2		1	1	0	0	mbplot		120		GPL2817		NC_000913
31854145	2 hour glucose to acetate shift (ppsA mutant) / ppsA reference (Exp 3)	GSE3250	GSM73262,GSM73263	2	4		2		1	1	0	0	mbplot		120		GPL2817		NC_000913
31863158	3 hour glucose to acetate shift (WT) / WT reference (Exp 1)	GSE3250	GSM73129,GSM73130	2	2	3	4	5	1	1	0	0	mbplot		180		GPL2815		NC_000913
19261103	3 hour glucose to acetate shift (WT) / WT reference (Exp 1)	GSE3250	GSM73129,GSM73130	2	2	3	4	5	1	1	0	0	mbplot		180		GPL2815		NC_000913
31872171	3 hour glucose to acetate shift (WT) / WT reference (Exp 3)	GSE3250	GSM73133,GSM73134	2	4	5	2	3	1	1	0	0	mbplot		180		GPL2817		NC_000913
19265610	3 hour glucose to acetate shift (WT) / WT reference (Exp 3)	GSE3250	GSM73133,GSM73134	2	4	5	2	3	1	1	0	0	mbplot		180		GPL2817		NC_000913
31881184	3 hour glucose to acetate shift (ppsA mutant) / ppsA reference (Exp 1)	GSE3250	GSM73264,GSM73265	2	2		4		1	1	0	0	mbplot		180		GPL2815		NC_000913
19272063	3 hour glucose to acetate shift (ppsA mutant) / ppsA reference (Exp 1)	GSE3250	GSM73264,GSM73265	2	2		4		1	1	0	0	mbplot		180		GPL2815		NC_000913
19278516	3 hour glucose to acetate shift (ppsA mutant) / ppsA reference (Exp 2)	GSE3250	GSM73266,GSM73267	2	2		4		1	1	0	0	mbplot		180		GPL2816		NC_000913
31890197	3 hour glucose to acetate shift (ppsA mutant) / ppsA reference (Exp 2)	GSE3250	GSM73266,GSM73267	2	2		4		1	1	0	0	mbplot		180		GPL2816		NC_000913
19283023	3 hour glucose to acetate shift (ppsA mutant) / ppsA reference (Exp 3)	GSE3250	GSM73282,GSM73283	2	4		2		1	1	0	0	mbplot		180		GPL2817		NC_000913
31899210	3 hour glucose to acetate shift (ppsA mutant) / ppsA reference (Exp 3)	GSE3250	GSM73282,GSM73283	2	4		2		1	1	0	0	mbplot		180		GPL2817		NC_000913
31908223	4 hour glucose to acetate shift (WT) / WT reference (Exp 1)	GSE3250	GSM73135,GSM73136	2	2	3	4	5	1	1	0	0	mbplot		240		GPL2815		NC_000913
19289476	4 hour glucose to acetate shift (WT) / WT reference (Exp 1)	GSE3250	GSM73135,GSM73136	2	2	3	4	5	1	1	0	0	mbplot		240		GPL2815		NC_000913
31917236	4 hour glucose to acetate shift (WT) / WT reference (Exp 3)	GSE3250	GSM73139,GSM73140	2	4	5	2	3	1	1	0	0	mbplot		240		GPL2817		NC_000913
19294202	4 hour glucose to acetate shift (WT) / WT reference (Exp 3)	GSE3250	GSM73139,GSM73140	2	4	5	2	3	1	1	0	0	mbplot		240		GPL2817		NC_000913
19300436	4 hour glucose to acetate shift (ppsA mutant) / ppsA reference (Exp 1)	GSE3250	GSM73268,GSM73269	2	2		4		1	1	0	0	mbplot		240		GPL2815		NC_000913
31926249	4 hour glucose to acetate shift (ppsA mutant) / ppsA reference (Exp 1)	GSE3250	GSM73268,GSM73269	2	2		4		1	1	0	0	mbplot		240		GPL2815		NC_000913
31935262	4 hour glucose to acetate shift (ppsA mutant) / ppsA reference (Exp 2)	GSE3250	GSM73270,GSM73271	2	2		4		1	1	0	0	mbplot		240		GPL2816		NC_000913
19304943	4 hour glucose to acetate shift (ppsA mutant) / ppsA reference (Exp 2)	GSE3250	GSM73270,GSM73271	2	2		4		1	1	0	0	mbplot		240		GPL2816		NC_000913
19309450	4 hour glucose to acetate shift (ppsA mutant) / ppsA reference (Exp 3)	GSE3250	GSM73284,GSM73285	2	4		2		1	1	0	0	mbplot		240		GPL2817		NC_000913
31944275	4 hour glucose to acetate shift (ppsA mutant) / ppsA reference (Exp 3)	GSE3250	GSM73284,GSM73285	2	4		2		1	1	0	0	mbplot		240		GPL2817		NC_000913
19313957	5 hour glucose to acetate shift (WT) / WT reference (Exp 1)	GSE3250	GSM73141,GSM73142	2	4	5	2	3	1	1	0	0	mbplot		300		GPL2817		NC_000913
31953288	5 hour glucose to acetate shift (WT) / WT reference (Exp 1)	GSE3250	GSM73141,GSM73142	2	4	5	2	3	1	1	0	0	mbplot		300		GPL2817		NC_000913
19318464	5 hour glucose to acetate shift (ppsA mutant) / ppsA reference (Exp 1)	GSE3250	GSM73272,GSM73273	2	4		2		1	1	0	0	mbplot		300		GPL2817		NC_000913
31962301	5 hour glucose to acetate shift (ppsA mutant) / ppsA reference (Exp 1)	GSE3250	GSM73272,GSM73273	2	4		2		1	1	0	0	mbplot		300		GPL2817		NC_000913
31971314	5 hour glucose to acetate shift (ppsA mutant) / ppsA reference (Exp 2)	GSE3250	GSM73286,GSM73288	2	2		4		1	1	0	0	mbplot		300		GPL2816		NC_000913
19322971	5 hour glucose to acetate shift (ppsA mutant) / ppsA reference (Exp 2)	GSE3250	GSM73286,GSM73288	2	2		4		1	1	0	0	mbplot		300		GPL2816		NC_000913
31980327	6 hour glucose to acetate shift (WT) / WT reference (Exp 1)	GSE3250	GSM73145,GSM73146	2	4	5	2	3	1	1	0	0	mbplot		360		GPL2817		NC_000913
19329424	6 hour glucose to acetate shift (WT) / WT reference (Exp 1)	GSE3250	GSM73145,GSM73146	2	4	5	2	3	1	1	0	0	mbplot		360		GPL2817		NC_000913
19333931	6 hour glucose to acetate shift (ppsA mutant) / ppsA reference (Exp 1)	GSE3250	GSM73276,GSM73277	2	4		2		1	1	0	0	mbplot		360		GPL2817		NC_000913
31989340	6 hour glucose to acetate shift (ppsA mutant) / ppsA reference (Exp 1)	GSE3250	GSM73276,GSM73277	2	4		2		1	1	0	0	mbplot		360		GPL2817		NC_000913
31998353	6 hour glucose to acetate shift (ppsA mutant) / ppsA reference (Exp 2)	GSE3250	GSM73289,GSM73290	2	2		4		1	1	0	0	mbplot		360		GPL2816		NC_000913
19340384	6 hour glucose to acetate shift (ppsA mutant) / ppsA reference (Exp 2)	GSE3250	GSM73289,GSM73290	2	2		4		1	1	0	0	mbplot		360		GPL2816		NC_000913
19346104	WT + Leu / WT - Leu	GSE3283	GSM73797	2	12		11		1	1	0	0	mbplot				GPL2833		NC_000913
32007366	WT + Leu / WT - Leu	GSE3283	GSM73797	2	12		11		1	1	0	0	mbplot				GPL2833		NC_000913
32016605	lrp + Leu / WT - Leu	GSE3283	GSM73798	2	12		11		1	1	0	0	mbplot				GPL2833		NC_000913
19351457	lrp + Leu / WT - Leu	GSE3283	GSM73798	2	12		11		1	1	0	0	mbplot				GPL2833		NC_000913
32025844	lrp - Leu / WT - Leu	GSE3283	GSM73799	2	12		11		1	1	0	0	mbplot				GPL2833		NC_000913
19356077	lrp - Leu / WT - Leu	GSE3283	GSM73799	2	12		11		1	1	0	0	mbplot				GPL2833		NC_000913
19360697	lrp + Leu / lrp - Leu	GSE3283	GSM73800	2	12		11		1	1	0	0	mbplot				GPL2833		NC_000913
32035083	lrp + Leu / lrp - Leu	GSE3283	GSM73800	2	12		11		1	1	0	0	mbplot				GPL2833		NC_000913
26869647	CsCl2 total RNA from M6 serotype GAS JRS4 / Pooled CsCl2 total RNA from M6 serotype GAS JRS4 and isogenic covR mutant JRS948	GSE3367	GSM76163,GSM76165,GSM76168,GSM76169,GSM76175,GSM76177,GSM76181,GSM76183	2			1		0	0	0	0	mbplot				GPL1482		
26869768	CsCl2 total RNA from M6 serotype GAS JRS948 / Pooled CsCl2 total RNA from M6 serotype GAS JRS4 and isogenic covR mutant JRS948	GSE3367	GSM76166,GSM76167,GSM76171,GSM76173,GSM76178,GSM76179,GSM76185,GSM76186	2			1		0	0	0	0	mbplot				GPL1482		
32044322	RpoE induced (2.5 min) / Wild type control (2.5 min) Expt 3	GSE3437	GSM77349	2	37		38		1	1	0	0	mbplot		2.5		GPL2927		NC_000913
19365317	RpoE induced (2.5 min) / Wild type control (2.5 min) Expt 3	GSE3437	GSM77349	2	37		38		1	1	0	0	mbplot		2.5		GPL2927		NC_000913
19369824	RpoE induced (2.5 min) / Wild type control (2.5 min) Expt 4	GSE3437	GSM77356	2	37		38		1	1	0	0	mbplot		2.5		GPL2928		NC_000913
32053335	RpoE induced (2.5 min) / Wild type control (2.5 min) Expt 4	GSE3437	GSM77356	2	37		38		1	1	0	0	mbplot		2.5		GPL2928		NC_000913
32062348	RpoE induced (5 min) / Wild type control (5 min) Expt 1	GSE3437	GSM77341	2	37		38		1	1	0	0	mbplot		5		GPL2926		NC_000913
19374331	RpoE induced (5 min) / Wild type control (5 min) Expt 1	GSE3437	GSM77341	2	37		38		1	1	0	0	mbplot		5		GPL2926		NC_000913
32071361	RpoE induced (5 min) / Wild type control (5 min) Expt 2	GSE3437	GSM77344	2	37		38		1	1	0	0	mbplot		5		GPL2926		NC_000913
19378838	RpoE induced (5 min) / Wild type control (5 min) Expt 2	GSE3437	GSM77344	2	37		38		1	1	0	0	mbplot		5		GPL2926		NC_000913
32080374	RpoE induced (5 min) / Wild type control (5 min) Expt 3	GSE3437	GSM77350	2	37		38		1	1	0	0	mbplot		5		GPL2927		NC_000913
19383345	RpoE induced (5 min) / Wild type control (5 min) Expt 3	GSE3437	GSM77350	2	37		38		1	1	0	0	mbplot		5		GPL2927		NC_000913
32089387	RpoE induced (5 min) / Wild type control (5 min) Expt 4	GSE3437	GSM77357	2	37		38		1	1	0	0	mbplot		5		GPL2928		NC_000913
19387852	RpoE induced (5 min) / Wild type control (5 min) Expt 4	GSE3437	GSM77357	2	37		38		1	1	0	0	mbplot		5		GPL2928		NC_000913
19392359	RpoE induced (10 min) / Wild type control (10 min) Expt 3	GSE3437	GSM77351	2	37		38		1	1	0	0	mbplot		10		GPL2927		NC_000913
32098400	RpoE induced (10 min) / Wild type control (10 min) Expt 3	GSE3437	GSM77351	2	37		38		1	1	0	0	mbplot		10		GPL2927		NC_000913
32107413	RpoE induced (10 min) / Wild type control (10 min) Expt 4	GSE3437	GSM77358	2	37		38		1	1	0	0	mbplot		10		GPL2928		NC_000913
19396866	RpoE induced (10 min) / Wild type control (10 min) Expt 4	GSE3437	GSM77358	2	37		38		1	1	0	0	mbplot		10		GPL2928		NC_000913
19401373	RpoE induced (15 min) / Wild type control (15 min) Expt 1	GSE3437	GSM77342	2	37		38		1	1	0	0	mbplot		15		GPL2926		NC_000913
32116426	RpoE induced (15 min) / Wild type control (15 min) Expt 1	GSE3437	GSM77342	2	37		38		1	1	0	0	mbplot		15		GPL2926		NC_000913
32125439	RpoE induced (15 min) / Wild type control (15 min) Expt 2	GSE3437	GSM77345	2	37		38		1	1	0	0	mbplot		15		GPL2926		NC_000913
19405880	RpoE induced (15 min) / Wild type control (15 min) Expt 2	GSE3437	GSM77345	2	37		38		1	1	0	0	mbplot		15		GPL2926		NC_000913
32134452	RpoE induced (20 min) / Wild type control (20 min) Expt 3	GSE3437	GSM77352	2	37		38		1	1	0	0	mbplot		20		GPL2927		NC_000913
19410387	RpoE induced (20 min) / Wild type control (20 min) Expt 3	GSE3437	GSM77352	2	37		38		1	1	0	0	mbplot		20		GPL2927		NC_000913
32143465	RpoE induced (20 min) / Wild type control (20 min) Expt 4	GSE3437	GSM77359	2	37		38		1	1	0	0	mbplot		20		GPL2928		NC_000913
19414894	RpoE induced (20 min) / Wild type control (20 min) Expt 4	GSE3437	GSM77359	2	37		38		1	1	0	0	mbplot		20		GPL2928		NC_000913
19419401	RpoE induced (30 min) / Wild type control (30 min) Expt 2	GSE3437	GSM77346	2	37		38		1	1	0	0	mbplot		30		GPL2926		NC_000913
32152478	RpoE induced (30 min) / Wild type control (30 min) Expt 2	GSE3437	GSM77346	2	37		38		1	1	0	0	mbplot		30		GPL2926		NC_000913
32161491	RpoE induced (30 min) / Wild type control (30 min) Expt 3	GSE3437	GSM77353	2	37		38		1	1	0	0	mbplot		30		GPL2927		NC_000913
19423908	RpoE induced (30 min) / Wild type control (30 min) Expt 3	GSE3437	GSM77353	2	37		38		1	1	0	0	mbplot		30		GPL2927		NC_000913
19428415	RpoE induced (60 min) / Wild type control (60 min) Expt 3	GSE3437	GSM77354	2	37		38		1	1	0	0	mbplot		30		GPL2927		NC_000913
32170504	RpoE induced (60 min) / Wild type control (60 min) Expt 3	GSE3437	GSM77354	2	37		38		1	1	0	0	mbplot		30		GPL2927		NC_000913
19432922	RpoE induced (30 min) / Wild type control (30 min) Expt 4	GSE3437	GSM77360	2	37		38		1	1	0	0	mbplot		30		GPL2928		NC_000913
32179517	RpoE induced (30 min) / Wild type control (30 min) Expt 4	GSE3437	GSM77360	2	37		38		1	1	0	0	mbplot		30		GPL2928		NC_000913
32188530	RpoE induced (60 min) / Wild type control (60 min) Expt 1	GSE3437	GSM77343	2	37		38		1	1	0	0	mbplot		60		GPL2926		NC_000913
19437429	RpoE induced (60 min) / Wild type control (60 min) Expt 1	GSE3437	GSM77343	2	37		38		1	1	0	0	mbplot		60		GPL2926		NC_000913
32197543	RpoE induced (60 min) / Wild type control (60 min) Expt 2	GSE3437	GSM77347	2	37		38		1	1	0	0	mbplot		60		GPL2926		NC_000913
19441936	RpoE induced (60 min) / Wild type control (60 min) Expt 2	GSE3437	GSM77347	2	37		38		1	1	0	0	mbplot		60		GPL2926		NC_000913
19446443	RpoE induced (60 min) / Wild type control (60 min) Expt 4	GSE3437	GSM77361	2	37		38		1	1	0	0	mbplot		60		GPL2928		NC_000913
32206556	RpoE induced (60 min) / Wild type control (60 min) Expt 4	GSE3437	GSM77361	2	37		38		1	1	0	0	mbplot		60		GPL2928		NC_000913
32215569	RpoE induced (0 min) / Wild type control (0 min) Expt 3	GSE3437	GSM77348	2	37		38		1	1	0	0	mbplot				GPL2928		NC_000913
19450950	RpoE induced (0 min) / Wild type control (0 min) Expt 3	GSE3437	GSM77348	2	37		38		1	1	0	0	mbplot				GPL2928		NC_000913
32224582	RpoE induced (0 min) / Wild type control (0 min) Expt 4	GSE3437	GSM77355	2	37		38		1	1	0	0	mbplot				GPL2928		NC_000913
19455457	RpoE induced (0 min) / Wild type control (0 min) Expt 4	GSE3437	GSM77355	2	37		38		1	1	0	0	mbplot				GPL2928		NC_000913
19459964	ydgG / WT	GSE3514	GSM81020/GSM81021	1			3		1	1	0	0	mbplot				GPL199	NC_000913	NC_000913
32233595	ydgG / WT	GSE3514	GSM81020/GSM81021	1			3		1	1	0	0	mbplot				GPL199	NC_000913	NC_000913
32242800	fnr- aerobic / aerobic reference	GSE3591	GSM82542,GSM82543,GSM82544	2	1	3	5	7	1	1	0	0	mbplot				GPL1246		NC_000913
19464567	fnr- aerobic / aerobic reference	GSE3591	GSM82542,GSM82543,GSM82544	2	1	3	5	7	1	1	0	0	mbplot				GPL1246		NC_000913
32262349	WT aerobic / aerobic reference	GSE3591	GSM82545,GSM82546,GSM82547	2	1	3	5	7	1	1	0	0	mbplot				GPL1246		NC_000913
19474350	WT aerobic / aerobic reference	GSE3591	GSM82545,GSM82546,GSM82547	2	1	3	5	7	1	1	0	0	mbplot				GPL1246		NC_000913
32281898	fnr- anaerobic / aerobic reference	GSE3591	GSM82548,GSM82549,GSM82550	2	1	3	5	7	1	1	0	0	mbplot				GPL1246		NC_000913
19484133	fnr- anaerobic / aerobic reference	GSE3591	GSM82548,GSM82549,GSM82550	2	1	3	5	7	1	1	0	0	mbplot				GPL1246		NC_000913
32301447	WT anaerobic / aerobic reference	GSE3591	GSM82551,GSM82553	2	1	3	5	7	1	1	0	0	mbplot				GPL1246		NC_000913
19493916	WT anaerobic / aerobic reference	GSE3591	GSM82551,GSM82553	2	1	3	5	7	1	1	0	0	mbplot				GPL1246		NC_000913
32320996	fnr- anaerobic + NO2 / aerobic reference	GSE3591	GSM82598,GSM82600,GSM82603	2	1	3	5	7	1	1	0	0	mbplot				GPL1246		NC_000913
19503699	fnr- anaerobic + NO2 / aerobic reference	GSE3591	GSM82598,GSM82600,GSM82603	2	1	3	5	7	1	1	0	0	mbplot				GPL1246		NC_000913
19513482	WT anaerobic + NO2 / aerobic reference	GSE3591	GSM82604,GSM82605,GSM82606	2	1	3	5	7	1	1	0	0	mbplot				GPL1246		NC_000913
32340545	WT anaerobic + NO2 / aerobic reference	GSE3591	GSM82604,GSM82605,GSM82606	2	1	3	5	7	1	1	0	0	mbplot				GPL1246		NC_000913
19523265	fnr- anaerobic + NO3 / aerobic reference	GSE3591	GSM82608,GSM82613	2	1	3	5	7	1	1	0	0	mbplot				GPL1246		NC_000913
32360094	fnr- anaerobic + NO3 / aerobic reference	GSE3591	GSM82608,GSM82613	2	1	3	5	7	1	1	0	0	mbplot				GPL1246		NC_000913
19533048	WT anaerobic + NO3 / aerobic reference	GSE3591	GSM82616,GSM82620,GSM82621	2	1	3	5	7	1	1	0	0	mbplot				GPL1246		NC_000913
32379643	WT anaerobic + NO3 / aerobic reference	GSE3591	GSM82616,GSM82620,GSM82621	2	1	3	5	7	1	1	0	0	mbplot				GPL1246		NC_000913
32399192	fnr- aerobic / anaerobic reference	GSE3591	GSM83053,GSM83054,GSM83055	2	1	3	5	7	1	1	0	0	mbplot				GPL3051		NC_000913
19542831	fnr- aerobic / anaerobic reference	GSE3591	GSM83053,GSM83054,GSM83055	2	1	3	5	7	1	1	0	0	mbplot				GPL3051		NC_000913
32419005	WT aerobic / anaerobic reference	GSE3591	GSM83056,GSM83057,GSM83058	2	1	3	5	7	1	1	0	0	mbplot				GPL3051		NC_000913
19552752	WT aerobic / anaerobic reference	GSE3591	GSM83056,GSM83057,GSM83058	2	1	3	5	7	1	1	0	0	mbplot				GPL3051		NC_000913
19562673	fnr- anaerobic / anaerobic reference	GSE3591	GSM83059,GSM83060,GSM83061	2	1	3	5	7	1	1	0	0	mbplot				GPL3051		NC_000913
32438818	fnr- anaerobic / anaerobic reference	GSE3591	GSM83059,GSM83060,GSM83061	2	1	3	5	7	1	1	0	0	mbplot				GPL3051		NC_000913
32458631	WT anaerobic / anaerobic reference	GSE3591	GSM83062,GSM83063	2	1	3	5	7	1	1	0	0	mbplot				GPL3051		NC_000913
19572594	WT anaerobic / anaerobic reference	GSE3591	GSM83062,GSM83063	2	1	3	5	7	1	1	0	0	mbplot				GPL3051		NC_000913
19582515	fnr- anaerobic + NO2 / anaerobic reference	GSE3591	GSM83065,GSM83066,GSM83067	2	1	3	5	7	1	1	0	0	mbplot				GPL3051		NC_000913
32478444	fnr- anaerobic + NO2 / anaerobic reference	GSE3591	GSM83065,GSM83066,GSM83067	2	1	3	5	7	1	1	0	0	mbplot				GPL3051		NC_000913
32498257	WT anaerobic + NO2 / anaerobic reference	GSE3591	GSM83068,GSM83069,GSM83070	2	1	3	5	7	1	1	0	0	mbplot				GPL3051		NC_000913
19592436	WT anaerobic + NO2 / anaerobic reference	GSE3591	GSM83068,GSM83069,GSM83070	2	1	3	5	7	1	1	0	0	mbplot				GPL3051		NC_000913
19602357	fnr- anaerobic + NO3 / anaerobic reference	GSE3591	GSM83071,GSM83072,GSM83073	2	1	3	5	7	1	1	0	0	mbplot				GPL3051		NC_000913
32518070	fnr- anaerobic + NO3 / anaerobic reference	GSE3591	GSM83071,GSM83072,GSM83073	2	1	3	5	7	1	1	0	0	mbplot				GPL3051		NC_000913
19612278	WT anaerobic + NO3 / anaerobic reference	GSE3591	GSM83074,GSM83075,GSM83076	2	1	3	5	7	1	1	0	0	mbplot				GPL3051		NC_000913
32537883	WT anaerobic + NO3 / anaerobic reference	GSE3591	GSM83074,GSM83075,GSM83076	2	1	3	5	7	1	1	0	0	mbplot				GPL3051		NC_000913
19622199	narXL anaerobic + NO2 / anaerobic reference	GSE3591	GSM83077,GSM83078,GSM83079,GSM83080	2	1	3	5	7	1	1	0	0	mbplot				GPL3051		NC_000913
32557696	narXL anaerobic + NO2 / anaerobic reference	GSE3591	GSM83077,GSM83078,GSM83079,GSM83080	2	1	3	5	7	1	1	0	0	mbplot				GPL3051		NC_000913
32577509	narXLP anaerobic + NO2 / anaerobic reference	GSE3591	GSM83081,GSM83082,GSM83083	2	1	3	5	7	1	1	0	0	mbplot				GPL3051		NC_000913
19632120	narXLP anaerobic + NO2 / anaerobic reference	GSE3591	GSM83081,GSM83082,GSM83083	2	1	3	5	7	1	1	0	0	mbplot				GPL3051		NC_000913
9757695	FNR null mutant / WT	GSE3657	GSM82474,GSM82888,GSM82889	2	3	4	7	8	1	1	0	0	mbplot				GPL1835		
9762763	FNR null mutant / WT	GSE3657	GSM85072,GSM85073,GSM85074	2	7	8	3	4	1	1	0	0	mbplot				GPL1835		
32597322	WT 20 gL EtOH / WT 0 gL EtOH	GSE3665	GSM85154,GSM85155,GSM85156,GSM85160,GSM85161,GSM85162/GSM85143,GSM85144,GSM85145,GSM85146,GSM85147,GSM85148,GSM85149,GSM85150,GSM85151,GSM85152,GSM85153	1			1		1	1	0	0	mbplot				GPL3154	NC_000913	NC_000913
19642041	WT 20 gL EtOH / WT 0 gL EtOH	GSE3665	GSM85154,GSM85155,GSM85156,GSM85160,GSM85161,GSM85162/GSM85143,GSM85144,GSM85145,GSM85146,GSM85147,GSM85148,GSM85149,GSM85150,GSM85151,GSM85152,GSM85153	1			1		1	1	0	0	mbplot				GPL3154	NC_000913	NC_000913
19654277	WT 40 gL EtOH / WT 0 gL EtOH	GSE3665	GSM85157,GSM85158,GSM85159/GSM85143,GSM85144,GSM85145	1			1		1	1	0	0	mbplot				GPL3154	NC_000913	NC_000913
29699876	2.0 ug pH5-T30(30 min) / 2.0 ug starter cDNA 0min	GSE3833	GSM87822,GSM87828	2			52		0	0	0	0	mbplot				GPL15		
29711566	2.0 ug pH5-T30(30 min)/2.0 ug pH5-T90(90 min)	GSE3833	GSM87822,GSM87828/GSM87823,GSM87826	1			45		1	1	0	0	maplot				GPL15		
29709896	2.0 ug pH5-T30(30 min)/2.0 ug pH5-T60(60 min)	GSE3833	GSM87822,GSM87828/GSM87824,GSM87829	1			45		1	1	0	0	maplot				GPL15		
29703216	2.0 ug pH5-T90(90 min) / 2.0 ug starter cDNA 0min	GSE3833	GSM87823,GSM87826	2			52		0	0	0	0	mbplot				GPL15		
29701546	2.0 ug pH5-T60(60 min) / 2.0 ug starter cDNA 0min	GSE3833	GSM87824,GSM87829	2			52		0	0	0	0	mbplot				GPL15		
29713236	2.0 ug pH5-T60(60 min)/2.0 ug pH5-T90(90 min)	GSE3833	GSM87824,GSM87829/GSM87823,GSM87826	1			45		1	1	0	0	maplot				GPL15		
29698206	2.0 ug pH5-T120(120 min) / 2.0 ug starter cDNA 0min	GSE3833	GSM87825,GSM87827	2			52		0	0	0	0	mbplot				GPL15		
29704886	2.0 ug pH5-T120(120 min) / 2.0 ug pH5-T30(30 min)	GSE3833	GSM87825,GSM87827/GSM87822,GSM87828	1			45		1	1	0	0	maplot				GPL15		
29708226	2.0 ug pH5-T120(120 min)/2.0 ug pH5-T90(90 min)	GSE3833	GSM87825,GSM87827/GSM87823,GSM87826	1			45		1	1	0	0	maplot				GPL15		
29706556	2.0 ug pH5-T120(120 min)/2.0 ug pH5-T60(60 min)	GSE3833	GSM87825,GSM87827/GSM87824,GSM87829	1			45		1	1	0	0	maplot				GPL15		
29825020	Fe add back 30 min/staionary iron survive 30min	GSE3888	GSM88801,GSM88817/GSM88795	1			48		1	1	0	0	maplot				GPL15		
29816670	Fe add back 30 min/ Fe add back 0min	GSE3888	GSM88801,GSM88817/GSM88799,GSM88814	1			48		1	1	0	0	maplot				GPL15		
29818340	Fe add back 30 min/ Fe add back 60min	GSE3888	GSM88801,GSM88817/GSM88804,GSM88819	1			48		1	1	0	0	maplot				GPL15		
29823350	Fe add back 30 min/ Stationary Chelate 30min	GSE3888	GSM88801,GSM88817/GSM88807	1			48		1	1	0	0	maplot				GPL15		
29826690	Fe add back 30 min/ Tissue culture Motility_broth 30min	GSE3888	GSM88801,GSM88817/GSM88815	1			48		1	1	0	0	maplot				GPL15		
29820010	Fe add back 30 min/ log Chelate 30 min	GSE3888	GSM88801,GSM88817/GSM88816	1			48		1	1	0	0	maplot				GPL15		
29821680	Fe add back 30 min/ log iron survive 30min	GSE3888	GSM88801,GSM88817/GSM88823	1			48		1	1	0	0	maplot				GPL15		
29831700	Fe add back 60 min/ Log iron survival 60min	GSE3888	GSM88804,GSM88819/GSM88792	1			48		1	1	0	0	maplot				GPL15		
29828360	Fe add back 60 min/ Fe add back 0min	GSE3888	GSM88804,GSM88819/GSM88799,GSM88814	1			48		1	1	0	0	maplot				GPL15		
29833370	Fe add back 60 min/ stationary chelate 60min	GSE3888	GSM88804,GSM88819/GSM88809	1			48		1	1	0	0	maplot				GPL15		
29830030	Fe add back 60 min/ Log chelate 60min	GSE3888	GSM88804,GSM88819/GSM88818	1			48		1	1	0	0	maplot				GPL15		
29835040	Fe add back 60 min/stationary iron survival  60min	GSE3888	GSM88804,GSM88819/GSM88821	1			48		1	1	0	0	maplot				GPL15		
29808320	Fe add back 120 min / Fe add back 0min	GSE3888	GSM88811,GSM88820/GSM88799,GSM88814	1			48		1	1	0	0	maplot				GPL15		
29809990	Fe add back 120  min / Fe add back 30 min	GSE3888	GSM88811,GSM88820/GSM88801,GSM88817	1			48		1	1	0	0	maplot				GPL15		
29813330	Fe add back 120 min / log phase 120min	GSE3888	GSM88811,GSM88820/GSM88803	1			48		1	1	0	0	maplot				GPL15		
29811660	Fe add back 120 min/Fe add back 60min	GSE3888	GSM88811,GSM88820/GSM88804,GSM88819	1			48		1	1	0	0	maplot				GPL15		
29815000	Fe add back 120 min/ stationary iron survive 120 min	GSE3888	GSM88811,GSM88820/GSM88806	1			48		1	1	0	0	maplot				GPL15		
29840050	1ug Log Chelate 30min / 1ug Log Chelate 90 min	GSE3888	GSM88816/GSM88796	1			48		1	1	0	0	maplot				GPL15		
29836710	Log Chelate 30 min / 1ug Log Chelate T	GSE3888	GSM88816/GSM88810	1			48		1	1	0	0	maplot				GPL15		
29838380	Log Chelate 30min /  Log Chelate 60 min	GSE3888	GSM88816/GSM88818	1			48		1	1	0	0	maplot				GPL15		
19666513	WT biofilm after 7h of culturing / WT biofilm after 4h of culturing	GSE3905	GSM88913/GSM88912	1			3		1	1	0	0	mbplot		420		GPL199	NC_000913	NC_000913
19671116	WT after 7h of suspension culture  / WT after 4h of suspension culture	GSE3905	GSM88917/GSM88916	1			3		1	1	0	0	mbplot		420		GPL199	NC_000913	NC_000913
19675719	WT biofilm after 15h of culturing / WT biofilm after 4h of culturing	GSE3905	GSM88914/GSM88912	1			3		1	1	0	0	mbplot		900		GPL199	NC_000913	NC_000913
19680322	WT after 15h of suspension culture / WT after 4h of suspension culture	GSE3905	GSM88918/GSM88916	1			3		1	1	0	0	mbplot		900		GPL199	NC_000913	NC_000913
19684925	WT biofilm after 24h of culturing / WT biofilm after 4h of culturing	GSE3905	GSM88915/GSM88912	1			3		1	1	0	0	mbplot		1440		GPL199	NC_000913	NC_000913
19689528	WT after 24h of suspension culture / WT after 4h of suspension culture	GSE3905	GSM88919/GSM88916	1			3		1	1	0	0	mbplot		1440		GPL199	NC_000913	NC_000913
19694131	WT biofilm after 4h of culturing / WT after 4h of suspension culture	GSE3905	GSM88912/GSM88916	1			3		1	1	0	0	mbplot				GPL199	NC_000913	NC_000913
19698734	WT biofilm after 7h of culturing / WT after 7h of suspension culture	GSE3905	GSM88913/GSM88917	1			3		1	1	0	0	mbplot				GPL199	NC_000913	NC_000913
19703337	WT biofilm after 15h of culturing / WT after 15h of suspension culture	GSE3905	GSM88914/GSM88918	1			3		1	1	0	0	mbplot				GPL199	NC_000913	NC_000913
19707940	WT biofilm after 24h of culturing / WT after 24h of suspension culture	GSE3905	GSM88915/GSM88919	1			3		1	1	0	0	mbplot				GPL199	NC_000913	NC_000913
19712543	yceP biofilm / WT biofilm	GSE3937	GSM89487/GSM89485,GSM89486	1			3		1	1	0	0	mbplot				GPL199	NC_000913	NC_000913
19717146	yliH biofilm / WT biofilm	GSE3937	GSM89488/GSM89485,GSM89486	1			3		1	1	0	0	mbplot				GPL199	NC_000913	NC_000913
7110723	H37Ra RNA / Genomic DNA control, Media: Sauton	GSE3999	GSM91324,GSM91325,GSM91326,GSM91363	2	6		5		1	1	0	0	mbplot				GPL2787		
7139791	H37Rv  / Genomic DNA control, Youman	GSE3999	GSM91327,GSM91328,GSM91330,GSM91337	2	6		5		1	1	0	0	mbplot				GPL2787		
7092643	H37Ra  / Genomic DNA control, Media: Dubos	GSE3999	GSM91329,GSM91331,GSM91332,GSM91333	2	6		5		1	1	0	0	mbplot				GPL2787		
7071943	H37Rv RNA / genomic DNA control, Media: 7H9 Roll	GSE3999	GSM91334,GSM91357,GSM91359,GSM91361	2	6		5		1	1	0	0	mbplot				GPL2787		
7062967	H37Ra RNA / genomic DNA control, Media: 7H9 Roll	GSE3999	GSM91335,GSM91336,GSM91349,GSM91353	2	6		5		1	1	0	0	mbplot				GPL2787		
7119763	H37Ra RNA / Genomic DNA control, Media: Youman	GSE3999	GSM91338,GSM91339,GSM91340,GSM91341	2	6		5		1	1	0	0	mbplot				GPL2787		
7075851	H37Rv RNA / Genomic DNA control, Media: 7H9 Shake	GSE3999	GSM91342,GSM91343,GSM91345,GSM91347	2	6		5		1	1	0	0	mbplot				GPL2787		
7088735	H37Rv RNA / Genomic DNA control, Media: Dubos	GSE3999	GSM91344,GSM91346,GSM91348,GSM91352	2	6		5		1	1	0	0	mbplot				GPL2787		
7079759	H37Ra RNA / Genomic DNA control, 7H9 Shake	GSE3999	GSM91350,GSM91351,GSM91354,GSM91355	2	6		5		1	1	0	0	mbplot				GPL2787		
7101683	H37Rv RNA / Genomic DNA control, Media: Sauton	GSE3999	GSM91356,GSM91358,GSM91360,GSM91362	2	6		5		1	1	0	0	mbplot				GPL2787		
19721749	dpiA overexpressor/ wt	GSE4112	GSM94002,GSM94003	2	12		11		1	1	0	0	mbplot				GPL3397		NC_000913
19726369	dpiA 2-fold overexpressor/ wt	GSE4112	GSM94004,GSM94005	2	12		11		1	1	0	0	mbplot				GPL2833		NC_000913
29749923	wildtype 0 min/strain 145(fur1 mutant) 0 min	GSE4160	GSM95038	2			52		0	0	0	0	mbplot				GPL15		
29753263	1 ug of Hp RNA from T	GSE4160	GSM95039	2			52		0	0	0	0	mbplot				GPL15		
29718193	1 ug of Hp RNA from T	GSE4160	GSM95040	2			52		0	0	0	0	mbplot				GPL15		
29788333	1 ug of Hp RNA from T	GSE4160	GSM95040/GSM95041	1			48		1	1	0	0	maplot				GPL15		
29790003	1 ug of Hp RNA from T	GSE4160	GSM95040/GSM95042	1			48		1	1	0	0	maplot				GPL15		
29791673	1 ug of Hp RNA from T	GSE4160	GSM95040/GSM95043	1			48		1	1	0	0	maplot				GPL15		
29776643	wildtype 0 min/ strain 146(fur2 mutant) 30min	GSE4160	GSM95040/GSM95045	1			48		1	1	0	0	maplot				GPL15		
29793343	wildtype 0min / wildtype 60 min	GSE4160	GSM95040/GSM95046	1			48		1	1	0	0	maplot				GPL15		
29779983	wildtype 0 min in log phase/ 0min strain 146(fur2 mutant) in log phase	GSE4160	GSM95040/GSM95048	1			48		1	1	0	0	maplot				GPL15		
29795013	1 ug of Hp RNA from T	GSE4160	GSM95040/GSM95049	1			48		1	1	0	0	maplot				GPL15		
29781653	1 ug of Hp RNA from T	GSE4160	GSM95040/GSM95051	1			48		1	1	0	0	maplot				GPL15		
29783323	1 ug of Hp RNA from T	GSE4160	GSM95040/GSM95053	1			48		1	1	0	0	maplot				GPL15		
29784993	1 ug of Hp RNA from T	GSE4160	GSM95040/GSM95055	1			48		1	1	0	0	maplot				GPL15		
29786663	wildtype 0 min/wiltype 30min	GSE4160	GSM95040/GSM95057	1			48		1	1	0	0	maplot				GPL15		
29741573	1 ug of Hp RNA from T	GSE4160	GSM95041	2			52		0	0	0	0	mbplot				GPL15		
29744913	wildtype 0 min/ strain 146(fur2 mutant) 0min	GSE4160	GSM95042	2			52		0	0	0	0	mbplot				GPL15		
29748253	wildtype 90min / wildtype 0 min	GSE4160	GSM95043	2			52		0	0	0	0	mbplot				GPL15		
29716523	1 ug of Hp RNA from T	GSE4160	GSM95044	2			52		0	0	0	0	mbplot				GPL15		
29773303	wiltype 0 min/strain 145(fur1 mutant) 60min	GSE4160	GSM95044/GSM95038	1			48		1	1	0	0	maplot				GPL15		
29774973	1 ug of Hp RNA from T	GSE4160	GSM95044/GSM95039	1			48		1	1	0	0	maplot				GPL15		
29756603	strain 146(fur2 mutant) 60min in log phase / wildtype 0 min	GSE4160	GSM95044/GSM95040	1			48		1	1	0	0	maplot				GPL15		
29758273	1 ug of Hp RNA from T	GSE4160	GSM95044/GSM95047	1			48		1	1	0	0	maplot				GPL15		
29759943	wildtype 0 min/ wildtype 90min	GSE4160	GSM95044/GSM95050	1			48		1	1	0	0	maplot				GPL15		
29761613	1 ug of Hp RNA from T	GSE4160	GSM95044/GSM95052	1			48		1	1	0	0	maplot				GPL15		
29763283	wildtype 0 min / 60min wildtype	GSE4160	GSM95044/GSM95054	1			48		1	1	0	0	maplot				GPL15		
29764953	1 ug of Hp RNA from T	GSE4160	GSM95044/GSM95056	1			48		1	1	0	0	maplot				GPL15		
29766623	1 ug of Hp RNA from T	GSE4160	GSM95044/GSM95058	1			48		1	1	0	0	maplot				GPL15		
29768293	strain146 (fur2 mutant) 0min in log phase/ wildtpe 0 min	GSE4160	GSM95044/GSM95059	1			48		1	1	0	0	maplot				GPL15		
29769963	1 ug of Hp RNA from T	GSE4160	GSM95044/GSM95060	1			48		1	1	0	0	maplot				GPL15		
29771633	0min strain 146(fur2 mutant) /wildtype 0 min	GSE4160	GSM95044/GSM95061	1			48		1	1	0	0	maplot				GPL15		
29721533	strain146 (fur2 mutant) 0min in log phase/ wildtpe 0 min	GSE4160	GSM95045	2			52		0	0	0	0	mbplot				GPL15		
29751593	1 ug of Hp RNA from T	GSE4160	GSM95046	2			52		0	0	0	0	mbplot				GPL15		
29719863	wildtype 0min/ wildtype 90 min	GSE4160	GSM95047	2			52		0	0	0	0	mbplot				GPL15		
29796683	1 ug of Hp RNA from T	GSE4160	GSM95047/GSM95045	1			48		1	1	0	0	maplot				GPL15		
29798353	1 ug of Hp RNA from 0min wildtype /30min strain 146(fur2 mutant)	GSE4160	GSM95047/GSM95050	1			48		1	1	0	0	maplot				GPL15		
29800023	wildtype 0 min/ strain 145(fur1 mutant) 60min	GSE4160	GSM95047/GSM95052	1			48		1	1	0	0	maplot				GPL15		
29801693	60min strain 146(fur2 mutant) in log phase/wildtype 0 min	GSE4160	GSM95047/GSM95056	1			48		1	1	0	0	maplot				GPL15		
29803363	wildtype 0 min/ wildtype 60min	GSE4160	GSM95047/GSM95058	1			48		1	1	0	0	maplot				GPL15		
29805033	strain146 (fur2 mutant) 60min in log phase/ wildtpe 0 min	GSE4160	GSM95047/GSM95059	1			48		1	1	0	0	maplot				GPL15		
29724873	1 ug of Hp RNA from T	GSE4160	GSM95048	2			52		0	0	0	0	mbplot				GPL15		
29754933	strain 146(fur2 mutant) 30min in log phase / wildtype 0 min	GSE4160	GSM95049	2			52		0	0	0	0	mbplot				GPL15		
29723203	wildtype 0 min/ wildtpe 30 min	GSE4160	GSM95050	2			52		0	0	0	0	mbplot				GPL15		
29728213	strain 146(fur2 mutant) 0min  / wildtype 0 min	GSE4160	GSM95051	2			52		0	0	0	0	mbplot				GPL15		
29726543	strain 146(fur2 mutant) 0min in log phase / wildtype 0 min	GSE4160	GSM95052	2			52		0	0	0	0	mbplot				GPL15		
29731553	wildtpye 0 min log phase/strain 146 (fur2 mutant) 0 min in log phase	GSE4160	GSM95053	2			52		0	0	0	0	mbplot				GPL15		
29729883	wildtype 90min/ 0min wildtype	GSE4160	GSM95054	2			52		0	0	0	0	mbplot				GPL15		
29734893	1 ug of Hp RNA from T	GSE4160	GSM95055	2			52		0	0	0	0	mbplot				GPL15		
29733223	wiltype 0 min/strain 146(fur2 mutant) 0min	GSE4160	GSM95056	2			52		0	0	0	0	mbplot				GPL15		
29738233	1 ug of Hp RNA from 0min wildtype /0min strain 146(fur2 mutant)	GSE4160	GSM95057	2			52		0	0	0	0	mbplot				GPL15		
29736563	wildtpye 0 min log phase/strain 145 (fur1 mutant) 30 min in log phase	GSE4160	GSM95058	2			52		0	0	0	0	mbplot				GPL15		
29739903	1 ug of Hp RNA from T	GSE4160	GSM95059	2			52		0	0	0	0	mbplot				GPL15		
29743243	wildtype 0 min/ strain 145(fur1 mutant)0 min	GSE4160	GSM95060	2			52		0	0	0	0	mbplot				GPL15		
29746583	strain 146(fur2 mutant) 60 min in log phase/ wildtype 0 min	GSE4160	GSM95061	2			52		0	0	0	0	mbplot				GPL15		
19730989	RpoH induced (2.5 min) / Wild type control (2.5 min)	GSE4321	GSM98718,GSM98723,GSM98728	2	37		38		1	1	0	0	mbplot		2.5		GPL3500		NC_000913
19735496	RpoH induced (5 min) / Wild type control (5 min)	GSE4321	GSM98719,GSM98724,GSM98729	2	37		38		1	1	0	0	mbplot		5		GPL3500		NC_000913
19740003	RpoH induced (10 min) / Wild type control (10 min)	GSE4321	GSM98720,GSM98725,GSM98730,GSM98732	2	37		38		1	1	0	0	mbplot		10		GPL3500		NC_000913
19744510	RpoH induced (20 min) / Wild type control (20 min)	GSE4321	GSM98721,GSM98726,GSM98731	2	37		38		1	1	0	0	mbplot		20		GPL3500		NC_000913
19749017	RpoH induced (0 min) / Wild type control (0 min)	GSE4321	GSM98717,GSM98722,GSM98727	2	37		38		1	1	0	0	mbplot				GPL3500		NC_000913
19753524	WT M9 2 min post rif / WT M9	GSE4344	GSM73567,GSM73572	2	6		5		1	1	0	0	mbplot		2		GPL2820		NC_000913
19758144	WT LB 2 min post rif / WT LB	GSE4344	GSM73569	2	6		5		1	1	0	0	mbplot		2		GPL2820		NC_000913
19762764	WT M9 4 min post rif / WT M9	GSE4344	GSM73568,GSM73573	2	6		5		1	1	0	0	mbplot		4		GPL2820		NC_000913
19767384	WT LB 4 min post rif / WT LB	GSE4344	GSM73570	2	6		5		1	1	0	0	mbplot		4		GPL2820		NC_000913
19772004	WT LB 6 min post rif / WT LB	GSE4344	GSM73571	2	6		5		1	1	0	0	mbplot		6		GPL2820		NC_000913
19776624	WT M9 6 min post rif / WT M9	GSE4344	GSM73574,GSM73575	2	6		5		1	1	0	0	mbplot		6		GPL2820		NC_000913
19781244	WT M9 8 min post rif / WT M9	GSE4344	GSM73576,GSM73578	2	6		5		1	1	0	0	mbplot		8		GPL2820		NC_000913
19785864	WT LB 8 min post rif / WT LB	GSE4344	GSM73577	2	6		5		1	1	0	0	mbplot		8		GPL2820		NC_000913
19790484	WT LB / Genomic DNA	GSE4344	GSM73563,GSM73565	2	12		11		1	1	0	0	mbplot				GPL2821		NC_000913
19795104	WT M9-glucose / Genomic DNA	GSE4344	GSM73564,GSM73566	2	12		11		1	1	0	0	mbplot				GPL2821		NC_000913
19799724	15 min after Ampicillin (100 ug/ml) / 0 min before treatment	GSE4357	GSM99082	2			1		0	0	0	0	mbplot		15		GPL3503		NC_000913
19804346	30 min after Ampicillin (100 ug/ml) / 0 min before treatment	GSE4357	GSM99083	2			1		0	0	0	0	mbplot		30		GPL3503		NC_000913
19808968	45 min after Ampicillin (100 ug/ml) / 0 min before treatment	GSE4357	GSM99084	2			1		0	0	0	0	mbplot		45		GPL3503		NC_000913
19813590	60 min after Ampicillin (100 ug/ml) / 0 min before treatment	GSE4357	GSM99085	2			1		0	0	0	0	mbplot		60		GPL3503		NC_000913
19818212	75 min after Ampicillin (100 ug/ml) / 0 min before treatment	GSE4357	GSM99086	2			1		0	0	0	0	mbplot		75		GPL3503		NC_000913
19822834	0 min after Ampicillin (100 ug/ml) / 0 min before treatment	GSE4357	GSM99081	2			1		0	0	0	0	mbplot				GPL3503		NC_000913
19827456	2 min timepoint washed in 0.1 M CaCl2 + 15 % glycerol / before washing in LB	GSE4358	GSM99087	2			1		0	0	0	0	mbplot		2		GPL3503		NC_000913
19832078	5 min timepoint washed in 0.1 M CaCl2 + 15 % glycerol / before washing in LB	GSE4358	GSM99088	2			1		0	0	0	0	mbplot		5		GPL3503		NC_000913
19836700	10 min timepoint washed in 0.1 M CaCl2 + 15 % glycerol / before washing in LB	GSE4358	GSM99089	2			1		0	0	0	0	mbplot		10		GPL3503		NC_000913
19841322	20 min timepoint washed in 0.1 M CaCl2 + 15 % glycerol / before washing in LB	GSE4358	GSM99090	2			1		0	0	0	0	mbplot		20		GPL3503		NC_000913
19845944	40 min timepoint washed in 0.1 M CaCl2 + 15 % glycerol / before washing in LB	GSE4358	GSM99091	2			1		0	0	0	0	mbplot		40		GPL3503		NC_000913
19850566	60 min timepoint washed in 0.1 M CaCl2 + 15 % glycerol / before washing in LB	GSE4358	GSM99092	2			1		0	0	0	0	mbplot		60		GPL3503		NC_000913
19855188	15 min recovery from stationary phase LB + glucose / Bogel-Vonner OD 0.5	GSE4359	GSM99094	2			1		0	0	0	0	mbplot		15		GPL3503		NC_000913
19859810	30 min recovery from stationary phase LB + glucose / Bogel-Vonner OD 0.5	GSE4359	GSM99095	2			1		0	0	0	0	mbplot		30		GPL3503		NC_000913
19864432	45 min recovery from stationary phase LB + glucose / Bogel-Vonner OD 0.5	GSE4359	GSM99096	2			1		0	0	0	0	mbplot		45		GPL3503		NC_000913
19869054	60 min recovery from stationary phase LB + glucose / Bogel-Vonner OD 0.5	GSE4359	GSM99097	2			1		0	0	0	0	mbplot		60		GPL3503		NC_000913
19873676	75 min recovery from stationary phase LB + glucose / Bogel-Vonner OD 0.5	GSE4359	GSM99098	2			1		0	0	0	0	mbplot		75		GPL3503		NC_000913
19878298	90 min recovery from stationary phase LB + glucose / Bogel-Vonner OD 0.5	GSE4359	GSM99099	2			1		0	0	0	0	mbplot		90		GPL3503		NC_000913
19882920	0 min recovery from stationary phase LB + glucose / Bogel-Vonner OD 0.5	GSE4359	GSM99093	2			1		0	0	0	0	mbplot				GPL3503		NC_000913
19887542	5 min after Indol-acrylate (10 ug/ml) / 0 min before treatment	GSE4360	GSM99100	2			1		0	0	0	0	mbplot		5		GPL3503		NC_000913
19892164	15 min after Indol-acrylate (10 ug/ml) / 0 min before treatment	GSE4360	GSM99101	2			1		0	0	0	0	mbplot		15		GPL3503		NC_000913
19896786	30 min after Indol-acrylate (10 ug/ml) / 0 min before treatment	GSE4360	GSM99102	2			1		0	0	0	0	mbplot		30		GPL3503		NC_000913
19901408	60 min after Indol-acrylate (10 ug/ml) / 0 min before treatment	GSE4360	GSM99103	2			1		0	0	0	0	mbplot		60		GPL3503		NC_000913
19906030	5 min after Indol-acrylate (15 ug/ml) / 0 min before treatment 	GSE4361	GSM99104	2			1		0	0	0	0	mbplot		5		GPL3503		NC_000913
19910652	15 min after Indol-acrylate (15 ug/ml) / 0 min before treatment	GSE4361	GSM99105	2			1		0	0	0	0	mbplot		15		GPL3503		NC_000913
19915274	30 min after Indol-acrylate (15 ug/ml) / 0 min before treatment	GSE4361	GSM99106	2			1		0	0	0	0	mbplot		30		GPL3503		NC_000913
19919896	60 min after Indol-acrylate (15 ug/ml) / 0 min before treatment	GSE4361	GSM99107	2			1		0	0	0	0	mbplot		60		GPL3503		NC_000913
19924518	15 min after Kanamycin (100 ug/ml) / 0 min before treatment	GSE4362	GSM99109	2			1		0	0	0	0	mbplot		15		GPL3503		NC_000913
19929140	30 min after Kanamycin (100 ug/ml) / 0 min before treatment	GSE4362	GSM99110	2			1		0	0	0	0	mbplot		30		GPL3503		NC_000913
19933762	45min after Kanamycin (100 ug/ml) / 0 min before treatment	GSE4362	GSM99111	2			1		0	0	0	0	mbplot		45		GPL3503		NC_000913
19938384	60 min after Kanamycin (100 ug/ml) / 0 min before treatment	GSE4362	GSM99112	2			1		0	0	0	0	mbplot		60		GPL3503		NC_000913
19943006	75 min after Kanamycin (100 ug/ml) / 0 min before treatment	GSE4362	GSM99113	2			1		0	0	0	0	mbplot		75		GPL3503		NC_000913
19947628	0 min after Kanamycin (100 ug/ml) / 0 min before treatment	GSE4362	GSM99108	2			1		0	0	0	0	mbplot				GPL3503		NC_000913
19952250	78 min recovery in LB+0.2% glc / Bonner-Vogel OD~0.5	GSE4363	GSM99115	2			1		0	0	0	0	mbplot		78		GPL3503		NC_000913
19956872	105 min recovery in LB+0.2% glc / Bonner-Vogel OD~0.5	GSE4363	GSM99116	2			1		0	0	0	0	mbplot		105		GPL3503		NC_000913
19961494	133 min recovery in LB+0.2% glc / Bonner-Vogel OD~0.5	GSE4363	GSM99117	2			1		0	0	0	0	mbplot		133		GPL3503		NC_000913
19966116	163 min recovery in LB+0.2% glc / Bonner-Vogel OD~0.5	GSE4363	GSM99118	2			1		0	0	0	0	mbplot		163		GPL3503		NC_000913
19970738	191 min recovery in LB+0.2% glc / Bonner-Vogel OD~0.5	GSE4363	GSM99119	2			1		0	0	0	0	mbplot		191		GPL3503		NC_000913
19975360	218 min recovery in LB+0.2% glc / Bonner-Vogel OD~0.5	GSE4363	GSM99120	2			1		0	0	0	0	mbplot		218		GPL3503		NC_000913
19979982	261 min recovery in LB+0.2% glc / Bonner-Vogel OD~0.5	GSE4363	GSM99121	2			1		0	0	0	0	mbplot		261		GPL3503		NC_000913
19984604	313 min recovery in LB+0.2% glc / Bonner-Vogel OD~0.5	GSE4363	GSM99122	2			1		0	0	0	0	mbplot		313		GPL3503		NC_000913
19989226	443 min recovery in LB+0.2% glc / Bonner-Vogel OD~0.5	GSE4363	GSM99123	2			1		0	0	0	0	mbplot		443		GPL3503		NC_000913
19993848	1440 min recovery in LB+0.2% glc / Bonner-Vogel OD~0.5	GSE4363	GSM99124	2			1		0	0	0	0	mbplot		1440		GPL3503		NC_000913
19998470	0 min recovery in LB+0.2% glc / Bonner-Vogel OD~0.5	GSE4363	GSM99114	2			1		0	0	0	0	mbplot				GPL3503		NC_000913
20003092	15 min recovery / Bonner-Vogel OD~0.5	GSE4364	GSM99126	2			1		0	0	0	0	mbplot		15		GPL3503		NC_000913
20007714	30 min recovery / Bonner-Vogel OD~0.5	GSE4364	GSM99127	2			1		0	0	0	0	mbplot		30		GPL3503		NC_000913
20012336	45min recovery / Bonner-Vogel OD~0.5	GSE4364	GSM99128	2			1		0	0	0	0	mbplot		45		GPL3503		NC_000913
20016958	60 min recovery / Bonner-Vogel OD~0.5	GSE4364	GSM99129	2			1		0	0	0	0	mbplot		60		GPL3503		NC_000913
20021580	75 min recovery / Bonner-Vogel OD~0.5	GSE4364	GSM99130	2			1		0	0	0	0	mbplot		75		GPL3503		NC_000913
20026202	90 min recovery / Bonner-Vogel OD~0.5	GSE4364	GSM99131	2			1		0	0	0	0	mbplot		90		GPL3503		NC_000913
20030824	0 min recovery / Bonner-Vogel OD~0.5	GSE4364	GSM99125	2			1		0	0	0	0	mbplot				GPL3503		NC_000913
20035446	NOX+ 0.13 h-1 / NOX+ 0.06 h-1 	GSE4365	GSM99132	2			1		0	0	0	0	mbplot				GPL3503		NC_000913
20040068	NOX+ 0.21 h-1 / NOX+ 0.06 h-1 	GSE4365	GSM99133	2			1		0	0	0	0	mbplot				GPL3503		NC_000913
20044690	NOX+ 0.28 h-1  / NOX+ 0.06 h-1 	GSE4365	GSM99134	2			1		0	0	0	0	mbplot				GPL3503		NC_000913
20049312	NOX+ 0.34 h-1 / NOX+ 0.06 h-1 	GSE4365	GSM99135	2			1		0	0	0	0	mbplot				GPL3503		NC_000913
20053934	NOX+ 0.4 h-1 / NOX+ 0.06 h-1 	GSE4365	GSM99136	2			1		0	0	0	0	mbplot				GPL3503		NC_000913
20058556	NOX- 0.19 h-1 /  NOX- 0.1 h-1	GSE4366	GSM99137	2			1		0	0	0	0	mbplot				GPL3503		NC_000913
20063178	NOX- 0.3 h-1 / NOX- 0.1 h-1	GSE4366	GSM99138	2			1		0	0	0	0	mbplot				GPL3503		NC_000913
20067800	NOX- 0.41 h-1 / NOX- 0.1 h-1	GSE4366	GSM99139	2			1		0	0	0	0	mbplot				GPL3503		NC_000913
20072422	NOX- 0.49 h-1 / NOX- 0.1 h-1	GSE4366	GSM99140	2			1		0	0	0	0	mbplot				GPL3503		NC_000913
20077044	NOX- 0.6 h-1 / NOX- 0.1 h-1	GSE4366	GSM99141	2			1		0	0	0	0	mbplot				GPL3503		NC_000913
20081666	2 min after Norfloxacin (50 ug/ml) / 0 min before treatment	GSE4367	GSM99142	2			1		0	0	0	0	mbplot		2		GPL3503		NC_000913
20086288	5 min after Norfloxacin (50 ug/ml) / 0 min before treatment	GSE4367	GSM99143	2			1		0	0	0	0	mbplot		5		GPL3503		NC_000913
20090910	10 min after Norfloxacin (50 ug/ml) / 0 min before treatment	GSE4367	GSM99144	2			1		0	0	0	0	mbplot		10		GPL3503		NC_000913
20095532	20 min after Norfloxacin (50 ug/ml) / 0 min before treatment	GSE4367	GSM99145	2			1		0	0	0	0	mbplot		20		GPL3503		NC_000913
20100154	30 min after Norfloxacin (50 ug/ml) / 0 min before treatment	GSE4367	GSM99146	2			1		0	0	0	0	mbplot		30		GPL3503		NC_000913
20104776	gyrA parC 2 min after Norfloxacin (15 ug/ml) / gyrA parC 0 min before treatment	GSE4368	GSM99147	2			1		0	0	0	0	mbplot		2		GPL3503		NC_000913
20109398	gyrA parC 5 min after Norfloxacin (15 ug/ml) / gyrA parC 0 min before treatment	GSE4368	GSM99148	2			1		0	0	0	0	mbplot		5		GPL3503		NC_000913
20114020	gyrA parC 10 min after Norfloxacin (15 ug/ml) / gyrA parC 0 min before treatment	GSE4368	GSM99149	2			1		0	0	0	0	mbplot		10		GPL3503		NC_000913
20118642	gyrA parC 20 min after Norfloxacin (15 ug/ml) / gyrA parC 0 min before treatment	GSE4368	GSM99150	2			1		0	0	0	0	mbplot		20		GPL3503		NC_000913
20123264	gyrA parC 30 min after Norfloxacin (15 ug/ml) / gyrA parC 0 min before treatment	GSE4368	GSM99151	2			1		0	0	0	0	mbplot		30		GPL3503		NC_000913
20127886	gyrA parC 2 min after Norfloxacin (50 ug/ml) / gyrA parC 0 min before treatment	GSE4369	GSM99152	2			1		0	0	0	0	mbplot		2		GPL3503		NC_000913
20132508	gyrA parC 5 min after Norfloxacin (50 ug/ml) / gyrA parC 0 min before treatment	GSE4369	GSM99153	2			1		0	0	0	0	mbplot		5		GPL3503		NC_000913
20137130	gyrA parC 10 min after Norfloxacin (50 ug/ml) / gyrA parC 0 min before treatment	GSE4369	GSM99154	2			1		0	0	0	0	mbplot		10		GPL3503		NC_000913
20141752	gyrA parC 20min after Norfloxacin (50 ug/ml) / gyrA parC 0 min before treatment	GSE4369	GSM99155	2			1		0	0	0	0	mbplot		20		GPL3503		NC_000913
20146374	gyrA parC 30 min after Norfloxacin (50 ug/ml) / gyrA parC 0 min before treatment	GSE4369	GSM99156	2			1		0	0	0	0	mbplot		30		GPL3503		NC_000913
20150996	15 min recovery in 10mM Na-P / Bonner-Vogel OD~0.5	GSE4370	GSM99158	2			1		0	0	0	0	mbplot		15		GPL3503		NC_000913
20155618	30 min recovery in 10mM Na-P / Bonner-Vogel OD~0.5	GSE4370	GSM99159	2			1		0	0	0	0	mbplot		30		GPL3503		NC_000913
20160240	45min recovery in 10mM Na-P / Bonner-Vogel OD~0.5	GSE4370	GSM99160	2			1		0	0	0	0	mbplot		45		GPL3503		NC_000913
20164862	60 min recovery in 10mM Na-P / Bonner-Vogel OD~0.5	GSE4370	GSM99161	2			1		0	0	0	0	mbplot		60		GPL3503		NC_000913
20169484	75 min recovery in 10mM Na-P / Bonner-Vogel OD~0.5	GSE4370	GSM99162	2			1		0	0	0	0	mbplot		75		GPL3503		NC_000913
20174106	90 min recovery in 10mM Na-P / Bonner-Vogel OD~0.5	GSE4370	GSM99163	2			1		0	0	0	0	mbplot		90		GPL3503		NC_000913
20178728	0 min recovery in 10mM Na-P / Bonner-Vogel OD~0.5	GSE4370	GSM99157	2			1		0	0	0	0	mbplot				GPL3503		NC_000913
20183350	15 min recovery in 10mM Na-P / Bonner-Vogel OD~0.5	GSE4371	GSM99165	2			1		0	0	0	0	mbplot		15		GPL3503		NC_000913
20187972	30 min recovery in 10mM Na-P / Bonner-Vogel OD~0.5	GSE4371	GSM99166	2			1		0	0	0	0	mbplot		30		GPL3503		NC_000913
20192594	45min recovery in 10mM Na-P / Bonner-Vogel OD~0.5	GSE4371	GSM99167	2			1		0	0	0	0	mbplot		45		GPL3503		NC_000913
20197216	60 min recovery in 10mM Na-P / Bonner-Vogel OD~0.5	GSE4371	GSM99168	2			1		0	0	0	0	mbplot		60		GPL3503		NC_000913
20201838	75 min recovery in 10mM Na-P / Bonner-Vogel OD~0.5	GSE4371	GSM99169	2			1		0	0	0	0	mbplot		75		GPL3503		NC_000913
20206460	90 min recovery in 10mM Na-P / Bonner-Vogel OD~0.5	GSE4371	GSM99170	2			1		0	0	0	0	mbplot		90		GPL3503		NC_000913
20211082	0 min recovery in 10mM Na-P / Bonner-Vogel OD~0.5	GSE4371	GSM99164	2			1		0	0	0	0	mbplot				GPL3503		NC_000913
20215704	5 min 0.01 M Sodium Azide treatment / 0 min before treatment in Bonner-Vogel	GSE4372	GSM99171	2			1		0	0	0	0	mbplot		5		GPL3503		NC_000913
20220326	15 min 0.01 M Sodium Azide treatment / 0 min before treatment in Bonner-Vogel	GSE4372	GSM99172	2			1		0	0	0	0	mbplot		15		GPL3503		NC_000913
20224948	30 min 0.01 M Sodium Azide treatment / 0 min before treatment in Bonner-Vogel	GSE4372	GSM99173	2			1		0	0	0	0	mbplot		30		GPL3503		NC_000913
20229570	60 min 0.01 M Sodium Azide treatment / 0 min before treatment in Bonner-Vogel	GSE4372	GSM99174	2			1		0	0	0	0	mbplot		60		GPL3503		NC_000913
20234192	OD 0.03 anaerobic growth in M9 + glucose / genomic DNA reference	GSE4373	GSM99175	2			1		0	0	0	0	mbplot				GPL3503		NC_000913
20238814	OD 0.2 anaerobic growth in M9 + glucose / genomic DNA reference	GSE4373	GSM99176	2			1		0	0	0	0	mbplot				GPL3503		NC_000913
20243436	OD 0.35 anaerobic growth in M9 + glucose / genomic DNA reference	GSE4373	GSM99177	2			1		0	0	0	0	mbplot				GPL3503		NC_000913
20248058	OD 0.6 anaerobic growth in M9 + glucose / genomic DNA reference	GSE4373	GSM99178	2			1		0	0	0	0	mbplot				GPL3503		NC_000913
20252680	OD 0.9 anaerobic growth in M9 + glucose / genomic DNA reference	GSE4373	GSM99179	2			1		0	0	0	0	mbplot				GPL3503		NC_000913
20257302	stationary phase anaerobic growth in M9 + glucose / genomic DNA reference	GSE4373	GSM99180	2			1		0	0	0	0	mbplot				GPL3503		NC_000913
20261924	OD 0.05 anaerobic growth in M9 + glucose + fumarate / genomic DNA reference	GSE4374	GSM99181	2			1		0	0	0	0	mbplot				GPL3503		NC_000913
20266546	OD 0.21 anaerobic growth in M9 + glucose + fumarate / genomic DNA reference	GSE4374	GSM99182	2			1		0	0	0	0	mbplot				GPL3503		NC_000913
20271168	OD 0.43 anaerobic growth in M9 + glucose + fumarate / genomic DNA reference	GSE4374	GSM99183	2			1		0	0	0	0	mbplot				GPL3503		NC_000913
20275790	OD 0.7 anaerobic growth in M9 + glucose + fumarate / genomic DNA reference	GSE4374	GSM99184	2			1		0	0	0	0	mbplot				GPL3503		NC_000913
20280412	OD 1.2 anaerobic growth in M9 + glucose + fumarate / genomic DNA reference	GSE4374	GSM99185	2			1		0	0	0	0	mbplot				GPL3503		NC_000913
20285034	stationary phase anaerobic growth in M9 + glucose + fumarate / genomic DNA reference	GSE4374	GSM99186	2			1		0	0	0	0	mbplot				GPL3503		NC_000913
20289656	Anaerobic growth in M9 + glucose OD 0.08 / Aerobic OD 0.4	GSE4375	GSM99187	2			1		0	0	0	0	mbplot				GPL3503		NC_000913
20294278	Anaerobic growth in M9 + glucose OD 0.15 / Aerobic OD 0.4	GSE4375	GSM99188	2			1		0	0	0	0	mbplot				GPL3503		NC_000913
20298900	Anaerobic growth in M9 + glucose OD 0.34 / Aerobic OD 0.4	GSE4375	GSM99189	2			1		0	0	0	0	mbplot				GPL3503		NC_000913
20303522	Anaerobic growth in M9 + glucose OD 0.73 / Aerobic OD 0.4	GSE4375	GSM99190	2			1		0	0	0	0	mbplot				GPL3503		NC_000913
20308144	Anaerobic growth in M9 + glucose OD 1.02 / Aerobic OD 0.4	GSE4375	GSM99191	2			1		0	0	0	0	mbplot				GPL3503		NC_000913
20312766	Anaerobic growth in M9 + glucose OD 1.27 / Aerobic OD 0.4	GSE4375	GSM99192	2			1		0	0	0	0	mbplot				GPL3503		NC_000913
20317388	Anaerobic growth in M9 + glucose + fumarate OD 0.15 / Aerobic OD 0.4	GSE4376	GSM99193	2			1		0	0	0	0	mbplot				GPL3503		NC_000913
20322010	Anaerobic growth in M9 + glucose + fumarate OD 0.30 / Aerobic OD 0.4	GSE4376	GSM99194	2			1		0	0	0	0	mbplot				GPL3503		NC_000913
20326632	Anaerobic growth in M9 + glucose + fumarate OD 0.63 / Aerobic OD 0.4	GSE4376	GSM99195	2			1		0	0	0	0	mbplot				GPL3503		NC_000913
20331254	Anaerobic growth in M9 + glucose + fumarate OD 0.85 / Aerobic OD 0.4	GSE4376	GSM99196	2			1		0	0	0	0	mbplot				GPL3503		NC_000913
20335876	Anaerobic growth in M9 + glucose + fumarate OD 1.07 / Aerobic OD 0.4	GSE4376	GSM99197	2			1		0	0	0	0	mbplot				GPL3503		NC_000913
20340498	Anaerobic growth in M9 + glucose + fumarate OD 1.29 / Aerobic OD 0.4	GSE4376	GSM99198	2			1		0	0	0	0	mbplot				GPL3503		NC_000913
20345120	5 min after Gamma treatment / 0 min before treatment	GSE4377	GSM99199	2			1		0	0	0	0	mbplot		5		GPL3503		NC_000913
20349742	10 min after Gamma treatment / 0 min before treatment	GSE4377	GSM99200	2			1		0	0	0	0	mbplot		10		GPL3503		NC_000913
20354364	20 min after Gamma treatment / 0 min before treatment	GSE4377	GSM99201	2			1		0	0	0	0	mbplot		20		GPL3503		NC_000913
20358986	40 min after Gamma treatment / 0 min before treatment	GSE4377	GSM99202	2			1		0	0	0	0	mbplot		40		GPL3503		NC_000913
20363608	60 min after Gamma treatment / 0 min before treatment	GSE4377	GSM99203	2			1		0	0	0	0	mbplot		60		GPL3503		NC_000913
20368230	acrD- 5 min after Novobiocin (5 ug/ml) / acrD- 0 min before treatment	GSE4378	GSM99204	2			1		0	0	0	0	mbplot				GPL3503		NC_000913
20372852	acrD- 5 min after Novobiocin (20 ug/ml) / acrD- 0 min before treatment	GSE4378	GSM99205	2			1		0	0	0	0	mbplot				GPL3503		NC_000913
20377474	acrD- 5 min after Novobiocin (50 ug/ml) / acrD- 0 min before treatment	GSE4378	GSM99206	2			1		0	0	0	0	mbplot				GPL3503		NC_000913
20382096	acrD- 5 min after Novobiocin (200 ug/ml) / acrD- 0 min before treatment	GSE4378	GSM99207	2			1		0	0	0	0	mbplot				GPL3503		NC_000913
20386718	DH5alpha OD 0.2 in LB + Amp pUC expression / DH5alpha OD 0.2 in LB no pUC	GSE4379	GSM99208	2			1		0	0	0	0	mbplot				GPL3503		NC_000913
20391340	DH5alpha OD 0.5 in LB + Amp pUC expression / DH5alpha OD 0.5 in LB no pUC	GSE4379	GSM99209	2			1		0	0	0	0	mbplot				GPL3503		NC_000913
20395962	DH5alpha OD 0.9 in LB + Amp pUC expression / DH5alpha OD 0.9 in LB no pUC	GSE4379	GSM99210	2			1		0	0	0	0	mbplot				GPL3503		NC_000913
20400584	MG1655 Stationary phase in LB OD 2.4 T1 / MG1655 genomic DNA	GSE4380	GSM99211	2			1		0	0	0	0	mbplot				GPL3503		NC_000913
20405206	MG1655 Stationary phase in LB OD 2.8 T2 / MG1655 genomic DNA	GSE4380	GSM99212	2			1		0	0	0	0	mbplot				GPL3503		NC_000913
20409828	MG1655 Stationary phase in LB OD 3.1 T3 / MG1655 genomic DNA	GSE4380	GSM99213	2			1		0	0	0	0	mbplot				GPL3503		NC_000913
20414450	MG1655 Stationary phase in LB OD 3.1 T4 (for 20 min) / MG1655 genomic DNA	GSE4380	GSM99214	2			1		0	0	0	0	mbplot				GPL3503		NC_000913
20419072	MG1655 Stationary phase in LB OD 3.1 T5 (for 40 min) / MG1655 genomic DNA	GSE4380	GSM99215	2			1		0	0	0	0	mbplot				GPL3503		NC_000913
20423694	MG1655 Stationary phase in LB OD 3.1 T6 (for 60 min) / MG1655 genomic DNA	GSE4380	GSM99216	2			1		0	0	0	0	mbplot				GPL3503		NC_000913
20428316	rraA OD600=1.0 / WT OD600=1.0	GSE4383	GSM88415	2	6		5		1	1	0	0	mbplot				GPL2821		NC_000913
20432936	rraA OD600=0.3 / WT OD600=0.3	GSE4383	GSM88416	2	6		5		1	1	0	0	mbplot				GPL2821		NC_000913
20437556	rraA OD600=0.5 / WT OD600=0.5	GSE4383	GSM88417	2	6		5		1	1	0	0	mbplot				GPL2821		NC_000913
20442176	KSL2009 + pTrc99A-rraA (rraR overexpressing) / KSL2009 control	GSE4383	GSM88418	2	6		5		1	1	0	0	mbplot				GPL2821		NC_000913
20446796	KSL2000 Rne depletion / KSL2000 control	GSE4383	GSM88419	2	6		5		1	1	0	0	mbplot				GPL2821		NC_000913
20451416	KSL2009 N-Rne depletion / KSL2009 control	GSE4383	GSM88420	2	6		5		1	1	0	0	mbplot				GPL2821		NC_000913
20456036	KSL2000 + pTrc99A-rraA (rraR overexpressing) / KSL2000 control	GSE4383	GSM88421	2	6		5		1	1	0	0	mbplot				GPL2821		NC_000913
20460656	WT (K10) 1.5 min post rif / WT (K10)	GSE4394	GSM90685,GSM90686	2	12		11		1	1	0	0	mbplot		1.5		GPL2821		NC_000913
20465276	WT (SH3208) 1.5 min post rif / WT (SH3208) 	GSE4394	GSM90689	2	12		11		1	1	0	0	mbplot		1.5		GPL2821		NC_000913
20469896	(RhlB- SU02) 1.5 min post rif / (RhlB- SU02)	GSE4394	GSM90690,GSM90692,GSM90707,GSM90709	2	12		11		1	1	0	0	mbplot		1.5		GPL2821		NC_000913
20474516	WT (N3433) 1.5 min post rif / WT (N3433)	GSE4394	GSM90701,GSM90702,GSM90740,GSM90741	2	12		11		1	1	0	0	mbplot		1.5		GPL2821		NC_000913
20479136	(Pnp- YHC012) 1.5 min post rif / (Pnp- YHC012)	GSE4394	GSM90708,GSM90710	2	12		11		1	1	0	0	mbplot		1.5		GPL2821		NC_000913
20483756	(Eno- DF261) 1.5 min post rif / (Eno- DF261)	GSE4394	GSM90720,GSM90721	2	12		11		1	1	0	0	mbplot		1.5		GPL2821		NC_000913
20488376	(N-RNaseE BZ453) 1.5 min post rif / (N-RNaseE BZ453)	GSE4394	GSM90724,GSM90726,GSM90731	2	12		11		1	1	0	0	mbplot		1.5		GPL2821		NC_000913
20492996	WT (K10) 3 min post rif / WT (K10)	GSE4394	GSM90687	2	12		11		1	1	0	0	mbplot		3		GPL2821		NC_000913
20497616	WT (SH3208) 3 min post rif / WT (SH3208) 	GSE4394	GSM90693	2	12		11		1	1	0	0	mbplot		3		GPL2821		NC_000913
20502236	(RhlB- SU02) 3 min post rif / (RhlB- SU02)	GSE4394	GSM90694,GSM90711	2	12		11		1	1	0	0	mbplot		3		GPL2821		NC_000913
20506856	WT (N3433) 3 min post rif / WT (N3433)	GSE4394	GSM90703,GSM90742	2	12		11		1	1	0	0	mbplot		3		GPL2821		NC_000913
20511476	(Pnp- YHC012) 3 min post rif / (Pnp- YHC012)	GSE4394	GSM90712	2	12		11		1	1	0	0	mbplot		3		GPL2821		NC_000913
20516096	(Eno- DF261) 3 min post rif / (Eno- DF261)	GSE4394	GSM90722,GSM90723	2	12		11		1	1	0	0	mbplot		3		GPL2821		NC_000913
20520716	(N-RNaseE BZ453) 3 min post rif / (N-RNaseE BZ453)	GSE4394	GSM90728,GSM90735	2	12		11		1	1	0	0	mbplot		3		GPL2821		NC_000913
20525336	WT (K10) 4.5 min post rif / WT (K10)	GSE4394	GSM90688	2	12		11		1	1	0	0	mbplot		4.5		GPL2821		NC_000913
20529956	WT (SH3208) 4.5 min post rif / WT (SH3208) 	GSE4394	GSM90695	2	12		11		1	1	0	0	mbplot		4.5		GPL2821		NC_000913
20534576	(RhlB- SU02) 4.5 min post rif / (RhlB- SU02)	GSE4394	GSM90696,GSM90737	2	12		11		1	1	0	0	mbplot		4.5		GPL2821		NC_000913
20539196	WT (N3433) 4.5 min post rif / WT (N3433)	GSE4394	GSM90704,GSM90743	2	12		11		1	1	0	0	mbplot		4.5		GPL2821		NC_000913
20543816	(Pnp- YHC012) 4.5 min post rif / (Pnp- YHC012)	GSE4394	GSM90713	2	12		11		1	1	0	0	mbplot		4.5		GPL2821		NC_000913
20548436	(Eno- DF261) 4.5 min post rif / (Eno- DF261)	GSE4394	GSM90725	2	12		11		1	1	0	0	mbplot		4.5		GPL2821		NC_000913
20553056	(N-RNaseE BZ453) 4.5 min post rif / (N-RNaseE BZ453)	GSE4394	GSM90730,GSM90736	2	12		11		1	1	0	0	mbplot		4.5		GPL2821		NC_000913
20557676	WT (SH3208) 6 min post rif / WT (SH3208) 	GSE4394	GSM90697,GSM90699	2	12		11		1	1	0	0	mbplot		6		GPL2821		NC_000913
20562296	(RhlB- SU02) 6 min post rif / (RhlB- SU02)	GSE4394	GSM90698,GSM90700,GSM90739	2	12		11		1	1	0	0	mbplot		6		GPL2821		NC_000913
20566916	WT (N3433) 6 min post rif / WT (N3433)	GSE4394	GSM90705,GSM90706,GSM90744,GSM90745	2	12		11		1	1	0	0	mbplot		6		GPL2821		NC_000913
20571536	(Pnp- YHC012) 6 min post rif / (Pnp- YHC012) 	GSE4394	GSM90714,GSM90717	2	12		11		1	1	0	0	mbplot		6		GPL2821		NC_000913
20576156	(N-RNaseE BZ453) 6 min post rif / (N-RNaseE BZ453)	GSE4394	GSM90715,GSM90716,GSM90732,GSM90734	2	12		11		1	1	0	0	mbplot		6		GPL2821		NC_000913
20580776	WT (K10) 6 min post rif / WT (K10)	GSE4394	GSM90718,GSM90719	2	12		11		1	1	0	0	mbplot		6		GPL2821		NC_000913
20585396	(Eno- DF261) 6 min post rif / (Eno- DF261)	GSE4394	GSM90727	2	12		11		1	1	0	0	mbplot		6		GPL2821		NC_000913
20590016	(N-RNaseE BZ453) in M9 + Glycerol + Tryptone / WT (SH3208)	GSE4394	GSM90668,GSM90674,GSM90681,GSM90682	2	12		11		1	1	0	0	mbplot				GPL2821		NC_000913
20594636	(Pnp- YHC012) in M9 + Glycerol + Tryptone / WT (SH3208)	GSE4394	GSM90669,GSM90683,GSM90684	2	12		11		1	1	0	0	mbplot				GPL2821		NC_000913
20599256	(Eno- DF261) in M9 + Glycerol + Tryptone / WT (SH3208)	GSE4394	GSM90670,GSM90673,GSM90675,GSM90676	2	12		11		1	1	0	0	mbplot				GPL2821		NC_000913
20603876	(RhlB- SU02) in M9 + Glycerol + Tryptone / WT (SH3208)	GSE4394	GSM90671,GSM90672,GSM90677,GSM90678,GSM90679,GSM90680	2	12		11		1	1	0	0	mbplot				GPL2821		NC_000913
20608496	WT Norfloxacin treated for 5 min / WT Nontreated at 0 min	GSE4408	GSM99380	2			1		0	0	0	0	mbplot		5		GPL1436		NC_000913
20612978	(recA-) Norfloxacin treated mutant for 5 min / (recA-) Nontreated mutant at 0 min	GSE4408	GSM99390	2			1		0	0	0	0	mbplot		5		GPL1436		NC_000913
20617460	(topA-) Norfloxacin treated mutant for 5 min / (topA-) Nontreated mutant at 0 min	GSE4408	GSM99394	2			1		0	0	0	0	mbplot		5		GPL1436		NC_000913
20621942	(dnaC) Norfloxacin treated mutant for 5 min / (dnaC) Nontreated mutant at 0 min	GSE4408	GSM99398	2			1		0	0	0	0	mbplot		5		GPL1436		NC_000913
20626424	WT Norfloxacin treated for 10 min / WT Nontreated at 0 min	GSE4408	GSM99384	2			1		0	0	0	0	mbplot		10		GPL1436		NC_000913
20630906	(recA-) Norfloxacin treated mutant for 10 min / (recA-) Nontreated mutant at 0 min	GSE4408	GSM99391	2			1		0	0	0	0	mbplot		10		GPL1436		NC_000913
20635388	(topA-) Norfloxacin treated mutant for 10 min / (topA-) Nontreated mutant at 0 min	GSE4408	GSM99395	2			1		0	0	0	0	mbplot		10		GPL1436		NC_000913
20639870	(dnaC) Norfloxacin treated mutant for 10 min / (dnaC) Nontreated mutant at 0 min	GSE4408	GSM99399	2			1		0	0	0	0	mbplot		10		GPL1436		NC_000913
20644352	WT Norfloxacin treated for 15 min / WT Nontreated at 0 min	GSE4408	GSM99386	2			1		0	0	0	0	mbplot		15		GPL1436		NC_000913
20648834	(recA-) Norfloxacin treated mutant for 15 min / (recA-) Nontreated mutant at 0 min	GSE4408	GSM99392	2			1		0	0	0	0	mbplot		15		GPL1436		NC_000913
20653316	(topA-) Norfloxacin treated mutant for 15 min / (topA-) Nontreated mutant at 0 min	GSE4408	GSM99396	2			1		0	0	0	0	mbplot		15		GPL1436		NC_000913
20657798	(dnaC) Norfloxacin treated mutant for 15 min / (dnaC) Nontreated mutant at 0 min	GSE4408	GSM99400	2			1		0	0	0	0	mbplot		15		GPL1436		NC_000913
20662280	WT Norfloxacin treated for 20 min / WT Nontreated at 0 min	GSE4408	GSM99389	2			1		0	0	0	0	mbplot		20		GPL1436		NC_000913
20666762	(recA-) Norfloxacin treated mutant for 20 min / (recA-) Nontreated mutant at 0 min	GSE4408	GSM99393	2			1		0	0	0	0	mbplot		20		GPL1436		NC_000913
20671244	(topA-) Norfloxacin treated mutant for 20 min / (topA-) Nontreated mutant at 0 min	GSE4408	GSM99397	2			1		0	0	0	0	mbplot		20		GPL1436		NC_000913
20675726	(dnaC) Norfloxacin treated mutant for 20 min / (dnaC) Nontreated mutant at 0 min	GSE4408	GSM99401	2			1		0	0	0	0	mbplot		20		GPL1436		NC_000913
30322316	Delta prfA / prfA wildtype	GSE4414	GSM99217,GSM99218,GSM99219,GSM99221,GSM99227,GSM99237,GSM99264,GSM99284,GSM99297,GSM99319,GSM99320,GSM99333,GSM99420,GSM99607,GSM99608,GSM99609,GSM99610,GSM99611	2			9		0	0	0	0	mbplot				GPL3517		
20680208	gyrB 2 min after upshift to 42 C / gyrB before upshift	GSE4417	GSM99636	2			1		0	0	0	0	mbplot		2		GPL3503		NC_000913
20684830	gyrB 5 min after upshift to 42 C / gyrB before upshift	GSE4417	GSM99637	2			1		0	0	0	0	mbplot		5		GPL3503		NC_000913
20689452	gyrB 10 min after upshift to 42 C / gyrB before upshift	GSE4417	GSM99638	2			1		0	0	0	0	mbplot		10		GPL3503		NC_000913
20694074	gyrB 20 min after upshift to 42 C / gyrB before upshift	GSE4417	GSM99639	2			1		0	0	0	0	mbplot		20		GPL3503		NC_000913
20698696	WT aerobic pH 5.0 / WT aerobic pH 7.0	GSE4511	GSM101230,GSM101231,GSM101232,GSM101233,GSM101234/GSM101235,GSM101236,GSM101237,GSM101238,GSM101239	1			1		1	1	0	0	mbplot				GPL199	NC_000913	NC_000913
20703299	WT aerobic pH 8.7 / WT aerobic pH 7.0	GSE4511	GSM101240,GSM101241,GSM101242,GSM101243,GSM101244/GSM101235,GSM101236,GSM101237,GSM101238,GSM101239	1			1		1	1	0	0	mbplot				GPL199	NC_000913	NC_000913
20707902	WT anaerobic pH 5.0 / WT anaerobic pH 7.0	GSE4556	GSM101766,GSM101767,GSM101768,GSM101769,GSM101770/GSM101771,GSM101772,GSM101773,GSM101774,GSM101775	1			1		1	1	0	0	mbplot				GPL199	NC_000913	NC_000913
20712505	WT anaerobic pH 8.5 / WT anaerobic pH 7.0	GSE4556	GSM101776,GSM101777,GSM101778,GSM101779,GSM101780/GSM101771,GSM101772,GSM101773,GSM101774,GSM101775	1			1		1	1	0	0	mbplot				GPL199	NC_000913	NC_000913
20717108	yceP LB glu 24 hr biofilm cells + 0.06% DMF / WT LB glu 24 hr biofilm cells 	GSE4562	GSM101941/GSM101943	1			1		1	1	0	0	mbplot				GPL199	NC_000913	NC_000913
20721711	LB glu 24 hr biofilm cells + 600uM indole / WT LB glu 24 hr biofilm cells	GSE4562	GSM101942,GSM122728/GSM101943	1			1		1	1	0	0	mbplot				GPL199	NC_000913	NC_000913
20726314	trpE LB glu 24 hr biofilm cells / WT LB glu 24 hr biofilm cells	GSE4562	GSM101944/GSM101943	1			1		1	1	0	0	mbplot				GPL199	NC_000913	NC_000913
20730917	WT LB 24 hr biofilm cells / WT LB glu 24 hr biofilm cells 	GSE4562	GSM101945/GSM101943	1			1		1	1	0	0	mbplot				GPL199	NC_000913	NC_000913
20735520	tnaA LB glu 24 hr biofilm cells / WT LB glu 24 hr biofilm cells	GSE4562	GSM101946/GSM101943	1			1		1	1	0	0	mbplot				GPL199	NC_000913	NC_000913
20740123	UV Irradiated 50h / Not irradiated	GSE4569	GSM102077,GSM102078,GSM102079	2	4	5	2	3	1	1	0	0	mbplot				GPL534		NC_000913
20744626	UV Irradiated 1h / Not irradiated	GSE4569	GSM102080,GSM102081,GSM102083	2	4	5	2	3	1	1	0	0	mbplot				GPL534		NC_000913
20749129	UV Irradiated 1h / Not irradiated: dye swap	GSE4569	GSM102082	2	2	3	4	5	1	1	0	0	mbplot				GPL534		NC_000913
9856750	S. Typhimurium relAspoT LB high salt low oxygen / genomic DNA	GSE4631	GSM102929,GSM102930,GSM103415,GSM103417	2	2		3		1	1	0	0	mbplot				GPL3586		
9873493	S. Typhimurium wild-type LB high salt low oxygen / genomic DNA	GSE4631	GSM103413,GSM103414,GSM103416,GSM103418	2	2		3		1	1	0	0	mbplot				GPL3586		
9869273	S. Typhimurium wild-type LB aerated / genomic DNA	GSE4631	GSM103442,GSM103443,GSM103444,GSM103445	2	2		3		1	1	0	0	mbplot				GPL3612		
9852530	S. Typhimurium relAspoT LB aerated / genomic DNA	GSE4631	GSM103446,GSM103447,GSM103448,GSM103449	2	2		3		1	1	0	0	mbplot				GPL3612		
9877576	S. Typhimurium wild-type LB low oxygen / genomic DNA	GSE4631	GSM103450,GSM103757,GSM103758,GSM103759	2	2		3		1	1	0	0	mbplot				GPL3612		
9860833	S. Typhimurium relAspoT LB low oxygen / genomic DNA	GSE4631	GSM103760,GSM103761,GSM103762,GSM103763	2	2		3		1	1	0	0	mbplot				GPL3612		
9865053	S. Typhimurium wild-type aerated LB high salt / genomic DNA	GSE4631	GSM103764,GSM103765,GSM103766,GSM103767	2	2		3		1	1	0	0	mbplot				GPL3612		
9848310	S. Typhimurium relAspoT aerated LB high salt / genomic DNA	GSE4631	GSM103768,GSM103769,GSM103770,GSM103771	2	2		3		1	1	0	0	mbplot				GPL3612		
20753632	continuous culture 40h / batch culture 40h	GSE4706	GSM106337,GSM106338,GSM106339	2	2		4		1	1	0	0	mbplot				GPL534		NC_000913
20758135	continuous culture 500h / batch culture 500h	GSE4706	GSM106340,GSM106341,GSM106342	2	2		4		1	1	0	0	mbplot				GPL534		NC_000913
20762638	WT + arginine(100 ug/ml) / WT in minimal medium	GSE4724	GSM106753,GSM106755,GSM106756/GSM106504,GSM106751,GSM106752	1			1		1	1	0	0	mbplot				GPL3154	NC_000913	NC_000913
20774874	argR + arginine(100 ug/ml) / WT in minimal medium	GSE4724	GSM106757,GSM106758,GSM106759/GSM106504,GSM106751,GSM106752	1			1		1	1	0	0	mbplot				GPL3154	NC_000913	NC_000913
20787110	Continuous culture no oxygen / 5 min exposure to oxygen	GSE4735	GSM106991	2			1		0	0	0	0	mbplot		5		GPL534		NC_000913
20791613	Continuous culture no oxygen / 10 min exposure to oxygen	GSE4735	GSM107053	2			1		0	0	0	0	mbplot		10		GPL534		NC_000913
20796116	Continuous culture no oxygen / 15 min exposure to oxygen	GSE4735	GSM107054	2			1		0	0	0	0	mbplot		15		GPL534		NC_000913
20800619	Continuous culture no oxygen / 60 min exposure to oxygen	GSE4735	GSM107055	2			1		0	0	0	0	mbplot		60		GPL534		NC_000913
20805122	WT at pH 5.5 for 1 min / WT at pH 7.6	GSE4778	GSM105397,GSM105398,GSM105399,GSM105400,GSM105401/GSM105392,GSM105393,GSM105394,GSM105395,GSM105396	1			1		1	1	0	0	mbplot		1		GPL199	NC_000913	NC_000913
20809725	WT at pH 5.5 for 5 min / WT at pH 7.6	GSE4778	GSM105402,GSM105403,GSM105404,GSM105405,GSM105406/GSM105392,GSM105393,GSM105394,GSM105395,GSM105396	1			1		1	1	0	0	mbplot		5		GPL199	NC_000913	NC_000913
20814328	WT at pH 5.5 for 10 min / WT at pH 7.6	GSE4778	GSM105407,GSM105408,GSM105409,GSM105410,GSM105411/GSM105392,GSM105393,GSM105394,GSM105395,GSM105396	1			1		1	1	0	0	mbplot		10		GPL199	NC_000913	NC_000913
6945480	wild-type Salmonella typhimurium / hns-mutant Salmonella typhimurium 14028s	GSE4931	GSM110532,GSM110533,GSM110534	2			2		1	0	0	0	mbplot				GPL1305		
6950547	hns mutant Salmonella typhimurium / wild type Salmonella typhimurium 14028s	GSE4931	GSM110535,GSM110536,GSM110537	2			2		1	0	0	0	mbplot				GPL1305		
6955614	wild-type Salmonella typhimurium / hns-mutant Salmonella typhimurium 14028s	GSE4931	GSM110590,GSM110591,GSM110592	2			2		1	0	0	0	mbplot				GPL1835		
6960682	hns mutant Salmonella typhimurium / wild type Salmonella typhimurium 14028s	GSE4931	GSM110593,GSM110594,GSM110595	2			2		1	0	0	0	mbplot				GPL1835		
6965750	wild-type Salmonella typhimurium / hns-mutant Salmonella typhimurium 14028s	GSE4931	GSM110596,GSM110597,GSM110598	2			2		1	0	0	0	mbplot				GPL1835		
6970818	hns mutant Salmonella typhimurium / wild type Salmonella typhimurium 14028s	GSE4931	GSM110599,GSM110600,GSM110601	2			2		1	0	0	0	mbplot				GPL1835		
6975886	wild-type Salmonella typhimurium / hns-mutant Salmonella typhimurium 14028s	GSE4931	GSM110602,GSM110603,GSM110604	2			2		1	0	0	0	mbplot				GPL1835		
6986022	hns mutant Salmonella typhimurium / wild type Salmonella typhimurium 14028s	GSE4931	GSM110605,GSM110606,GSM110607	2			2		1	0	0	0	mbplot				GPL1835		
20818931	exponential growth phase + IAA solution 0.5 mM / exponential growth phase	GSE4941	GSM111419,GSM111420,GSM111421,GSM111422,GSM111423,GSM111424/GSM111413,GSM111414,GSM111415,GSM111416,GSM111417,GSM111418	1			1		1	1	0	0	mbplot				GPL189	NC_000913	NC_000913
26942817	Streptococcus pneumoniae glnR KO / Streptococcus pneumoniae wild-type	GSE5088	GSM114798,GSM114801	2			1		0	0	0	0	mbplot				GPL3881		
26942649	Streptococcus pneumoniae wild-type / Streptococcus pneumoniae glnA KO	GSE5088	GSM114808,GSM114810	2			1		0	0	0	0	mbplot				GPL3882		
20823438	Aerobic wildtype 10 uM each NOC-5 and NOC-7 for 5 minutes / Continuous culture aerobic wildtype control	GSE5098	GSM114368,GSM114371	2	10	11	2	3	1	1	0	0	mbplot				GPL534		NC_000913
20827941	Aerobic wildtype 10 uM each NOC-5 and NOC-7 for 5 minutes / Continuous culture aerobic wildtype control (dye swap)	GSE5098	GSM114370,GSM114372	2	2	3	10	11	1	1	0	0	mbplot				GPL534		NC_000913
20832444	Anaerobic wildtype 10 uM each NOC-5 and NOC-7 for 5 minutes / Continuous culture anaerobic wildtype control	GSE5098	GSM114383,GSM114385	2	10	11	2	3	1	1	0	0	mbplot				GPL534		NC_000913
20836947	Anaerobic wildtype 10 uM each NOC-5 and NOC-7 for 5 minutes / Continuous culture anaerobic wildtype control (dye swap)	GSE5098	GSM114384,GSM114386	2	2	3	10	11	1	1	0	0	mbplot				GPL534		NC_000913
20841450	Anaerobic norR 10 uM each NOC-5 and NOC-7 for 5 minutes / Continuous culture anaerobic wild type 10 uM each NOC-5 and NOC-7 for 5 minutes	GSE5098	GSM114612,GSM114614	2	10	11	2	3	1	1	0	0	mbplot				GPL534		NC_000913
20845953	Anaerobic norR 10 uM each NOC-5 and NOC-7 for 5 minutes / Continuous culture anaerobic wild type 10 uM each NOC-5 and NOC-7 for 5 minutes (dye swap)	GSE5098	GSM114613,GSM114615	2	2	3	10	11	1	1	0	0	mbplot				GPL534		NC_000913
20850456	Aerobic norR 10 uM each NOC-5 and NOC-7 for 5 minutes / Continuous culture aerobic wild type 10 uM each NOC-5 and NOC-7 for 5 minutes	GSE5098	GSM116024,GSM116026	2	10	11	2	3	1	1	0	0	mbplot				GPL534		NC_000913
20854959	Aerobic norR 10 uM each NOC-5 and NOC-7 for 5 minutes / Continuous culture aerobic wild type 10 uM each NOC-5 and NOC-7 for 5 minutes (dye swap)	GSE5098	GSM116025,GSM116027	2	2	3	10	13	1	1	0	0	mbplot				GPL534		NC_000913
20859462	Aerobic hmp 10 uM each NOC-5 and NOC-7 for 5 minutes / Continuous culture aerobic wild type 10 uM each NOC-5 and NOC-7 for 5 minutes	GSE5098	GSM116028,GSM116030	2	10	11	2	3	1	1	0	0	mbplot				GPL534		NC_000913
20863965	Aerobic hmp 10 uM each NOC-5 and NOC-7 for 5 minutes / Continuous culture aerobic wild type 10 uM each NOC-5 and NOC-7 for 5 minutes (dye swap)	GSE5098	GSM116029,GSM116031	2	2	3	10	11	1	1	0	0	mbplot				GPL534		NC_000913
20868468	cueO + Fe(II) / WT + Fe(II)	GSE5177	GSM116749,GSM116750,GSM116751	2	1		5		1	1	0	0	mbplot				GPL1246		NC_000913
26875294	Pooled Exponential phase CsCl2 total RNA from M3 serotype GAS MGAS315 / Pooled Stationary phase CsCl2 total RNA from M3 serotype GAS MGAS315	GSE5179	GSM116767,GSM116768,GSM116771,GSM116772,GSM116775,GSM116777/GSM116769,GSM116770,GSM116773,GSM116774,GSM116778,GSM116779	1			4		1	1	0	0	maplot				GPL1482		
11641085	Total cDNA strain 14-4 / Total cDNA strain 14-4Rev	GSE5188	GSM116873,GSM116874/GSM116871,GSM116872	1			2		1	1	0	0	maplot				GPL3931		
11607579	Total cDNA strain 14-4 / Total cDNA strain MRGR3	GSE5188	GSM116873,GSM116874/GSM116875,GSM116876	1			2		1	1	0	0	maplot				GPL3931		
11650286	Total cDNA strain MRGR3 / Total cDNA strain 14-4Rev	GSE5188	GSM116875,GSM116876/GSM116871,GSM116872	1			2		1	1	0	0	maplot				GPL3931		
20878251	BL21 (pOri1) (mu=0.39) / BL21 (mu=0.46)	GSE5239	GSM118604,GSM118605,GSM118606,GSM118607/GSM118600,GSM118601,GSM118602,GSM118603	1			1		1	1	0	0	mbplot				GPL199	NC_000913	NC_000913
20882854	BL21 (pOri2) (mu=0.29) / BL21 (mu=0.46)	GSE5239	GSM118608,GSM118609,GSM118610,GSM118611/GSM118600,GSM118601,GSM118602,GSM118603	1			1		1	1	0	0	mbplot				GPL199	NC_000913	NC_000913
20887457	BL21 (pOri1) (mu=0.20) / BL21 (mu=0.20)	GSE5239	GSM118616,GSM118617,GSM118618,GSM118619/GSM118612,GSM118613,GSM118614,GSM118615	1			1		1	1	0	0	mbplot				GPL199	NC_000913	NC_000913
20892060	BL21 (pOri2) (mu=0.20) / BL21 (mu=0.20)	GSE5239	GSM118620,GSM118621,GSM118622,GSM118623/GSM118612,GSM118613,GSM118614,GSM118615	1			1		1	1	0	0	mbplot				GPL199	NC_000913	NC_000913
20896663	TPEN treated / untreated	GSE5356	GSM120166,GSM120192,GSM120193	2			1		0	0	0	0	mbplot				GPL3995		NC_000913
20901138	TPEN treated / untreated; dye swap	GSE5356	GSM120194,GSM120196,GSM120197	2			1		0	0	0	0	mbplot				GPL3995		NC_000913
12122576	Staphylococcus strain UAMS-155(agr mutant), exponential phase cells / Staphylococcus strain UAMS-155(agr mutant), post-exponential phase cells	GSE5466	GSM125258,GSM125259/GSM125260,GSM125261	1			1		1	1	0	0	mbplot				GPL4047		
12137104	Staphylococcus strain UAMS-155(agr mutant), exponential phase cells / Staphylococcus strain UAMS-929(sarA mutant), exponential phase cells	GSE5466	GSM125258,GSM125259/GSM125266,GSM125267	1			1		1	1	0	0	mbplot				GPL4047		
12129275	Staphylococcus strain UAMS-155(agr mutant), exponential phase cells / Staphylococcus strain UAMS-1, exponential phase cells	GSE5466	GSM125258,GSM125259/GSM125270,GSM125271	1			1		1	1	0	0	mbplot				GPL4047		
12162090	Staphylococcus strain UAMS-155(agr mutant), post-exponential phase cells / Staphylococcus strain UAMS-929(sarA mutant), post-exponential phase cells	GSE5466	GSM125260,GSM125261/GSM125268,GSM125269	1			1		1	1	0	0	mbplot				GPL4047		
12146842	Staphylococcus strain UAMS-155(agr mutant), post-exponential phase cells / Staphylococcus strain UAMS-1, post-exponential phase cells	GSE5466	GSM125260,GSM125261/GSM125272,GSM125273	1			1		1	1	0	0	mbplot				GPL4047		
12072657	Staphylococcus strain RN6390, exponential phase cells / Staphylococcus strain UAMS-155, exponential phase cells	GSE5466	GSM125262,GSM125263/GSM125258,GSM125259	1			1		1	1	0	0	mbplot				GPL4047		
12065562	Staphylococcus strain RN6390, exponential phase cells / Staphylococcus strain RN6390, post-exponential phase cells	GSE5466	GSM125262,GSM125263/GSM125264,GSM125265	1			1		1	1	0	0	mbplot				GPL4047		
12093077	Staphylococcus strain RN6390, exponential phase cells / Staphylococcus strain UAMS-929(sarA mutant), exponential phase cells	GSE5466	GSM125262,GSM125263/GSM125266,GSM125267	1			1		1	1	0	0	mbplot				GPL4047		
12080183	Staphylococcus strain RN6390, exponential phase cells / Staphylococcus strain UAMS-1, exponential phase cells	GSE5466	GSM125262,GSM125263/GSM125270,GSM125271	1			1		1	1	0	0	mbplot				GPL4047		
12101184	Staphylococcus strain RN6390, post-exponential phase cells / Staphylococcus strain UAMS-155(agr), post-exponential phase cells	GSE5466	GSM125264,GSM125265/GSM125260,GSM125261	1			1		1	1	0	0	mbplot				GPL4047		
12115831	Staphylococcus strain RN6390, post-exponential phase cells / Staphylococcus strain UAMS-929(sarA), post-exponential phase cells	GSE5466	GSM125264,GSM125265/GSM125268,GSM125269	1			1		1	1	0	0	mbplot				GPL4047		
12109239	Staphylococcus strain RN6390, post-exponential phase cells / Staphylococcus strain UAMS-1, post-exponential phase cells	GSE5466	GSM125264,GSM125265/GSM125272,GSM125273	1			1		1	1	0	0	mbplot				GPL4047		
12169126	Staphylococcus strain UAMS-1, exponential phase cells / Staphylococcus strain UAMS-1, post-exponential phase cells	GSE5466	GSM125270,GSM125271/GSM125272,GSM125273	1			1		1	1	0	0	mbplot				GPL4047		
12179305	Staphylococcus strain UAMS-1, post-exponential phase cells / Staphylococcus strain UAMS-929(sarA mutant), post-exponential phase cells	GSE5466	GSM125272,GSM125273/GSM125268,GSM125269	1			1		1	1	0	0	mbplot				GPL4047		
20905613	WT biofilm epinephrine (50uM) / WT biofilm	GSE5552	GSM129074/GSM129073	1			1		1	1	0	0	mbplot				GPL3154	NC_002655	NC_002655
20914836	WT biofilm norepinephrine (50uM) / WT biofilm	GSE5552	GSM129075/GSM129073	1			1		1	1	0	0	mbplot				GPL3154	NC_002655	NC_002655
20924059	WT biofilm indole (500uM) / WT biofilm	GSE5552	GSM129076/GSM129073	1			1		1	1	0	0	mbplot				GPL3154	NC_002655	NC_002655
8405792	M. tuberculosis culture furB mutant;/M. tuberculosis culture H37Rv	GSE5815	GSM135563,GSM135570,GSM135571,GSM135574,GSM135578,GSM135584	2			1		0	0	0	0	mbplot				GPL4057		
20933282	FliA / WT on MOPS glucose	GSE5818	GSM135793,GSM135794,GSM135795/GSM135466,GSM135791,GSM135792	1			1		1	1	0	0	maplot				GPL199	NC_000913	NC_000913
20937885	flhDC / WT on MOPS glucose	GSE5818	GSM135796,GSM135797,GSM135798/GSM135466,GSM135791,GSM135792	1			1		1	1	0	0	maplot				GPL199	NC_000913	NC_000913
20942488	FliA overexpression / empty pTet32 control	GSE5818	GSM135802,GSM135803,GSM135804/GSM135799,GSM135800,GSM135801	1			1		1	1	0	0	maplot				GPL199	NC_000913	NC_000913
20947091	ycfR LB glu biofilm culture for 15h / WT LB glu biofilm culture for 15h	GSE5904	GSM137283/GSM137282	1			3		1	1	0	0	mbplot				GPL199	NC_000913	NC_000913
20951694	WT + (HoxEFUYH [hydrogenase] ) / WT	GSE5905	GSM129631/GSM129630	1			3		1	1	0	0	mbplot				GPL199	NC_000913	NC_000913
29714906	total RNA, 1021Delta /  total RNA, WT	GSE5971	GSM138634,GSM138636,GSM138637,GSM138638	2			10		0	0	0	0	mbplot				GPL3476		
8511471	M. tuberculosis H37Rv, stationary phase, OD	GSE5977	GSM138639	2			1		0	0	0	0	mbplot				GPL4369		
8516179	M. tuberculosis H37Rv, late-log / M. tuberculosis H37Rv, mid-log, OD	GSE5977	GSM139020,GSM139033,GSM139034,GSM139035	2			1		0	0	0	0	mbplot				GPL4388		
20956297	Overproduced Rsd / control: OD 0.4	GSE5981	GSM138662,GSM138663	2	4		1		1	1	0	0	maplot				GPL4374		NC_000913
20965921	Overproduced Rsd / control: OD 0.9	GSE5981	GSM138664,GSM138665	2	4		1		1	1	0	0	maplot				GPL4374		NC_000913
20975545	Overproduced Rsd / control: OD 1.1	GSE5981	GSM138666,GSM138667	2	4		1		1	1	0	0	maplot				GPL4374		NC_000913
20985169	Overproduced Rsd / control: Stationary phase	GSE5981	GSM138668,GSM138669	2	4		1		1	1	0	0	maplot				GPL4374		NC_000913
26158214	CcpA mutant of L.monocytogenes EGDe / Wild type L.monocytogenes EGDe	GSE6028	GSM139788,GSM139826,GSM139829,GSM139830,GSM139846,GSM139847	2			7		0	0	0	0	mbplot				GPL4418		
26161061	Hpr KP mutant of L.monocytogenes EGDe / Wild type L.monocytogenes EGDe	GSE6028	GSM139977,GSM139979,GSM139981,GSM139982	2			7		0	0	0	0	mbplot				GPL4418		
26134449	delta 688 / EGDe wild-type	GSE6032	GSM140040,GSM140041	2			1		0	0	0	0	mbplot				GPL3074		
26944862	D39 rr09 mutant / D39 wild-type at OD 0.1	GSE6137	GSM152117,GSM152232,GSM152233,GSM152234	2			7		0	0	0	0	mbplot				GPL4681		
26945019	D39 rr09 mutant / D39 wild-type at OD 0.2	GSE6137	GSM152235,GSM152236,GSM152237	2			7		0	0	0	0	mbplot				GPL4681		
26945176	TIGR4 rr09 mutant / TIGR4 wild-type at OD 0.1	GSE6137	GSM152238,GSM152239,GSM152240	2			7		0	0	0	0	mbplot				GPL4681		
26945333	TIGR4 rr09 mutant / TIGR4 wild-type at OD 0.2	GSE6137	GSM152241,GSM152242,GSM152243	2			7		0	0	0	0	mbplot				GPL4681		
20994793	biofilm cells / suspension cells	GSE6195	GSM143159/GSM143158	1			1		1	1	0	0	mbplot				GPL3154	NC_002655	NC_002655
21004016	7-hydroxindole (1mM) biofilm cells / suspension cells	GSE6195	GSM143160/GSM143158	1			1		1	1	0	0	mbplot				GPL3154	NC_002655	NC_002655
21013239	isatin (250uM) biofilm cells / suspension cells	GSE6195	GSM143161/GSM143158	1			1		1	1	0	0	mbplot				GPL3154	NC_002655	NC_002655
26246350	Total RNA from wildtype bacteria  treated  with Cipro for 120 min labeled with Cyanine-3 (green)/ Total RNA from lexA mutant bacteria  treated  with Cipro for 30 min labeled with Cyanine-5 (red).	GSE6258	GSM143514,GSM143527,GSM143528	2			1		0	0	0	0	mbplot				GPL4324		
26254916	Total RNA from wild type bacteria at 0hr with Cipro labeled with Cyanine-3 (green). / Total RNA from cells treated  with Cipro for 30 min labeled with Cyanine-5 (red).	GSE6258	GSM143529,GSM143531,GSM143534,GSM143536,GSM143537,GSM143538	2			1		0	0	0	0	mbplot				GPL4324		
26250633	Total RNA from wild type bacteria at 0hr with Cipro labeled with Cyanine-3 (green). / Total RNA from cells treated  with Cipro for 120 min labeled with Cyanine-5 (red).	GSE6258	GSM143530,GSM143532,GSM143533,GSM143535	2			1		0	0	0	0	mbplot				GPL4324		
21022462	TUV93-0 DMEM / TUV93-0 MEM-HEPES	GSE6296	GSM144698,GSM144699,GSM144700	2	1		5		1	1	0	0	mbplot				GPL3051		NC_002655
26163954	Listeria monocytogenes sigB null mutant / Listeria monocytogenes 10403s	GSE6421	GSM148005	2			1		0	0	0	0	mbplot				GPL4604		
26163931	Listeria monocytogenes prfA null mutant / Listeria monocytogenes 10403S	GSE6421	GSM148025	2			1		0	0	0	0	mbplot				GPL4604		
26163908	Listeria monocytogenes prfA null mutant / Listeria monocytogenes PrfA* strain	GSE6421	GSM148033	2			1		0	0	0	0	mbplot				GPL4604		
26163977	Listeria monocytogenes sigBprfA double mutant / Listeria monocytogenes 10403S	GSE6421	GSM148040	2			1		0	0	0	0	mbplot				GPL4604		
21028814	WT anaerobic LB 3h / WT anaerobic LB 2h30	GSE6425	GSM148107,GSM148108/GSM148105,GSM148106	1			1		1	1	0	0	mbplot		180		GPL199	NC_000913	NC_000913
21033417	UTI89 anaerobic LB 3h / UTI89 anaerobic LB 2h30	GSE6425	GSM148117,GSM148118/GSM148115,GSM148116	1			1		1	1	0	0	mbplot		180		GPL199	NC_000913	NC_000913
21038020	UTI89 anaerobic LB 3h30 / UTI89 anaerobic LB 2h30	GSE6425	GSM148119,GSM148120/GSM148115,GSM148116	1			1		1	1	0	0	mbplot		210		GPL199	NC_000913	NC_000913
21042623	WT anaerobic LB 3h45 / WT anaerobic LB 2h30	GSE6425	GSM148109,GSM148110/GSM148105,GSM148106	1			1		1	1	0	0	mbplot		225		GPL199	NC_000913	NC_000913
21047226	UTI89 anaerobic LB 4h / UTI89 anaerobic LB 2h30	GSE6425	GSM148121,GSM148122/GSM148115,GSM148116	1			1		1	1	0	0	mbplot		240		GPL199	NC_000913	NC_000913
21051829	WT anaerobic LB 4h30 / WT anaerobic LB 2h30	GSE6425	GSM148111,GSM148112/GSM148105,GSM148106	1			1		1	1	0	0	mbplot		270		GPL199	NC_000913	NC_000913
21056432	WT aerobic LB 5h / WT aerobic LB 2h30	GSE6425	GSM148083,GSM148084/GSM148081,GSM148082	1			1		1	1	0	0	mbplot		300		GPL199	NC_000913	NC_000913
21061035	UTI89 aerobic LB 5h / UTI89 aerobic LB 2h30	GSE6425	GSM148095,GSM148096/GSM148093,GSM148094	1			1		1	1	0	0	mbplot		300		GPL199	NC_000913	NC_000913
21065638	UTI89 anaerobic LB 6h / UTI89 anaerobic LB 2h30	GSE6425	GSM148123,GSM148124/GSM148115,GSM148116	1			1		1	1	0	0	mbplot		360		GPL199	NC_000913	NC_000913
21070241	WT anaerobic LB 6h45 / WT anaerobic LB 2h30	GSE6425	GSM148113,GSM148114/GSM148105,GSM148106	1			1		1	1	0	0	mbplot		405		GPL199	NC_000913	NC_000913
21074844	WT aerobic LB 8h / WT aerobic LB 2h30	GSE6425	GSM148085,GSM148086/GSM148081,GSM148082	1			1		1	1	0	0	mbplot		480		GPL199	NC_000913	NC_000913
21079447	WT aerobic LB 12h / WT aerobic LB 2h30	GSE6425	GSM148087,GSM148088/GSM148081,GSM148082	1			1		1	1	0	0	mbplot		720		GPL199	NC_000913	NC_000913
21084050	UTI89 aerobic LB 12h / UTI89 aerobic LB 2h30	GSE6425	GSM148099,GSM148100/GSM148093,GSM148094	1			1		1	1	0	0	mbplot		720		GPL199	NC_000913	NC_000913
21088653	WT aerobic LB 18h / WT aerobic LB 2h30	GSE6425	GSM148089,GSM148090/GSM148081,GSM148082	1			1		1	1	0	0	mbplot		1080		GPL199	NC_000913	NC_000913
21093256	UTI89 aerobic LB 8h / UTI89 aerobic LB 2h30	GSE6425	GSM148097,GSM148098/GSM148093,GSM148094	1			1		1	1	0	0	mbplot		1080		GPL199	NC_000913	NC_000913
21097859	UTI89 aerobic LB 19h30 / UTI89 aerobic LB 2h30	GSE6425	GSM148101,GSM148102/GSM148093,GSM148094	1			1		1	1	0	0	mbplot		1170		GPL199	NC_000913	NC_000913
21102462	WT aerobic LB 26h / WT aerobic LB 2h30	GSE6425	GSM148091,GSM148092/GSM148081,GSM148082	1			1		1	1	0	0	mbplot		1560		GPL199	NC_000913	NC_000913
21107065	UTI89 aerobic LB 26h / UTI89 aerobic LB 2h30	GSE6425	GSM148103,GSM148104/GSM148093,GSM148094	1			1		1	1	0	0	mbplot		1560		GPL199	NC_000913	NC_000913
21111668	UTI89 gnotobiotic cecum 14 day post-inoculation / MG1655 gnotobiotic cecum 14 day post-inoculation	GSE6426	GSM148130,GSM148131,GSM148132,GSM148133,GSM148134/GSM148125,GSM148126,GSM148127,GSM148128,GSM148129	1			1		1	1	0	0	mbplot				GPL199	NC_000913	NC_000913
21116271	rseA / WT (Exp 1)	GSE6444	GSM147976,GSM147981,GSM147983	2	34		35		1	1	0	0	mbplot				GPL2928		NC_000913
21120778	rseA / WT (Exp 2)	GSE6444	GSM147985,GSM147986	2	34		35		1	1	0	0	mbplot				GPL3500		NC_000913
21125285	rseA / WT (Exp 3)	GSE6444	GSM147988,GSM147989	2	34		35		1	1	0	0	mbplot				GPL4620		NC_000913
21129785	hfq / WT (Exp 1)	GSE6444	GSM147990,GSM147991,GSM147992,GSM147993	2	34		35		1	1	0	0	mbplot				GPL3500		NC_000913
21134292	hfq / WT (Exp 2)	GSE6444	GSM147994,GSM147995,GSM147996,GSM147997	2	34		35		1	1	0	0	mbplot				GPL4620		NC_000913
21138792	rpoE overexpression 20 min / WT	GSE6444	GSM147998,GSM147999,GSM148000,GSM148001,GSM148002,GSM148003	2	34		35		1	1	0	0	mbplot				GPL3500		NC_000913
30283406		GSE6471	GSM148839	2			1		0	0	0	0	mbplot				GPL4604		
21143299	Day 1 anaerobic WT / reference	GSE6609	GSM153297,GSM153299,GSM153301	2			2		0	0	0	0	mbplot				GPL4698		NC_000913
21147673	Day 3 aerobic lon / reference	GSE6609	GSM153298,GSM153300,GSM153302	2			2		0	0	0	0	mbplot				GPL4698		NC_000913
21152047	Day 1 anaerobic lon / reference	GSE6609	GSM153303,GSM153305,GSM153307	2			2		0	0	0	0	mbplot				GPL4698		NC_000913
21156421	Day 3 aerobic WT / reference	GSE6609	GSM153304,GSM153306,GSM153308	2			2		0	0	0	0	mbplot				GPL4698		NC_000913
21160795	Day 1 aerobic WT / reference	GSE6609	GSM153309,GSM153311,GSM153313	2			2		0	0	0	0	mbplot				GPL4698		NC_000913
21165169	Day 3 anaerobic lon / reference	GSE6609	GSM153310,GSM153312,GSM153314	2			2		0	0	0	0	mbplot				GPL4698		NC_000913
21169543	Day 1 aerobic lon / reference	GSE6609	GSM153315,GSM153317,GSM153319	2			2		0	0	0	0	mbplot				GPL4698		NC_000913
21173917	Day 3 anaerobic WT / reference	GSE6609	GSM153316,GSM153318,GSM153320	2			2		0	0	0	0	mbplot				GPL4698		NC_000913
21178291	5 min oxygen depletion / control with oxygen	GSE6644	GSM153973	2			1		0	0	0	0	mbplot		5		GPL534		NC_000913
21182794	10 min oxygen depletion / control with oxygen	GSE6644	GSM153983	2			1		0	0	0	0	mbplot		10		GPL534		NC_000913
21187297	15 min oxygen depletion / control with oxygen	GSE6644	GSM153988	2			1		0	0	0	0	mbplot		15		GPL534		NC_000913
2436071	60 min oxygen depletion / control with oxygen	GSE6644	GSM153990	2			1		0	0	0	0	mbplot		60		GPL534		NC_000913
21191800	Benzalkonium chloride adapted strain / control	GSE6712	GSM154805,GSM154806,GSM154807,GSM154808,GSM154809,GSM154810,GSM154812,GSM154813/GSM153894,GSM154801,GSM154802,GSM154803,GSM154804	1			1		1	0	0	0	mbplot				GPL189	NC_000913	NC_000913
21196307	Adapted strain with 50 ppm benzalkonium chloride / control	GSE6712	GSM154814,GSM154816,GSM154818,GSM154819,GSM154820,GSM154821,GSM154823,GSM154824,GSM154825/GSM153894,GSM154801,GSM154802,GSM154803,GSM154804	1			1		1	0	0	0	mbplot				GPL189	NC_000913	NC_000913
26829639	Biofilm of S. mutans / S. mutans planktoniccaly grown cells	GSE6744	GSM155271,GSM155272,GSM155273	2			1		0	0	0	0	mbplot				GPL4745		
8532611	H37Rv treated with SDS / H37Rv control	GSE6750	GSM155424,GSM155425,GSM155426,GSM155427,GSM155428,GSM155429	2			1		0	0	0	0	mbplot				GPL4057		
8528703	Mpr mutant control / H37Rv control	GSE6750	GSM155430,GSM155431,GSM155432,GSM155433,GSM155434,GSM155435	2			1		0	0	0	0	mbplot				GPL4057		
8520887	Mpr mutant treated with SDS / Mpr mutant control Rv981	GSE6750	GSM155436,GSM155437,GSM155438,GSM155439,GSM155440,GSM155441	2			1		0	0	0	0	mbplot				GPL4057		
8524795	H37Rv treated with SDS / Mpr mutant treated with SDS	GSE6750	GSM155442,GSM155443,GSM155444,GSM155445,GSM155446,GSM155447	2			1		0	0	0	0	mbplot				GPL4057		
21200814	NsrR- phenocopy + TMA + NO2 / control	GSE6781	GSM156729,GSM156732,GSM156733,GSM156734	2	1	3	5	7	1	1	0	0	mbplot				GPL3051		NC_000913
21210735	NsrR- phenocopy / control	GSE6781	GSM156737,GSM156738,GSM156741,GSM156743	2	1	3	5	7	1	1	0	0	mbplot				GPL3051		NC_000913
21220656	NsrR+ TMA and NO2 / control	GSE6781	GSM156745,GSM156746,GSM156747,GSM156748	2	1	3	5	7	1	1	0	0	mbplot				GPL3051		NC_000913
21230577	(dinI+) 0.025ug/ml norfloxacin / WT 0.025ug/ml norfloxacin	GSE6836	GSM157409,GSM157410,GSM157411/GSM157579,GSM157580	1			1		1	1	0	0	mbplot				GPL199	NC_000913	NC_000913
21235180	(dinP+) 0.025ug/ml norfloxacin / WT 0.025ug/ml norfloxacin	GSE6836	GSM157412,GSM157413,GSM157414/GSM157579,GSM157580	1			1		1	1	0	0	mbplot				GPL199	NC_000913	NC_000913
21239783	(lexA+) 0.025ug/ml norfloxacin / WT 0.025ug/ml norfloxacin	GSE6836	GSM157415,GSM157416,GSM157417/GSM157579,GSM157580	1			1		1	1	0	0	mbplot				GPL199	NC_000913	NC_000913
21244386	(lon+) 0.025ug/ml norfloxacin / WT 0.025ug/ml norfloxacin	GSE6836	GSM157418,GSM157419,GSM157420/GSM157579,GSM157580	1			1		1	1	0	0	mbplot				GPL199	NC_000913	NC_000913
21248989	(luc+) 0.025ug/ml norfloxacin / (luc+) without norfloxacin	GSE6836	GSM157421,GSM157422,GSM157423/GSM157454,GSM157455,GSM157456	1			1		1	1	0	0	mbplot				GPL199	NC_000913	NC_000913
21253592	(luc+) 0.025ug/ml norfloxacin / WT 0.025ug/ml norfloxacin	GSE6836	GSM157421,GSM157422,GSM157423/GSM157579,GSM157580	1			1		1	1	0	0	mbplot				GPL199	NC_000913	NC_000913
21258195	(mazF+) 0.025ug/ml norfloxacin / WT 0.025ug/ml norfloxacin	GSE6836	GSM157424,GSM157425,GSM157426/GSM157579,GSM157580	1			1		1	1	0	0	mbplot				GPL199	NC_000913	NC_000913
21262798	(recA+) 0.025ug/ml norfloxacin / WT 0.025ug/ml norfloxacin	GSE6836	GSM157427,GSM157428,GSM157429/GSM157579,GSM157580	1			1		1	1	0	0	mbplot				GPL199	NC_000913	NC_000913
21267401	(relE+) 0.025ug/ml norfloxacin / WT 0.025ug/ml norfloxacin	GSE6836	GSM157430,GSM157431,GSM157432/GSM157579,GSM157580	1			1		1	1	0	0	mbplot				GPL199	NC_000913	NC_000913
21272004	(ruvA+) 0.025ug/ml norfloxacin / WT 0.025ug/ml norfloxacin	GSE6836	GSM157433,GSM157434,GSM157435/GSM157579,GSM157580	1			1		1	1	0	0	mbplot				GPL199	NC_000913	NC_000913
21276607	(sulA+) 0.025ug/ml norfloxacin / WT 0.025ug/ml norfloxacin	GSE6836	GSM157436,GSM157437,GSM157438/GSM157579,GSM157580	1			1		1	1	0	0	mbplot				GPL199	NC_000913	NC_000913
21281210	(umuD+) 0.025ug/ml norfloxacin / WT 0.025ug/ml norfloxacin	GSE6836	GSM157439,GSM157440,GSM157441/GSM157579,GSM157580	1			1		1	1	0	0	mbplot				GPL199	NC_000913	NC_000913
21285813	(uvrA+) 0.025ug/ml norfloxacin / WT 0.025ug/ml norfloxacin	GSE6836	GSM157442,GSM157443,GSM157444/GSM157579,GSM157580	1			1		1	1	0	0	mbplot				GPL199	NC_000913	NC_000913
21290416	(yebF+) 0.075ug/ml norfloxacin / WT 0.075ug/ml norfloxacin	GSE6836	GSM157445,GSM157446,GSM157447/GSM157583,GSM157584	1			1		1	1	0	0	mbplot				GPL199	NC_000913	NC_000913
21295019	(luc+) 0.075ug/ml norfloxacin / (luc+) without norfloxacin	GSE6836	GSM157448,GSM157449,GSM157450/GSM157454,GSM157455,GSM157456	1			1		1	1	0	0	mbplot				GPL199	NC_000913	NC_000913
21299622	(zipA+) 0.075ug/ml norfloxacin / WT 0.075ug/ml norfloxacin	GSE6836	GSM157451,GSM157452,GSM157453/GSM157583,GSM157584	1			1		1	1	0	0	mbplot				GPL199	NC_000913	NC_000913
21304225	(yfjF+) 0.075ug/ml norfloxacin / WT 0.075ug/ml norfloxacin	GSE6836	GSM157457,GSM157458,GSM157459/GSM157583,GSM157584	1			1		1	1	0	0	mbplot				GPL199	NC_000913	NC_000913
21308828	(bcp+) 0.075ug/ml norfloxacin / WT 0.075ug/ml norfloxacin	GSE6836	GSM157460,GSM157461,GSM157462/GSM157583,GSM157584	1			1		1	1	0	0	mbplot				GPL199	NC_000913	NC_000913
21313431	(cpxR+) 0.075ug/ml norfloxacin / WT 0.075ug/ml norfloxacin	GSE6836	GSM157463,GSM157464,GSM157465/GSM157583,GSM157584	1			1		1	1	0	0	mbplot				GPL199	NC_000913	NC_000913
21318034	(crcB+) 0.075ug/ml norfloxacin / WT 0.075ug/ml norfloxacin	GSE6836	GSM157466,GSM157467,GSM157468/GSM157583,GSM157584	1			1		1	1	0	0	mbplot				GPL199	NC_000913	NC_000913
21322637	(crp+) 0.075ug/ml norfloxacin / WT 0.075ug/ml norfloxacin	GSE6836	GSM157469,GSM157470,GSM157471/GSM157583,GSM157584	1			1		1	1	0	0	mbplot				GPL199	NC_000913	NC_000913
21327240	(cspF+) 0.075ug/ml norfloxacin / WT 0.075ug/ml norfloxacin	GSE6836	GSM157472,GSM157473,GSM157474/GSM157583,GSM157584	1			1		1	1	0	0	mbplot				GPL199	NC_000913	NC_000913
21331843	(dam+) 0.075ug/ml norfloxacin / WT 0.075ug/ml norfloxacin	GSE6836	GSM157475,GSM157476,GSM157477/GSM157583,GSM157584	1			1		1	1	0	0	mbplot				GPL199	NC_000913	NC_000913
21336446	(dnaA+) 0.075ug/ml norfloxacin / WT 0.075ug/ml norfloxacin	GSE6836	GSM157478,GSM157479,GSM157480/GSM157583,GSM157584	1			1		1	1	0	0	mbplot				GPL199	NC_000913	NC_000913
21341049	(dnaN+) 0.075ug/ml norfloxacin / WT 0.075ug/ml norfloxacin	GSE6836	GSM157481,GSM157482,GSM157483/GSM157583,GSM157584	1			1		1	1	0	0	mbplot				GPL199	NC_000913	NC_000913
21345652	(dnaT+) 0.075ug/ml norfloxacin / WT 0.075ug/ml norfloxacin	GSE6836	GSM157484,GSM157485,GSM157486/GSM157583,GSM157584	1			1		1	1	0	0	mbplot				GPL199	NC_000913	NC_000913
21350255	(emrR+) 0.075ug/ml norfloxacin / WT 0.075ug/ml norfloxacin	GSE6836	GSM157487,GSM157488/GSM157583,GSM157584	1			1		1	1	0	0	mbplot				GPL199	NC_000913	NC_000913
21354858	(era+) 0.075ug/ml norfloxacin / WT 0.075ug/ml norfloxacin	GSE6836	GSM157489,GSM157490,GSM157491/GSM157583,GSM157584	1			1		1	1	0	0	mbplot				GPL199	NC_000913	NC_000913
21359461	(fis+) 0.075ug/ml norfloxacin / WT 0.075ug/ml norfloxacin	GSE6836	GSM157492,GSM157493,GSM157494/GSM157583,GSM157584	1			1		1	1	0	0	mbplot				GPL199	NC_000913	NC_000913
21364064	(fklB+) 0.075ug/ml norfloxacin / WT 0.075ug/ml norfloxacin	GSE6836	GSM157495,GSM157496,GSM157497/GSM157583,GSM157584	1			1		1	1	0	0	mbplot				GPL199	NC_000913	NC_000913
21368667	(folA+) 0.075ug/ml norfloxacin / WT 0.075ug/ml norfloxacin	GSE6836	GSM157498,GSM157499,GSM157500/GSM157583,GSM157584	1			1		1	1	0	0	mbplot				GPL199	NC_000913	NC_000913
21373270	(galF+) 0.075ug/ml norfloxacin / WT 0.075ug/ml norfloxacin	GSE6836	GSM157501,GSM157502,GSM157503/GSM157583,GSM157584	1			1		1	1	0	0	mbplot				GPL199	NC_000913	NC_000913
21377873	(gcvR+) 0.075ug/ml norfloxacin / WT 0.075ug/ml norfloxacin	GSE6836	GSM157504,GSM157505,GSM157506/GSM157583,GSM157584	1			1		1	1	0	0	mbplot				GPL199	NC_000913	NC_000913
21382476	(gyrA+) 0.075ug/ml norfloxacin / WT 0.075ug/ml norfloxacin	GSE6836	GSM157507,GSM157508,GSM157509/GSM157583,GSM157584	1			1		1	1	0	0	mbplot				GPL199	NC_000913	NC_000913
21387079	(gyrI+) 0.075ug/ml norfloxacin / WT 0.075ug/ml norfloxacin	GSE6836	GSM157510,GSM157511,GSM157512/GSM157583,GSM157584	1			1		1	1	0	0	mbplot				GPL199	NC_000913	NC_000913
21391682	(hlpA+) 0.075ug/ml norfloxacin / WT 0.075ug/ml norfloxacin	GSE6836	GSM157513,GSM157514,GSM157515/GSM157583,GSM157584	1			1		1	1	0	0	mbplot				GPL199	NC_000913	NC_000913
21396285	(holD+) 0.075ug/ml norfloxacin / WT 0.075ug/ml norfloxacin	GSE6836	GSM157516,GSM157517,GSM157518/GSM157583,GSM157584	1			1		1	1	0	0	mbplot				GPL199	NC_000913	NC_000913
21400888	(hscA+) 0.075ug/ml norfloxacin / WT 0.075ug/ml norfloxacin	GSE6836	GSM157519,GSM157520,GSM157521/GSM157583,GSM157584	1			1		1	1	0	0	mbplot				GPL199	NC_000913	NC_000913
21405491	(IHF+) 0.075ug/ml norfloxacin / WT 0.075ug/ml norfloxacin	GSE6836	GSM157522,GSM157523/GSM157583,GSM157584	1			1		1	1	0	0	mbplot				GPL199	NC_000913	NC_000913
21410094	(idrA+) 0.075ug/ml norfloxacin / WT 0.075ug/ml norfloxacin	GSE6836	GSM157524,GSM157525,GSM157526/GSM157583,GSM157584	1			1		1	1	0	0	mbplot				GPL199	NC_000913	NC_000913
21414697	(mcrB+) 0.075ug/ml norfloxacin / WT 0.075ug/ml norfloxacin	GSE6836	GSM157527,GSM157528,GSM157529/GSM157583,GSM157584	1			1		1	1	0	0	mbplot				GPL199	NC_000913	NC_000913
21419300	(mcrC+) 0.075ug/ml norfloxacin / WT 0.075ug/ml norfloxacin	GSE6836	GSM157530,GSM157531,GSM157532/GSM157583,GSM157584	1			1		1	1	0	0	mbplot				GPL199	NC_000913	NC_000913
21423903	(menB+) 0.075ug/ml norfloxacin / WT 0.075ug/ml norfloxacin	GSE6836	GSM157533,GSM157534,GSM157535/GSM157583,GSM157584	1			1		1	1	0	0	mbplot				GPL199	NC_000913	NC_000913
21428506	(menC+) 0.075ug/ml norfloxacin / WT 0.075ug/ml norfloxacin	GSE6836	GSM157536,GSM157537,GSM157538/GSM157583,GSM157584	1			1		1	1	0	0	mbplot				GPL199	NC_000913	NC_000913
21433109	(minD+) 0.075ug/ml norfloxacin / WT 0.075ug/ml norfloxacin	GSE6836	GSM157539,GSM157540,GSM157541/GSM157583,GSM157584	1			1		1	1	0	0	mbplot				GPL199	NC_000913	NC_000913
21437712	(minE+) 0.075ug/ml norfloxacin / WT 0.075ug/ml norfloxacin	GSE6836	GSM157542,GSM157543,GSM157544/GSM157583,GSM157584	1			1		1	1	0	0	mbplot				GPL199	NC_000913	NC_000913
21442315	(murI+) 0.075ug/ml norfloxacin / WT 0.075ug/ml norfloxacin	GSE6836	GSM157545,GSM157546,GSM157547/GSM157583,GSM157584	1			1		1	1	0	0	mbplot				GPL199	NC_000913	NC_000913
21446918	(yoeB+) 0.075ug/ml norfloxacin / WT 0.075ug/ml norfloxacin	GSE6836	GSM157548,GSM157549,GSM157550/GSM157583,GSM157584	1			1		1	1	0	0	mbplot				GPL199	NC_000913	NC_000913
21451521	(nrdA+) 0.075ug/ml norfloxacin / WT 0.075ug/ml norfloxacin	GSE6836	GSM157551,GSM157552,GSM157553/GSM157583,GSM157584	1			1		1	1	0	0	mbplot				GPL199	NC_000913	NC_000913
21456124	(nrdB+) 0.075ug/ml norfloxacin / WT 0.075ug/ml norfloxacin	GSE6836	GSM157554,GSM157555/GSM157583,GSM157584	1			1		1	1	0	0	mbplot				GPL199	NC_000913	NC_000913
21460727	(nupC+) 0.075ug/ml norfloxacin / WT 0.075ug/ml norfloxacin	GSE6836	GSM157556,GSM157557,GSM157558/GSM157583,GSM157584	1			1		1	1	0	0	mbplot				GPL199	NC_000913	NC_000913
21465330	(pyrC+) 0.075ug/ml norfloxacin / WT 0.075ug/ml norfloxacin	GSE6836	GSM157559,GSM157560,GSM157561/GSM157583,GSM157584	1			1		1	1	0	0	mbplot				GPL199	NC_000913	NC_000913
21469933	(rimI+) 0.075ug/ml norfloxacin / WT 0.075ug/ml norfloxacin	GSE6836	GSM157562,GSM157563,GSM157564/GSM157583,GSM157584	1			1		1	1	0	0	mbplot				GPL199	NC_000913	NC_000913
21474536	(rstB+) 0.075ug/ml norfloxacin / WT 0.075ug/ml norfloxacin	GSE6836	GSM157565,GSM157566,GSM157567/GSM157583,GSM157584	1			1		1	1	0	0	mbplot				GPL199	NC_000913	NC_000913
21479139	(ruvC+) 0.075ug/ml norfloxacin / WT 0.075ug/ml norfloxacin	GSE6836	GSM157568,GSM157569,GSM157570/GSM157583,GSM157584	1			1		1	1	0	0	mbplot				GPL199	NC_000913	NC_000913
21483742	(sbcB+) 0.075ug/ml norfloxacin / WT 0.075ug/ml norfloxacin	GSE6836	GSM157571,GSM157572,GSM157573/GSM157583,GSM157584	1			1		1	1	0	0	mbplot				GPL199	NC_000913	NC_000913
21488345	(uspA+) 0.075ug/ml norfloxacin / WT 0.075ug/ml norfloxacin	GSE6836	GSM157574,GSM157575,GSM157576/GSM157583,GSM157584	1			1		1	1	0	0	mbplot				GPL199	NC_000913	NC_000913
21492948	WT with 0.025 ug/ml norfloxacin / WT without norfloxacin	GSE6836	GSM157579,GSM157580/GSM157577,GSM157578	1			1		1	1	0	0	mbplot				GPL199	NC_000913	NC_000913
21497551	WT with 0.050 ug/ml norfloxacin / WT without norfloxacin	GSE6836	GSM157581,GSM157582/GSM157577,GSM157578	1			1		1	1	0	0	mbplot				GPL199	NC_000913	NC_000913
21502154	WT with 0.075 ug/ml norfloxacin / WT without norfloxacin	GSE6836	GSM157583,GSM157584/GSM157577,GSM157578	1			1		1	1	0	0	mbplot				GPL199	NC_000913	NC_000913
21506757	(recA-) / WT	GSE6836	GSM157585,GSM157586/GSM157577,GSM157578	1			1		1	1	0	0	mbplot				GPL199	NC_000913	NC_000913
21511360	(recA-) 0.075ug/ml norfloxacin / (recA-) without norfloxacin	GSE6836	GSM157587,GSM157588/GSM157585,GSM157586	1			1		1	1	0	0	mbplot				GPL199	NC_000913	NC_000913
21515963	(recA-) 1.0ug/ml norfloxacin / (recA-) without norfloxacin	GSE6836	GSM157589,GSM157590/GSM157585,GSM157586	1			1		1	1	0	0	mbplot				GPL199	NC_000913	NC_000913
21520566	WT with 1.0 ug/ml norfloxacin / WT without norfloxacin	GSE6836	GSM157591,GSM157592/GSM157577,GSM157578	1			1		1	1	0	0	mbplot				GPL199	NC_000913	NC_000913
21525169	luciferase + 0.025ug/ml norfloxacin / luciferase	GSE6836	GSM157593,GSM157594/GSM157595,GSM157596	1			1		1	1	0	0	mbplot				GPL199	NC_000913	NC_000913
21529772	WT 12 min after 0.025 ug/ml norfloxacin / WT prior to treatment	GSE6836	GSM157600,GSM157601,GSM157602/GSM157597,GSM157598,GSM157599	1			1		1	1	0	0	mbplot				GPL199	NC_000913	NC_000913
21534375	WT 24 min after 0.025 ug/ml norfloxacin / WT prior to treatment	GSE6836	GSM157603,GSM157604,GSM157605/GSM157597,GSM157598,GSM157599	1			1		1	1	0	0	mbplot				GPL199	NC_000913	NC_000913
21538978	WT untreated cells after 24 min / WT prior to treatment	GSE6836	GSM157606,GSM157607,GSM157608/GSM157597,GSM157598,GSM157599	1			1		1	1	0	0	mbplot				GPL199	NC_000913	NC_000913
21543581	WT 36 min after 0.025 ug/ml norfloxacin / WT prior to treatment	GSE6836	GSM157609,GSM157610,GSM157611/GSM157597,GSM157598,GSM157599	1			1		1	1	0	0	mbplot				GPL199	NC_000913	NC_000913
21548184	WT 48 min after 0.025 ug/ml norfloxacin / WT prior to treatment	GSE6836	GSM157612,GSM157613,GSM157614/GSM157597,GSM157598,GSM157599	1			1		1	1	0	0	mbplot				GPL199	NC_000913	NC_000913
21552787	WT 60 min after 0.025 ug/ml norfloxacin / WT prior to treatment	GSE6836	GSM157615,GSM157616,GSM157617/GSM157597,GSM157598,GSM157599	1			1		1	1	0	0	mbplot				GPL199	NC_000913	NC_000913
21557390	WT untreated cells after 60 min / WT prior to treatment	GSE6836	GSM157618,GSM157619,GSM157620/GSM157597,GSM157598,GSM157599	1			1		1	1	0	0	mbplot				GPL199	NC_000913	NC_000913
21561993	(ccdB+) 30 min after induction / (ccdB+) 0 min after induction	GSE6836	GSM157622/GSM157621	1			1		1	1	0	0	mbplot				GPL199	NC_000913	NC_000913
21566596	(ccdB+) 60 min after induction / (ccdB+) 0 min after induction	GSE6836	GSM157623/GSM157621	1			1		1	1	0	0	mbplot				GPL199	NC_000913	NC_000913
21571199	(ccdB+) 90 min after induction / (ccdB+) 0 min after induction	GSE6836	GSM157624/GSM157621	1			1		1	1	0	0	mbplot				GPL199	NC_000913	NC_000913
21575802	(ccdB+) 120 min after induction / (ccdB+) 0 min after induction	GSE6836	GSM157625/GSM157621	1			1		1	1	0	0	mbplot				GPL199	NC_000913	NC_000913
21580405	(lacZ+) 30 min after induction / (lacZ+) 0 min after induction	GSE6836	GSM157627/GSM157626	1			1		1	1	0	0	mbplot				GPL199	NC_000913	NC_000913
21585008	(lacZ+) 60 min after induction / (lacZ+) 0 min after induction	GSE6836	GSM157628/GSM157626	1			1		1	1	0	0	mbplot				GPL199	NC_000913	NC_000913
21589611	(lacZ+) 90 min after induction / (lacZ+) 0 min after induction	GSE6836	GSM157629/GSM157626	1			1		1	1	0	0	mbplot				GPL199	NC_000913	NC_000913
21594214	(lacZ+) 120 min after induction / (lacZ+) 0 min after induction	GSE6836	GSM157630/GSM157626	1			1		1	1	0	0	mbplot				GPL199	NC_000913	NC_000913
21598817	(lacZ+ recA-) 0 min after induction / (lacZ+) 0 min after induction	GSE6836	GSM157631,GSM157632/GSM157626	1			1		1	1	0	0	mbplot				GPL199	NC_000913	NC_000913
21603420	(lacZ+ recA-) 30 min after induction / (lacZ+ recA-) 0 min after induction	GSE6836	GSM157633,GSM157634/GSM157631,GSM157632	1			1		1	1	0	0	mbplot				GPL199	NC_000913	NC_000913
21608023	(lacZ+ recA-) 60 min after induction / (lacZ+ recA-) 0 min after induction	GSE6836	GSM157635,GSM157636/GSM157631,GSM157632	1			1		1	1	0	0	mbplot				GPL199	NC_000913	NC_000913
21612626	(lacZ+ recA-) 90 min after induction / (lacZ+ recA-) 0 min after induction	GSE6836	GSM157637,GSM157638/GSM157631,GSM157632	1			1		1	1	0	0	mbplot				GPL199	NC_000913	NC_000913
21617229	(ccdB+ recA-) 0 min after induction / (ccdB+) 0 min after induction	GSE6836	GSM157639,GSM157640/GSM157621	1			1		1	1	0	0	mbplot				GPL199	NC_000913	NC_000913
21621832	(ccdB+ recA-) 30 min after induction / (ccdB+ recA-) 0 min after induction	GSE6836	GSM157641,GSM157642/GSM157639,GSM157640	1			1		1	1	0	0	mbplot				GPL199	NC_000913	NC_000913
21626435	(ccdB+ recA-) 60 min after induction / (ccdB+ recA-) 0 min after induction	GSE6836	GSM157643,GSM157644/GSM157639,GSM157640	1			1		1	1	0	0	mbplot				GPL199	NC_000913	NC_000913
21631038	(ccdB+ recA-) 90 min after induction / (ccdB+ recA-) 0 min after induction	GSE6836	GSM157645,GSM157646/GSM157639,GSM157640	1			1		1	1	0	0	mbplot				GPL199	NC_000913	NC_000913
21635641	(lacZ+) W1863 (lambda-) 0 min after induction / (lacZ+) 0 min after induction	GSE6836	GSM157647/GSM157626	1			1		1	1	0	0	mbplot				GPL199	NC_000913	NC_000913
21640244	(lacZ+) W1863 (lambda-) 30 min after induction / (lacZ+) W1863 (lambda-) 0 min after induction	GSE6836	GSM157648/GSM157647	1			1		1	1	0	0	mbplot				GPL199	NC_000913	NC_000913
21644847	(lacZ+) W1863 (lambda-) 60 min after induction / (lacZ+) W1863 (lambda-) 0 min after induction	GSE6836	GSM157649/GSM157647	1			1		1	1	0	0	mbplot				GPL199	NC_000913	NC_000913
21649450	(lacZ+) W1863 (lambda-) 90 min after induction / (lacZ+) W1863 (lambda-) 0 min after induction	GSE6836	GSM157650/GSM157647	1			1		1	1	0	0	mbplot				GPL199	NC_000913	NC_000913
21654053	(ccdB+) W1863 (lambda-) 0 min after induction / (ccdB+) 0 min after induction	GSE6836	GSM157651/GSM157621	1			1		1	1	0	0	mbplot				GPL199	NC_000913	NC_000913
21658656	(ccdB+) W1863 (lambda-) 30 min after induction / (ccdB+) W1863 (lambda-) 0 min after induction	GSE6836	GSM157652/GSM157651	1			1		1	1	0	0	mbplot				GPL199	NC_000913	NC_000913
21663259	(ccdB+) W1863 (lambda-) 60 min after induction / (ccdB+) 0 min after induction	GSE6836	GSM157653/GSM157651	1			1		1	1	0	0	mbplot				GPL199	NC_000913	NC_000913
21667862	(ccdB+) W1863 (lambda-) 90 min after induction / (ccdB+) 0 min after induction	GSE6836	GSM157654/GSM157651	1			1		1	1	0	0	mbplot				GPL199	NC_000913	NC_000913
21672465	(lacZ+ recA-) 120 min after induction / (lacZ+ recA-) 0 min after induction	GSE6836	GSM157655/GSM157631,GSM157632	1			1		1	1	0	0	mbplot				GPL199	NC_000913	NC_000913
21677068	(ccdB+ recA-) 120 min after induction / (ccdB+ recA-) 0 min after induction	GSE6836	GSM157656/GSM157639,GSM157640	1			1		1	1	0	0	mbplot				GPL199	NC_000913	NC_000913
21681671	EMG2 LB + 0.2% glucose 3h post-incubation / EMG2 LB + 0.2% glucose 2.5h post-incubation	GSE6836	GSM157658/GSM157657	1			1		1	1	0	0	mbplot				GPL199	NC_000913	NC_000913
21686274	EMG2 LB + 0.2% glucose 3.5h post-incubation / EMG2 LB + 0.2% glucose 2.5h post-incubation	GSE6836	GSM157659/GSM157657	1			1		1	1	0	0	mbplot				GPL199	NC_000913	NC_000913
21690877	EMG2 LB + 0.2% glucose 4h post-incubation / EMG2 LB + 0.2% glucose 2.5h post-incubation	GSE6836	GSM157660/GSM157657	1			1		1	1	0	0	mbplot				GPL199	NC_000913	NC_000913
21695480	EMG2 LB + 0.2% glucose 4.5h post-incubation / EMG2 LB + 0.2% glucose 2.5h post-incubation	GSE6836	GSM157661/GSM157657	1			1		1	1	0	0	mbplot				GPL199	NC_000913	NC_000913
21700083	EMG2 LB + 0.2% glucose 5h post-incubation / EMG2 LB + 0.2% glucose 2.5h post-incubation	GSE6836	GSM157662/GSM157657	1			1		1	1	0	0	mbplot				GPL199	NC_000913	NC_000913
21704686	EMG2 LB + 0.2% glucose 5.5h post-incubation / EMG2 LB + 0.2% glucose 2.5h post-incubation	GSE6836	GSM157663/GSM157657	1			1		1	1	0	0	mbplot				GPL199	NC_000913	NC_000913
21709289	EMG2 LB + 0.2% glucose 6h post-incubation / EMG2 LB + 0.2% glucose 2.5h post-incubation	GSE6836	GSM157664/GSM157657	1			1		1	1	0	0	mbplot				GPL199	NC_000913	NC_000913
21713892	EMG2 LB + 0.2% glucose 8h post-incubation / EMG2 LB + 0.2% glucose 2.5h post-incubation	GSE6836	GSM157665/GSM157657	1			1		1	1	0	0	mbplot				GPL199	NC_000913	NC_000913
21718495	EMG2 LB + 0.4% glucose 3h post-incubation / EMG2 LB + 0.4% glucose 2.5h post-incubation	GSE6836	GSM157667/GSM157666	1			1		1	1	0	0	mbplot				GPL199	NC_000913	NC_000913
21723098	EMG2 LB + 0.4% glucose 3.5h post-incubation / EMG2 LB + 0.4% glucose 2.5h post-incubation	GSE6836	GSM157668/GSM157666	1			1		1	1	0	0	mbplot				GPL199	NC_000913	NC_000913
21727701	EMG2 LB + 0.4% glucose 4h post-incubation / EMG2 LB + 0.4% glucose 2.5h post-incubation	GSE6836	GSM157669/GSM157666	1			1		1	1	0	0	mbplot				GPL199	NC_000913	NC_000913
21732304	EMG2 LB + 0.4% glucose 4.5h post-incubation / EMG2 LB + 0.4% glucose 2.5h post-incubation	GSE6836	GSM157670/GSM157666	1			1		1	1	0	0	mbplot				GPL199	NC_000913	NC_000913
21736907	EMG2 LB + 0.4% glucose 5h post-incubation / EMG2 LB + 0.4% glucose 2.5h post-incubation	GSE6836	GSM157671/GSM157657	1			1		1	1	0	0	mbplot				GPL199	NC_000913	NC_000913
21741510	EMG2 LB + 0.4% glucose 5.5h post-incubation / EMG2 LB + 0.4% glucose 2.5h post-incubation	GSE6836	GSM157672/GSM157666	1			1		1	1	0	0	mbplot				GPL199	NC_000913	NC_000913
21746113	EMG2 LB + 0.4% glucose 6h post-incubation / EMG2 LB + 0.4% glucose 2.5h post-incubation	GSE6836	GSM157673/GSM157666	1			1		1	1	0	0	mbplot				GPL199	NC_000913	NC_000913
21750716	EMG2 LB + 0.4% glucose 8h post-incubation / EMG2 LB + 0.4% glucose 2.5h post-incubation	GSE6836	GSM157674/GSM157666	1			1		1	1	0	0	mbplot				GPL199	NC_000913	NC_000913
26944694	Streptococcus pneumoniae TIGR4/R6;GAF GM17 zinc / Streptococcus pneumoniae TIGR4/R6;GAF GM17	GSE6911	GSM158350,GSM158558,GSM158562,GSM158563	2			3		0	0	0	0	mbplot				GPL4784		
21755319	ATCC25404 with pR1drd19 24h in LB / ATCC25404 without R1drd19 24h in LB	GSE6923	GSM147163/GSM147162	1			1		1	1	0	0	mbplot				GPL199	NC_000913	NC_000913
21759922	MG1655 with pR1drd19 24h in M9C glu / MG1655 without pR1drd19 24h in M9C glu	GSE6923	GSM147165/GSM147164	1			1		1	1	0	0	mbplot				GPL199	NC_000913	NC_000913
21764525	BW25113 with pR1drd19 24h in LB / BW25113 with pR1drd19 7h in LB	GSE6923	GSM153383/GSM153385	1			1		1	1	0	0	mbplot				GPL199	NC_000913	NC_000913
21769128	BW25113 with pR1drd19 24h in LB / BW25113 without pR1drd19 24h in LB	GSE6923	GSM153383/GSM153387	1			1		1	1	0	0	mbplot				GPL199	NC_000913	NC_000913
21773731	BW25113 with pR1drd19 15h in LB / BW25113 with pR1drd19 7h in LB	GSE6923	GSM153384/GSM153385	1			1		1	1	0	0	mbplot				GPL199	NC_000913	NC_000913
21778334	BW25113 15h in LB / BW25113 7h in LB	GSE6923	GSM153386/GSM153388	1			1		1	1	0	0	mbplot				GPL199	NC_000913	NC_000913
21782937	BW25113 24h in LB / BW25113 7h in LB	GSE6923	GSM153387/GSM153388	1			1		1	1	0	0	mbplot				GPL199	NC_000913	NC_000913
21787540	ymgB / WT biofilm on LB 24 h	GSE6925	GSM159472/GSM159471	1			3		1	1	0	0	maplot				GPL199	NC_000913	NC_000913
26644369	Streptococcus mutans UA159 Grown in defined medium with glucose/ Streptococcus mutans UA159 Grown in defined medium with glucose and dextranase	GSE6973	GSM160647,GSM160648,GSM160649,GSM160650,GSM160651,GSM160652,GSM160653,GSM160654,GSM160655,GSM160656/GSM160657,GSM160658,GSM160671,GSM160672	1			1		1	1	0	0	maplot				GPL4769		
26646279	Streptococcus mutans UA159  Grown in defined medium with glucose/ Streptococcus mutans UA159 Grown in defined medium with fructose	GSE6973	GSM160647,GSM160648,GSM160649,GSM160650,GSM160651,GSM160652,GSM160653,GSM160654,GSM160655,GSM160656/GSM160659,GSM160660,GSM160661,GSM160662,GSM160663,GSM160664,GSM160665,GSM160666,GSM160667,GSM160668	1			1		1	1	0	0	maplot				GPL4769		
26648189	Streptococcus mutans UA159  Grown in defined medium with glucose/ Streptococcus mutans UA159 Grown in defined medium with mannose	GSE6973	GSM160647,GSM160648,GSM160649,GSM160650,GSM160651,GSM160652,GSM160653,GSM160654,GSM160655,GSM160656/GSM160669,GSM160670,GSM160671,GSM160672	1			1		1	1	0	0	maplot				GPL4769		
26650099	Streptococcus mutans UA159 Grown in defined medium with glucose / Streptococcus mutans UA159 Grown in defined medium with sucrose and dextranase	GSE6973	GSM160647,GSM160648,GSM160649,GSM160650,GSM160651,GSM160652,GSM160653,GSM160654,GSM160655,GSM160656/GSM160673,GSM160674	1			1		1	1	0	0	maplot				GPL4769		
26652009	Streptococcus mutans UA159 Grown in defined medium with glucose / Streptococcus mutans UA159 Grown in defined medium with lactose	GSE6973	GSM160647,GSM160648,GSM160649,GSM160650,GSM160651,GSM160652,GSM160653,GSM160654,GSM160655,GSM160656/GSM160675,GSM160676	1			1		1	1	0	0	maplot				GPL4769		
26653919	Streptococcus mutans UA159 Grown in defined medium with glucose / Streptococcus mutans UA159 Grown in defined medium with galactose	GSE6973	GSM160647,GSM160648,GSM160649,GSM160650,GSM160651,GSM160652,GSM160653,GSM160654,GSM160655,GSM160656/GSM160677,GSM160678	1			1		1	1	0	0	maplot				GPL4769		
26655829	Streptococcus mutans UA159 Grown in defined medium with glucose / Streptococcus mutans UA159 Grown in defined medium with raffinose	GSE6973	GSM160647,GSM160648,GSM160649,GSM160650,GSM160651,GSM160652,GSM160653,GSM160654,GSM160655,GSM160656/GSM160679,GSM160680	1			1		1	1	0	0	maplot				GPL4769		
26657739	Streptococcus mutans UA159 Grown in defined medium with glucose / Streptococcus mutans UA159 Grown in defined medium with stachyose	GSE6973	GSM160647,GSM160648,GSM160649,GSM160650,GSM160651,GSM160652,GSM160653,GSM160654,GSM160655,GSM160656/GSM160681,GSM160682	1			1		1	1	0	0	maplot				GPL4769		
26659649	Streptococcus mutans UA159 Grown in defined medium with glucose / Streptococcus mutans UA159 Grown in defined medium with trehalose	GSE6973	GSM160647,GSM160648,GSM160649,GSM160650,GSM160651,GSM160652,GSM160653,GSM160654,GSM160655,GSM160656/GSM160683,GSM160684	1			1		1	1	0	0	maplot				GPL4769		
26661559	Streptococcus mutans UA159 Grown in defined medium with glucose / Streptococcus mutans UA159 Grown in defined medium with maltose	GSE6973	GSM160647,GSM160648,GSM160649,GSM160650,GSM160651,GSM160652,GSM160653,GSM160654,GSM160655,GSM160656/GSM160685,GSM160686	1			1		1	1	0	0	maplot				GPL4769		
26663469	Streptococcus mutans UA159 Grown in defined medium with glucose / Streptococcus mutans UA159 Grown in defined medium with maltotriose	GSE6973	GSM160647,GSM160648,GSM160649,GSM160650,GSM160651,GSM160652,GSM160653,GSM160654,GSM160655,GSM160656/GSM160687,GSM160688	1			1		1	1	0	0	maplot				GPL4769		
26665379	Streptococcus mutans UA159 Grown in defined medium with glucose / Streptococcus mutans UA159 Grown in defined medium with cellobiose	GSE6973	GSM160647,GSM160648,GSM160649,GSM160650,GSM160651,GSM160652,GSM160653,GSM160654,GSM160655,GSM160656/GSM160689,GSM160690	1			1		1	1	0	0	maplot				GPL4769		
26667289	Streptococcus mutans UA159 Grown in defined medium with glucose / Streptococcus mutans UA159 Grown in defined medium with mannitol	GSE6973	GSM160647,GSM160648,GSM160649,GSM160650,GSM160651,GSM160652,GSM160653,GSM160654,GSM160655,GSM160656/GSM160691,GSM160692,GSM160693,GSM160694	1			1		1	1	0	0	maplot				GPL4769		
26669199	Streptococcus mutans UA159 Grown in defined medium with glucose and dextranase / Streptococcus mutans UA159 Grown in defined medium with fructose	GSE6973	GSM160657,GSM160658/GSM160659,GSM160660,GSM160661,GSM160662,GSM160663,GSM160664,GSM160665,GSM160666,GSM160667,GSM160668	1			1		1	1	0	0	maplot				GPL4769		
26671109	Streptococcus mutans UA159 Grown in defined medium with glucose and dextranase / Streptococcus mutans UA159 Grown in defined medium with mannose	GSE6973	GSM160657,GSM160658/GSM160669,GSM160670,GSM160671,GSM160672	1			1		1	1	0	0	maplot				GPL4769		
26673019	Streptococcus mutans UA159 Grown in defined medium with glucose and dextranase / Streptococcus mutans UA159 Grown in defined medium with sucrose and dextranase	GSE6973	GSM160657,GSM160658/GSM160673,GSM160674	1			1		1	1	0	0	maplot				GPL4769		
26674929	Streptococcus mutans UA159 Grown in defined medium with glucose and dextranase / Streptococcus mutans UA159 Grown in defined medium with lactose	GSE6973	GSM160657,GSM160658/GSM160675,GSM160676	1			1		1	1	0	0	maplot				GPL4769		
26676839	Streptococcus mutans UA159 Grown in defined medium with glucose and dextranase / Streptococcus mutans UA159 Grown in defined medium with galactose	GSE6973	GSM160657,GSM160658/GSM160677,GSM160678	1			1		1	1	0	0	maplot				GPL4769		
26678749	Streptococcus mutans UA159 Grown in defined medium with glucose and dextranase / Streptococcus mutans UA159 Grown in defined medium with raffinose	GSE6973	GSM160657,GSM160658/GSM160679,GSM160680	1			1		1	1	0	0	maplot				GPL4769		
26680659	Streptococcus mutans UA159 Grown in defined medium with glucose and dextranase / Streptococcus mutans UA159 Grown in defined medium with stachyose	GSE6973	GSM160657,GSM160658/GSM160681,GSM160682	1			1		1	1	0	0	maplot				GPL4769		
26682569	Streptococcus mutans UA159 Grown in defined medium with glucose and dextranase / Streptococcus mutans UA159 Grown in defined medium with trehalose	GSE6973	GSM160657,GSM160658/GSM160683,GSM160684	1			1		1	1	0	0	maplot				GPL4769		
26684479	Streptococcus mutans UA159 Grown in defined medium with glucose and dextranase / Streptococcus mutans UA159 Grown in defined medium with maltose	GSE6973	GSM160657,GSM160658/GSM160685,GSM160686	1			1		1	1	0	0	maplot				GPL4769		
26686389	Streptococcus mutans UA159 Grown in defined medium with glucose and dextranase / Streptococcus mutans UA159 Grown in defined medium with maltotriose	GSE6973	GSM160657,GSM160658/GSM160687,GSM160688	1			1		1	1	0	0	maplot				GPL4769		
26688299	Streptococcus mutans UA159 Grown in defined medium with glucose and dextranase / Streptococcus mutans UA159 Grown in defined medium with cellobiose	GSE6973	GSM160657,GSM160658/GSM160689,GSM160690	1			1		1	1	0	0	maplot				GPL4769		
26690209	Streptococcus mutans UA159 Grown in defined medium with glucose and dextranase / Streptococcus mutans UA159 Grown in defined medium with mannitol	GSE6973	GSM160657,GSM160658/GSM160691,GSM160692,GSM160693,GSM160694	1			1		1	1	0	0	maplot				GPL4769		
26692119	Streptococcus mutans UA159 Grown in defined medium with fructose / Streptococcus mutans UA159 Grown in defined medium with mannose	GSE6973	GSM160659,GSM160660,GSM160661,GSM160662,GSM160663,GSM160664,GSM160665,GSM160666,GSM160667,GSM160668/GSM160669,GSM160670,GSM160671,GSM160672	1			1		1	1	0	0	maplot				GPL4769		
26694029	Streptococcus mutans UA159 Grown in defined medium with fructose / Streptococcus mutans UA159 Grown in defined medium with sucrose and dextranase	GSE6973	GSM160659,GSM160660,GSM160661,GSM160662,GSM160663,GSM160664,GSM160665,GSM160666,GSM160667,GSM160668/GSM160673,GSM160674	1			1		1	1	0	0	maplot				GPL4769		
26695939	Streptococcus mutans UA159 Grown in defined medium with fructose / Streptococcus mutans UA159 Grown in defined medium with lactose	GSE6973	GSM160659,GSM160660,GSM160661,GSM160662,GSM160663,GSM160664,GSM160665,GSM160666,GSM160667,GSM160668/GSM160675,GSM160676	1			1		1	1	0	0	maplot				GPL4769		
26697849	Streptococcus mutans UA159 Grown in defined medium with fructose / Streptococcus mutans UA159 Grown in defined medium with galactose	GSE6973	GSM160659,GSM160660,GSM160661,GSM160662,GSM160663,GSM160664,GSM160665,GSM160666,GSM160667,GSM160668/GSM160677,GSM160678	1			1		1	1	0	0	maplot				GPL4769		
26699759	Streptococcus mutans UA159 Grown in defined medium with fructose / Streptococcus mutans UA159 Grown in defined medium with raffinose	GSE6973	GSM160659,GSM160660,GSM160661,GSM160662,GSM160663,GSM160664,GSM160665,GSM160666,GSM160667,GSM160668/GSM160679,GSM160680	1			1		1	1	0	0	maplot				GPL4769		
26701669	Streptococcus mutans UA159 Grown in defined medium with fructose / Streptococcus mutans UA159 Grown in defined medium with stachyose	GSE6973	GSM160659,GSM160660,GSM160661,GSM160662,GSM160663,GSM160664,GSM160665,GSM160666,GSM160667,GSM160668/GSM160681,GSM160682	1			1		1	1	0	0	maplot				GPL4769		
26703579	Streptococcus mutans UA159 Grown in defined medium with fructose / Streptococcus mutans UA159 Grown in defined medium with trehalose	GSE6973	GSM160659,GSM160660,GSM160661,GSM160662,GSM160663,GSM160664,GSM160665,GSM160666,GSM160667,GSM160668/GSM160683,GSM160684	1			1		1	1	0	0	maplot				GPL4769		
26705489	Streptococcus mutans UA159 Grown in defined medium with fructose / Streptococcus mutans UA159 Grown in defined medium with maltose	GSE6973	GSM160659,GSM160660,GSM160661,GSM160662,GSM160663,GSM160664,GSM160665,GSM160666,GSM160667,GSM160668/GSM160685,GSM160686	1			1		1	1	0	0	maplot				GPL4769		
26707399	Streptococcus mutans UA159 Grown in defined medium with fructose / Streptococcus mutans UA159 Grown in defined medium with maltotriose	GSE6973	GSM160659,GSM160660,GSM160661,GSM160662,GSM160663,GSM160664,GSM160665,GSM160666,GSM160667,GSM160668/GSM160687,GSM160688	1			1		1	1	0	0	maplot				GPL4769		
26709309	Streptococcus mutans UA159 Grown in defined medium with fructose / Streptococcus mutans UA159 Grown in defined medium with cellobiose	GSE6973	GSM160659,GSM160660,GSM160661,GSM160662,GSM160663,GSM160664,GSM160665,GSM160666,GSM160667,GSM160668/GSM160689,GSM160690	1			1		1	1	0	0	maplot				GPL4769		
26711219	Streptococcus mutans UA159 Grown in defined medium with fructose / Streptococcus mutans UA159 Grown in defined medium with mannitol	GSE6973	GSM160659,GSM160660,GSM160661,GSM160662,GSM160663,GSM160664,GSM160665,GSM160666,GSM160667,GSM160668/GSM160691,GSM160692,GSM160693,GSM160694	1			1		1	1	0	0	maplot				GPL4769		
26713129	Streptococcus mutans UA159 Grown in defined medium with mannose / Streptococcus mutans UA159 Grown in defined medium with sucrose and dextranase	GSE6973	GSM160669,GSM160670,GSM160671,GSM160672/GSM160673,GSM160674	1			1		1	1	0	0	maplot				GPL4769		
26715039	Streptococcus mutans UA159 Grown in defined medium with mannose / Streptococcus mutans UA159 Grown in defined medium with lactose	GSE6973	GSM160669,GSM160670,GSM160671,GSM160672/GSM160675,GSM160676	1			1		1	1	0	0	maplot				GPL4769		
26716949	Streptococcus mutans UA159 Grown in defined medium with mannose / Streptococcus mutans UA159 Grown in defined medium with galactose	GSE6973	GSM160669,GSM160670,GSM160671,GSM160672/GSM160677,GSM160678	1			1		1	1	0	0	maplot				GPL4769		
26718859	Streptococcus mutans UA159 Grown in defined medium with mannose / Streptococcus mutans UA159 Grown in defined medium with raffinose	GSE6973	GSM160669,GSM160670,GSM160671,GSM160672/GSM160679,GSM160680	1			1		1	1	0	0	maplot				GPL4769		
26720769	Streptococcus mutans UA159 Grown in defined medium with mannose / Streptococcus mutans UA159 Grown in defined medium with stachyose	GSE6973	GSM160669,GSM160670,GSM160671,GSM160672/GSM160681,GSM160682	1			1		1	1	0	0	maplot				GPL4769		
26722679	Streptococcus mutans UA159 Grown in defined medium with mannose / Streptococcus mutans UA159 Grown in defined medium with trehalose	GSE6973	GSM160669,GSM160670,GSM160671,GSM160672/GSM160683,GSM160684	1			1		1	1	0	0	maplot				GPL4769		
26724589	Streptococcus mutans UA159 Grown in defined medium with mannose / Streptococcus mutans UA159 Grown in defined medium with maltose	GSE6973	GSM160669,GSM160670,GSM160671,GSM160672/GSM160685,GSM160686	1			1		1	1	0	0	maplot				GPL4769		
26726499	Streptococcus mutans UA159 Grown in defined medium with mannose / Streptococcus mutans UA159 Grown in defined medium with maltotriose	GSE6973	GSM160669,GSM160670,GSM160671,GSM160672/GSM160687,GSM160688	1			1		1	1	0	0	maplot				GPL4769		
26728409	Streptococcus mutans UA159 Grown in defined medium with mannose / Streptococcus mutans UA159 Grown in defined medium with cellobiose	GSE6973	GSM160669,GSM160670,GSM160671,GSM160672/GSM160689,GSM160690	1			1		1	1	0	0	maplot				GPL4769		
26730319	Streptococcus mutans UA159 Grown in defined medium with mannose / Streptococcus mutans UA159 Grown in defined medium with mannitol	GSE6973	GSM160669,GSM160670,GSM160671,GSM160672/GSM160691,GSM160692,GSM160693,GSM160694	1			1		1	1	0	0	maplot				GPL4769		
26732229	Streptococcus mutans UA159 Grown in defined medium with sucrose and dextranase/ Streptococcus mutans UA159 Grown in defined medium with lactose	GSE6973	GSM160673,GSM160674/GSM160675,GSM160676	1			1		1	1	0	0	maplot				GPL4769		
26734139	Streptococcus mutans UA159 Grown in defined medium with sucrose and dextranase/ Streptococcus mutans UA159 Grown in defined medium with galactose	GSE6973	GSM160673,GSM160674/GSM160677,GSM160678	1			1		1	1	0	0	maplot				GPL4769		
26736049	Streptococcus mutans UA159 Grown in defined medium with sucrose and dextranase/ Streptococcus mutans UA159 Grown in defined medium with raffinose	GSE6973	GSM160673,GSM160674/GSM160679,GSM160680	1			1		1	1	0	0	maplot				GPL4769		
26737959	SStreptococcus mutans UA159 Grown in defined medium with sucrose and dextranase/ Streptococcus mutans UA159 Grown in defined medium with stachyose	GSE6973	GSM160673,GSM160674/GSM160681,GSM160682	1			1		1	1	0	0	maplot				GPL4769		
26739869	Streptococcus mutans UA159 Grown in defined medium with sucrose and dextranase/ Streptococcus mutans UA159 Grown in defined medium with trehalose	GSE6973	GSM160673,GSM160674/GSM160683,GSM160684	1			1		1	1	0	0	maplot				GPL4769		
26741779	Streptococcus mutans UA159 Grown in defined medium with sucrose and dextranase/ Streptococcus mutans UA159 Grown in defined medium with maltose	GSE6973	GSM160673,GSM160674/GSM160685,GSM160686	1			1		1	1	0	0	maplot				GPL4769		
26743689	Streptococcus mutans UA159 Grown in defined medium with sucrose and dextranase/ Streptococcus mutans UA159 Grown in defined medium with maltotriose	GSE6973	GSM160673,GSM160674/GSM160687,GSM160688	1			1		1	1	0	0	maplot				GPL4769		
26745599	Streptococcus mutans UA159 Grown in defined medium with sucrose and dextranase/ Streptococcus mutans UA159 Grown in defined medium with cellobiose	GSE6973	GSM160673,GSM160674/GSM160689,GSM160690	1			1		1	1	0	0	maplot				GPL4769		
26747509	Streptococcus mutans UA159 Grown in defined medium with sucrose and dextranase/ Streptococcus mutans UA159 Grown in defined medium with mannitol	GSE6973	GSM160673,GSM160674/GSM160691,GSM160692,GSM160693,GSM160694	1			1		1	1	0	0	maplot				GPL4769		
26749419	Streptococcus mutans UA159 Grown in defined medium with lactose/ Streptococcus mutans UA159 Grown in defined medium with galactose	GSE6973	GSM160675,GSM160676/GSM160677,GSM160678	1			1		1	1	0	0	maplot				GPL4769		
26751329	Streptococcus mutans UA159 Grown in defined medium with lactose/ Streptococcus mutans UA159 Grown in defined medium with raffinose	GSE6973	GSM160675,GSM160676/GSM160679,GSM160680	1			1		1	1	0	0	maplot				GPL4769		
26753239	Streptococcus mutans UA159 Grown in defined medium with lactose/ Streptococcus mutans UA159 Grown in defined medium with stachyose	GSE6973	GSM160675,GSM160676/GSM160681,GSM160682	1			1		1	1	0	0	maplot				GPL4769		
26755149	Streptococcus mutans UA159 Grown in defined medium with lactose/ Streptococcus mutans UA159 Grown in defined medium with trehalose	GSE6973	GSM160675,GSM160676/GSM160683,GSM160684	1			1		1	1	0	0	maplot				GPL4769		
26757059	Streptococcus mutans UA159 Grown in defined medium with lactose/ Streptococcus mutans UA159 Grown in defined medium with maltose	GSE6973	GSM160675,GSM160676/GSM160685,GSM160686	1			1		1	1	0	0	maplot				GPL4769		
26758969	Streptococcus mutans UA159 Grown in defined medium with lactose/ Streptococcus mutans UA159 Grown in defined medium with maltotriose	GSE6973	GSM160675,GSM160676/GSM160687,GSM160688	1			1		1	1	0	0	maplot				GPL4769		
26760879	Streptococcus mutans UA159 Grown in defined medium with lactose/ Streptococcus mutans UA159 Grown in defined medium with cellobiose	GSE6973	GSM160675,GSM160676/GSM160689,GSM160690	1			1		1	1	0	0	maplot				GPL4769		
26762789	Streptococcus mutans UA159 Grown in defined medium with lactose/ Streptococcus mutans UA159 Grown in defined medium with mannitol	GSE6973	GSM160675,GSM160676/GSM160691,GSM160692,GSM160693,GSM160694	1			1		1	1	0	0	maplot				GPL4769		
26764699	Streptococcus mutans UA159 Grown in defined medium with galactose/ Streptococcus mutans UA159 Grown in defined medium with raffinose	GSE6973	GSM160677,GSM160678/GSM160679,GSM160680	1			1		1	1	0	0	maplot				GPL4769		
26766609	Streptococcus mutans UA159 Grown in defined medium with galactose/ Streptococcus mutans UA159 Grown in defined medium with stachyose	GSE6973	GSM160677,GSM160678/GSM160681,GSM160682	1			1		1	1	0	0	maplot				GPL4769		
26768519	Streptococcus mutans UA159 Grown in defined medium with galactose/ Streptococcus mutans UA159 Grown in defined medium with trehalose	GSE6973	GSM160677,GSM160678/GSM160683,GSM160684	1			1		1	1	0	0	maplot				GPL4769		
26770429	Streptococcus mutans UA159 Grown in defined medium with galactose/ Streptococcus mutans UA159 Grown in defined medium with maltose	GSE6973	GSM160677,GSM160678/GSM160685,GSM160686	1			1		1	1	0	0	maplot				GPL4769		
26772339	Streptococcus mutans UA159 Grown in defined medium with galactose/ Streptococcus mutans UA159 Grown in defined medium with maltotriose	GSE6973	GSM160677,GSM160678/GSM160687,GSM160688	1			1		1	1	0	0	maplot				GPL4769		
26774249	Streptococcus mutans UA159 Grown in defined medium with galactose/ Streptococcus mutans UA159 Grown in defined medium with cellobiose	GSE6973	GSM160677,GSM160678/GSM160689,GSM160690	1			1		1	1	0	0	maplot				GPL4769		
26776159	Streptococcus mutans UA159 Grown in defined medium with galactose/ Streptococcus mutans UA159 Grown in defined medium with mannitol	GSE6973	GSM160677,GSM160678/GSM160691,GSM160692,GSM160693,GSM160694	1			1		1	1	0	0	maplot				GPL4769		
26778069	Streptococcus mutans UA159 Grown in defined medium with raffinose/ Streptococcus mutans UA159 Grown in defined medium with stachyose	GSE6973	GSM160679,GSM160680/GSM160681,GSM160682	1			1		1	1	0	0	maplot				GPL4769		
26779979	Streptococcus mutans UA159 Grown in defined medium with raffinose/ Streptococcus mutans UA159 Grown in defined medium with tehalose	GSE6973	GSM160679,GSM160680/GSM160683,GSM160684	1			1		1	1	0	0	maplot				GPL4769		
26781889	Streptococcus mutans UA159 Grown in defined medium with raffinose/ Streptococcus mutans UA159 Grown in defined medium with maltose	GSE6973	GSM160679,GSM160680/GSM160685,GSM160686	1			1		1	1	0	0	maplot				GPL4769		
26783799	Streptococcus mutans UA159 Grown in defined medium with raffinose/ Streptococcus mutans UA159 Grown in defined medium with maltotriose	GSE6973	GSM160679,GSM160680/GSM160687,GSM160688	1			1		1	1	0	0	maplot				GPL4769		
26785709	Streptococcus mutans UA159 Grown in defined medium with raffinose/ Streptococcus mutans UA159 Grown in defined medium with cellobiose	GSE6973	GSM160679,GSM160680/GSM160689,GSM160690	1			1		1	1	0	0	maplot				GPL4769		
26787619	Streptococcus mutans UA159 Grown in defined medium with raffinose/ Streptococcus mutans UA159 Grown in defined medium with mannitol	GSE6973	GSM160679,GSM160680/GSM160691,GSM160692,GSM160693,GSM160694	1			1		1	1	0	0	maplot				GPL4769		
26789529	Streptococcus mutans UA159 Grown in defined medium with stachyose/ Streptococcus mutans UA159 Grown in defined medium with trehalose	GSE6973	GSM160681,GSM160682/GSM160683,GSM160684	1			1		1	1	0	0	maplot				GPL4769		
26791439	Streptococcus mutans UA159 Grown in defined medium with stachyose/ Streptococcus mutans UA159 Grown in defined medium with maltose	GSE6973	GSM160681,GSM160682/GSM160685,GSM160686	1			1		1	1	0	0	maplot				GPL4769		
26793349	Streptococcus mutans UA159 Grown in defined medium with stachyose/ Streptococcus mutans UA159 Grown in defined medium with maltotriose	GSE6973	GSM160681,GSM160682/GSM160687,GSM160688	1			1		1	1	0	0	maplot				GPL4769		
26795259	Streptococcus mutans UA159 Grown in defined medium with stachyose/ Streptococcus mutans UA159 Grown in defined medium with cellobiose	GSE6973	GSM160681,GSM160682/GSM160689,GSM160690	1			1		1	1	0	0	maplot				GPL4769		
26797169	Streptococcus mutans UA159 Grown in defined medium with stachyose/ Streptococcus mutans UA159 Grown in defined medium with mannitol	GSE6973	GSM160681,GSM160682/GSM160691,GSM160692,GSM160693,GSM160694	1			1		1	1	0	0	maplot				GPL4769		
26799079	Streptococcus mutans UA159 Grown in defined medium with trehalose/ Streptococcus mutans UA159 Grown in defined medium with maltose	GSE6973	GSM160683,GSM160684/GSM160685,GSM160686	1			1		1	1	0	0	maplot				GPL4769		
26800989	Streptococcus mutans UA159 Grown in defined medium with stachyose/ Streptococcus mutans UA159 Grown in defined medium with maltotriose	GSE6973	GSM160683,GSM160684/GSM160687,GSM160688	1			1		1	1	0	0	maplot				GPL4769		
26802899	Streptococcus mutans UA159 Grown in defined medium with stachyose/ Streptococcus mutans UA159 Grown in defined medium with cellobiose	GSE6973	GSM160683,GSM160684/GSM160689,GSM160690	1			1		1	1	0	0	maplot				GPL4769		
26804809	Streptococcus mutans UA159 Grown in defined medium with stachyose/ Streptococcus mutans UA159 Grown in defined medium with mannitol	GSE6973	GSM160683,GSM160684/GSM160691,GSM160692,GSM160693,GSM160694	1			1		1	1	0	0	maplot				GPL4769		
26806719	Streptococcus mutans UA159 Grown in defined medium with trehalose/ Streptococcus mutans UA159 Grown in defined medium with maltotriose	GSE6973	GSM160685,GSM160686/GSM160687,GSM160688	1			1		1	1	0	0	maplot				GPL4769		
26808629	Streptococcus mutans UA159 Grown in defined medium with trehalose/ Streptococcus mutans UA159 Grown in defined medium with cellobiose	GSE6973	GSM160685,GSM160686/GSM160689,GSM160690	1			1		1	1	0	0	maplot				GPL4769		
26810539	Streptococcus mutans UA159 Grown in defined medium with trehalose/ Streptococcus mutans UA159 Grown in defined medium with mannitol	GSE6973	GSM160685,GSM160686/GSM160691,GSM160692,GSM160693,GSM160694	1			1		1	1	0	0	maplot				GPL4769		
26812449	Streptococcus mutans UA159 Grown in defined medium with maltotriose/ Streptococcus mutans UA159 Grown in defined medium with cellobiose	GSE6973	GSM160687,GSM160688/GSM160689,GSM160690	1			1		1	1	0	0	maplot				GPL4769		
26814359	Streptococcus mutans UA159 Grown in defined medium with maltotriose/ Streptococcus mutans UA159 Grown in defined medium with mannitol	GSE6973	GSM160687,GSM160688/GSM160691,GSM160692,GSM160693,GSM160694	1			1		1	1	0	0	maplot				GPL4769		
26816269	Streptococcus mutans UA159 Grown in defined medium with cellobiose/ Streptococcus mutans UA159 Grown in defined medium with manitol	GSE6973	GSM160689,GSM160690/GSM160691,GSM160692,GSM160693,GSM160694	1			1		1	1	0	0	maplot				GPL4769		
21792143	soxR 2 min paraquat treatment / (soxR) before paraquat treatment	GSE6992	GSM161202/GSM161201	1			1		1	1	0	0	mbplot		2		GPL3154	NC_000913	NC_000913
21804379	WT 2 min paraquat treatment / WT before paraquat treatment	GSE6992	GSM161208,GSM161214/GSM161207,GSM161213	1			1		1	1	0	0	mbplot		2		GPL3154	NC_000913	NC_000913
21816615	soxR 4 min paraquat treatment / (soxR) before paraquat treatment	GSE6992	GSM161203/GSM161201	1			1		1	1	0	0	mbplot		4		GPL3154	NC_000913	NC_000913
21828851	WT 4 min paraquat treatment / WT before paraquat treatment	GSE6992	GSM161209,GSM161215/GSM161207,GSM161213	1			1		1	1	0	0	mbplot		4		GPL3154	NC_000913	NC_000913
21841087	soxR 6 min paraquat treatment / (soxR) before paraquat treatment	GSE6992	GSM161204/GSM161201	1			1		1	1	0	0	mbplot		6		GPL3154	NC_000913	NC_000913
21853323	WT 6 min paraquat treatment / WT before paraquat treatment	GSE6992	GSM161210,GSM161216/GSM161207,GSM161213	1			1		1	1	0	0	mbplot		6		GPL3154	NC_000913	NC_000913
21865559	soxR 8 min paraquat treatment / (soxR) before paraquat treatment	GSE6992	GSM161205/GSM161201	1			1		1	1	0	0	mbplot		8		GPL3154	NC_000913	NC_000913
21877795	WT 8 min paraquat treatment / WT before paraquat treatment	GSE6992	GSM161211,GSM161217/GSM161207,GSM161213	1			1		1	1	0	0	mbplot		8		GPL3154	NC_000913	NC_000913
21890031	soxR 10 min paraquat treatment / (soxR) before paraquat treatment	GSE6992	GSM161206/GSM161201	1			1		1	1	0	0	mbplot		10		GPL3154	NC_000913	NC_000913
21902267	WT 10 min paraquat treatment / WT before paraquat treatment	GSE6992	GSM161212,GSM161218/GSM161207,GSM161213	1			1		1	1	0	0	mbplot		10		GPL3154	NC_000913	NC_000913
21914503	phoU mutant / WT reference	GSE7243	GSM174669,GSM174670,GSM174671/GSM174666,GSM174667,GSM174668	1			1		1	1	0	0	mbplot				GPL3154	NC_000913	NC_000913
21926739	WT tp1: 780 min / WT tp1: 780 min	GSE7265	GSM175161,GSM175162,GSM175163	2			1		0	0	0	0	mbplot				GPL4995		NC_000913
21934818	WT tp2: 830 min / WT tp1: 780 min	GSE7265	GSM175164,GSM175165,GSM175166	2			1		0	0	0	0	mbplot				GPL4995		NC_000913
21942897	WT tp3: 861 min / WT tp1: 780 min	GSE7265	GSM175167,GSM175168,GSM175169	2			1		0	0	0	0	mbplot				GPL4995		NC_000913
21950976	WT tp4: 869 min / WT tp1: 780 min	GSE7265	GSM175170,GSM175171,GSM175172	2			1		0	0	0	0	mbplot				GPL4995		NC_000913
21959055	WT tp5: 878 min / WT tp1: 780 min	GSE7265	GSM175173,GSM175174,GSM175175	2			1		0	0	0	0	mbplot				GPL4995		NC_000913
21967134	WT tp6: 888 min / WT tp1: 780 min	GSE7265	GSM175176,GSM175177,GSM175178	2			1		0	0	0	0	mbplot				GPL4995		NC_000913
21975213	WT tp7: 898 min / WT tp1: 780 min	GSE7265	GSM175179,GSM175180,GSM175181	2			1		0	0	0	0	mbplot				GPL4995		NC_000913
21983292	WT tp8: 908 min / WT tp1: 780 min	GSE7265	GSM175182,GSM175183,GSM175184	2			1		0	0	0	0	mbplot				GPL4995		NC_000913
21991371	WT tp9: 919 min / WT tp1: 780 min	GSE7265	GSM175185,GSM175186,GSM175187	2			1		0	0	0	0	mbplot				GPL4995		NC_000913
21999450	WT tp10: 929 min / WT tp1: 780 min	GSE7265	GSM175188,GSM175189,GSM175190	2			1		0	0	0	0	mbplot				GPL4995		NC_000913
22007529	WT tp11: 939 min / WT tp1: 780 min	GSE7265	GSM175191,GSM175192,GSM175193	2			1		0	0	0	0	mbplot				GPL4995		NC_000913
22015608	WT tp12: 969 min / WT tp1: 780 min	GSE7265	GSM175194,GSM175195,GSM175196	2			1		0	0	0	0	mbplot				GPL4995		NC_000913
22023687	WT tp13: 999 min / WT tp1: 780 min	GSE7265	GSM175197,GSM175198,GSM175199	2			1		0	0	0	0	mbplot				GPL4995		NC_000913
22031766	WT tp14: 1035 min / WT tp1: 780 min	GSE7265	GSM175200,GSM175201,GSM175202	2			1		0	0	0	0	mbplot				GPL4995		NC_000913
22039845	WT tp15: 1049 min / WT tp1: 780 min	GSE7265	GSM175203,GSM175204,GSM175205	2			1		0	0	0	0	mbplot				GPL4995		NC_000913
22047924	WT tp16: 1070 min / WT tp1: 780 min	GSE7265	GSM175206,GSM175207,GSM175208	2			1		0	0	0	0	mbplot				GPL4995		NC_000913
22056003	WT tp17: 1089 min / WT tp1: 780 min	GSE7265	GSM175209,GSM175210,GSM175211	2			1		0	0	0	0	mbplot				GPL4995		NC_000913
22064082	rpoS tp1: 120 min / WT tp1: 780 min	GSE7265	GSM314123,GSM314124,GSM314126	2			1		0	0	0	0	mbplot				GPL4995		NC_000913
22072161	rpoS tp2: 150 min / WT tp1: 780 min	GSE7265	GSM314127,GSM314128,GSM314129	2			1		0	0	0	0	mbplot				GPL4995		NC_000913
22080240	rpoS tp3: 160 min / WT tp1: 780 min	GSE7265	GSM314130,GSM314131,GSM314132	2			1		0	0	0	0	mbplot				GPL4995		NC_000913
22088319	rpoS tp4: 170 min / WT tp1: 780 min	GSE7265	GSM314133,GSM314134,GSM314135	2			1		0	0	0	0	mbplot				GPL4995		NC_000913
22096398	rpoS tp5: 180 min / WT tp1: 780 min	GSE7265	GSM314136,GSM314137,GSM314138	2			1		0	0	0	0	mbplot				GPL4995		NC_000913
22104477	rpoS tp6: 190 min / WT tp1: 780 min	GSE7265	GSM314139,GSM314140,GSM314141	2			1		0	0	0	0	mbplot				GPL4995		NC_000913
22112556	rpoS tp7: 200 min / WT tp1: 780 min	GSE7265	GSM314142,GSM314143,GSM314144	2			1		0	0	0	0	mbplot				GPL4995		NC_000913
22120635	rpoS tp8: 210 min / WT tp1: 780 min	GSE7265	GSM314145,GSM314146,GSM314147	2			1		0	0	0	0	mbplot				GPL4995		NC_000913
22128714	rpoS tp9: 220 min / WT tp1: 780 min	GSE7265	GSM314148,GSM314149,GSM314150	2			1		0	0	0	0	mbplot				GPL4995		NC_000913
22136793	rpoS tp10: 250 min / WT tp1: 780 min	GSE7265	GSM314151,GSM314152,GSM314153	2			1		0	0	0	0	mbplot				GPL4995		NC_000913
22144872	rpoS tp11: 290 min / WT tp1: 780 min	GSE7265	GSM314154,GSM314155,GSM314156	2			1		0	0	0	0	mbplot				GPL4995		NC_000913
22152951	rpoS tp12: 315 min / WT tp1: 780 min	GSE7265	GSM314157,GSM314158,GSM314159	2			1		0	0	0	0	mbplot				GPL4995		NC_000913
22161030	rpoS tp13: 330 min / WT tp1: 780 min	GSE7265	GSM314160,GSM314161,GSM314162	2			1		0	0	0	0	mbplot				GPL4995		NC_000913
22169109	crp tp2: 250 min / WT tp1: 780 min	GSE7265	GSM314163,GSM314164,GSM314165,GSM314166	2			1		0	0	0	0	mbplot				GPL4995		NC_000913
22177188	crp tp5: 405 min / WT tp1: 780 min	GSE7265	GSM314167,GSM314168,GSM314169,GSM314170	2			1		0	0	0	0	mbplot				GPL4995		NC_000913
22185267	crp tp6: 420 min / WT tp1: 780 min	GSE7265	GSM314171,GSM314172,GSM314173,GSM314174	2			1		0	0	0	0	mbplot				GPL4995		NC_000913
22193346	crp tp7: 450 min / WT tp1: 780 min	GSE7265	GSM314175,GSM314176,GSM314177,GSM314178	2			1		0	0	0	0	mbplot				GPL4995		NC_000913
22201425	relA tp1: 832 min / WT tp1: 780 min	GSE7265	GSM314179,GSM314180,GSM314181	2			1		0	0	0	0	mbplot				GPL4995		NC_000913
22209504	relA tp2: 865 min / WT tp1: 780 min	GSE7265	GSM314182,GSM314183,GSM314184	2			1		0	0	0	0	mbplot				GPL4995		NC_000913
22217583	relA tp4: 896 min / WT tp1: 780 min	GSE7265	GSM314185,GSM314186,GSM314187	2			1		0	0	0	0	mbplot				GPL4995		NC_000913
22225662	relA tp5: 909 min / WT tp1: 780 min	GSE7265	GSM314188,GSM314189,GSM314190	2			1		0	0	0	0	mbplot				GPL4995		NC_000913
22233741	relA tp6: 916 min / WT tp1: 780 min	GSE7265	GSM314191,GSM314192,GSM314193	2			1		0	0	0	0	mbplot				GPL4995		NC_000913
22241820	relA tp7: 925 min / WT tp1: 780 min	GSE7265	GSM314194,GSM314195,GSM314196	2			1		0	0	0	0	mbplot				GPL4995		NC_000913
22249899	relA tp8: 935 min / WT tp1: 780 min	GSE7265	GSM314197,GSM314198,GSM314199	2			1		0	0	0	0	mbplot				GPL4995		NC_000913
22257978	relA tp9: 945 min / WT tp1: 780 min	GSE7265	GSM314200,GSM314201,GSM314202	2			1		0	0	0	0	mbplot				GPL4995		NC_000913
22266057	relA tp10: 955 min / WT tp1: 780 min	GSE7265	GSM314203,GSM314204,GSM314205	2			1		0	0	0	0	mbplot				GPL4995		NC_000913
22274136	relA tp11: 966 min / WT tp1: 780 min	GSE7265	GSM314206,GSM314207,GSM314208	2			1		0	0	0	0	mbplot				GPL4995		NC_000913
26237474	Staphylococcus aureus acid treated / Staphylococcus aureus control for 2min	GSE7273	GSM175464,GSM175465,GSM175466	2			1		0	0	0	0	mbplot				GPL4996		
26239693	Staphylococcus aureus acid treated / Staphylococcus aureus control in 5min	GSE7273	GSM175467,GSM175468,GSM175469	2			1		1	0	0	0	mbplot				GPL4996		
26241912	Staphylococcus aureus acid treated / Staphylococcus aureus control in 10 min	GSE7273	GSM175470,GSM175471,GSM175472	2			1		1	0	0	0	mbplot				GPL4996		
26244131	Staphylococcus aureus acid  treated / Staphylococcus aureus control in 20min	GSE7273	GSM175473,GSM175474,GSM175475	2			1		1	0	0	0	mbplot				GPL4996		
22282215	PaeR7I r+m+ pTN9, 0 h / PaeR7I r-m+ pTN11, 0 h	GSE7326	GSM176689,GSM176690/GSM176691,GSM176692	1			1		1	0	0	0	mbplot				GPL199	NC_000913	NC_000913
22286818	PaeR7I r+m+ pTN9, 1 h / PaeR7I r-m+ pTN11, 1 h; Rep1	GSE7326	GSM176695/GSM176697	1			1		1	0	0	0	mbplot				GPL199	NC_000913	NC_000913
22291421	PaeR7I r+m+ pTN9, 1 h / PaeR7I r-m+ pTN11, 1 h; Rep2	GSE7326	GSM176696/GSM176698	1			1		1	0	0	0	mbplot				GPL199	NC_000913	NC_000913
22296024	PaeR7I r+m+ pTN9, 1 h 50 m / PaeR7I r-m+ pTN11, 1 h 50 m	GSE7326	GSM176701,GSM176702/GSM176703,GSM176704	1			1		1	0	0	0	mbplot				GPL199	NC_000913	NC_000913
22300627	PaeR7I r+m+ pTN9, 3 h / PaeR7I r-m+ pTN11, 3 h	GSE7326	GSM176707,GSM176708/GSM176709,GSM176710	1			1		1	0	0	0	mbplot				GPL199	NC_000913	NC_000913
18567959	codY-mutant of Streptococcus pneumoniae / Wild type	GSE7350	GSM176875,GSM176877,GSM177084,GSM177085,GSM177086,GSM177087,GSM177088	2			1		0	0	0	0	mbplot				GPL5023		
22305230	90 min fis / WT	GSE7398	GSM177549,GSM177553,GSM177557/GSM177561,GSM177565,GSM177569	1			1		1	0	0	0	mbplot		90		GPL199	NC_000913	NC_000913
22309833	150 min fis / WT	GSE7398	GSM177550,GSM177554,GSM177558/GSM177562,GSM177566,GSM177570	1			1		1	0	0	0	mbplot		150		GPL199	NC_000913	NC_000913
22314436	240 min fis / WT	GSE7398	GSM177551,GSM177555,GSM177559/GSM177563,GSM177567,GSM177571	1			1		1	0	0	0	mbplot		240		GPL199	NC_000913	NC_000913
22319039	360 min fis / WT	GSE7398	GSM177552,GSM177556,GSM177560/GSM177564,GSM177568,GSM177572	1			1		1	0	0	0	mbplot		360		GPL199	NC_000913	NC_000913
22323642	8624 strain / VS94 strain	GSE7439	GSM180104/GSM180102	1			1		1	1	0	0	mbplot				GPL3154	NC_002655	NC_002655
22332865	DPD VS94 strain / VS94 strain	GSE7439	GSM180106/GSM180102	1			1		1	1	0	0	mbplot				GPL3154	NC_002655	NC_002655
22342088	Epinephrine VS94 strain / VS94 strain	GSE7439	GSM180110/GSM180102	1			1		1	1	0	0	mbplot				GPL3154	NC_002655	NC_002655
22351311	AI3 VS94 strain / VS94  strain	GSE7439	GSM180112/GSM180102	1			1		1	1	0	0	mbplot				GPL3154	NC_002655	NC_002655
26166907	grown at 37degree to log phase / grown at 4degree to log phase	GSE7465	GSM180671	2			1		0	0	0	0	mbplot				GPL5029		
26169814	grown at 37degree to stationary phase / grown at 4 degree to stationary phase	GSE7465	GSM180672	2			1		0	0	0	0	mbplot				GPL5029		
22360534	4h late exponential phase / 3h mid-exponental phase	GSE7477	GSM177485,GSM177487,GSM177488,GSM177489	2			1		0	0	0	0	mbplot		240		GPL5047		NC_002695
22365771	4.3h late exponential phase / 3h mid exponential phase	GSE7477	GSM177874,GSM177875,GSM177876,GSM177877	2			1		0	0	0	0	mbplot		258		GPL5047		NC_002695
22371008	4.6h late exponential phase / 3h mid exponential phase	GSE7477	GSM178824,GSM178825,GSM178826,GSM178827	2			1		0	0	0	0	mbplot		276		GPL5047		NC_002695
22376245	5h stationary phase transition / 3h mid exponential phase	GSE7477	GSM179581,GSM179582,GSM179583,GSM179586	2			1		0	0	0	0	mbplot		300		GPL5047		NC_002695
22381482	5.5h early stationary phase / 3h mid exponential phase	GSE7477	GSM180237,GSM180238,GSM180239,GSM180240	2			1		0	0	0	0	mbplot		330		GPL5047		NC_002695
22386719	6h stationary phase / 3h mid exponential phase	GSE7477	GSM181003,GSM181004,GSM181005,GSM181006	2			1		0	0	0	0	mbplot		360		GPL5047		NC_002695
22391956	7h stationary phase / 3h mid exponential phase	GSE7477	GSM181007,GSM181008,GSM181009,GSM181010	2			1		0	0	0	0	mbplot		420		GPL5047		NC_002695
22397193	7.5h stationary phase / 3h mid exponential phase	GSE7477	GSM181011,GSM181012,GSM181013,GSM181014	2			1		0	0	0	0	mbplot		450		GPL5047		NC_002695
22402430	8h stationary phase / 3h mid exponential phase	GSE7477	GSM181015,GSM181016,GSM181017,GSM181018	2			1		0	0	0	0	mbplot		480		GPL5047		NC_002695
26193070	Listeria monocytogenes 10403S / Listeria monocytogenes FSL A1-254 (sigB null mutant) exposed to 0.3M NaCl in log phase	GSE7492	GSM181533	2			1		0	0	0	0	mbplot				GPL5029		
26195977	Listeria monocytogenes 10403S / Listeria monocytogenes FSL A1-254 (sigB null mutant) in early stationary phase	GSE7492	GSM181534	2			1		0	0	0	0	mbplot				GPL5029		
26190163	Listeria innocua FSL C2-008 / Listeria innocua FSL R4-009 exposed to 0.3M NaCl in log phase	GSE7492	GSM181535	2			1		0	0	0	0	mbplot				GPL5029		
26187256	Listeria innocua FSL C2-008 / Listeria innocua FSL R4-009 (sigB null mutant) in stationary phase	GSE7492	GSM181536	2			1		0	0	0	0	mbplot				GPL5029		
26210756	Listeria monocytogenes 10403S / Listeria monocytogenes FSL H6-190 (ctsR null mutant)	GSE7514	GSM182058	2			1		0	0	0	0	mbplot				GPL5029		
26213663	Listeria monocytogenes FSL H6-195 (ictsR-mcsA strain) / Listeria monocytogenes FSL H6-190 (ctsR null mutant)	GSE7514	GSM182086	2			1		0	0	0	0	mbplot				GPL5029		
26164000	Listeria monocytogenes 10403S / Listeria monocytogenes FSL B2-101 (hrcA null mutant)	GSE7517	GSM182055	2			1		0	0	0	0	mbplot				GPL5029		
8392430	H37Rv/H37Ra early log phase	GSE7539	GSM182654,GSM182655,GSM182656,GSM182660,GSM182661,GSM182662	2			1		0	0	0	0	mbplot				GPL5095		
8374882	H37Ra/H37Rv early log phase	GSE7539	GSM182657,GSM182658,GSM182659,GSM182663,GSM182664,GSM182665	2			1		0	0	0	0	mbplot				GPL5095		
8396817	H37Rv/H37Ra log phase	GSE7539	GSM182666,GSM182667,GSM182668,GSM182672,GSM182673,GSM182674	2			1		0	0	0	0	mbplot				GPL5095		
8379269	H37Ra/H37Rv log phase	GSE7539	GSM182669,GSM182670,GSM182671,GSM182675,GSM182676,GSM182677	2			1		0	0	0	0	mbplot				GPL5095		
8383656	H37Ra/H37Rv stationay pahse	GSE7539	GSM182681,GSM182682,GSM182683,GSM182687,GSM182688,GSM182689	2			1		0	0	0	0	mbplot				GPL5095		
8388043	H37Rv/H37Ra 1year	GSE7539	GSM182690,GSM182691,GSM182692,GSM182693,GSM182698,GSM182699,GSM182700	2			1		0	0	0	0	mbplot				GPL5095		
8370495	H37Ra /H37Rv 1year	GSE7539	GSM182694,GSM182695,GSM182696,GSM182697,GSM182701,GSM182702,GSM182703	2			1		0	0	0	0	mbplot				GPL5095		
9767831	mutant without glucose at OD1.0 / wild type without glucose at OD1.0	GSE7558	GSM181546,GSM181547	2	2	3	4	5	1	1	0	0	mbplot				GPL5069		
9816690	mutant without glucose at OD1.0 / wild type without glucose at OD1.0	GSE7558	GSM181548,GSM181549	2	4	5	2	3	1	1	0	0	mbplot				GPL5069		
9773122	mutant at without glucose OD1.0 / wild type without glucose at OD1.0	GSE7558	GSM181550,GSM181551,GSM181552,GSM181553	2	2	3	4	5	1	1	0	0	mbplot				GPL5069		
9811399	mutant without glucose at OD1.0 / wild type without glucose at OD1.0	GSE7558	GSM181554,GSM181555,GSM181556,GSM181557	2	4	5	2	3	1	1	0	0	mbplot				GPL5069		
9778413	mutant without glucose at OD2.0 / wild type without glucose at OD2.0	GSE7558	GSM181824,GSM182057,GSM182085,GSM182088,GSM182089,GSM182101	2	2	3	4	5	1	1	0	0	mbplot				GPL5069		
9806108	mutant without glucose at OD2.0 / wild type without glucose at OD2.0	GSE7558	GSM182103,GSM182104,GSM182105,GSM182136,GSM182137,GSM182138	2	4	5	2	3	1	1	0	0	mbplot				GPL5069		
9783704	mutant with 0.5% glucose at OD1.0 / wild type with 0.5% glucose at OD1.0	GSE7558	GSM182563,GSM182628,GSM183327,GSM183329,GSM183331,GSM183333	2	2	3	4	5	1	1	0	0	mbplot				GPL5096		
9789305	mutant with 0.5% glucose at OD2.0 / wild type with 0.5% glucose at OD2.0	GSE7558	GSM183335,GSM183336,GSM183337,GSM183339,GSM183340	2	2	3	4	5	1	1	0	0	mbplot				GPL5096		
9800507	mutant with 0.5% glucose at OD1.0 / wild type with 0.5% glucose at OD1.0	GSE7558	GSM183343,GSM183345,GSM183346,GSM183348,GSM183350	2	4	5	2	3	1	1	0	0	mbplot				GPL5096		
9794906	mutant with 0.5% glucose at OD2.0 / wild type with 0.5% glucose at OD2.0	GSE7558	GSM183351,GSM183352,GSM183354,GSM183355	2	4	5	2	3	1	1	0	0	mbplot				GPL5096		
22407667	argR +NO / argR untreated (expt 1)	GSE7573	GSM183524,GSM183526	2	4	5	2	3	1	1	0	0	mbplot				GPL5113		NC_000913
22412176	argR +NO / argR untreated (expt 2)	GSE7573	GSM183528,GSM183529	2	2	3	4	5	1	1	0	0	mbplot				GPL5113		NC_000913
22416695	WT +serine hydroxamate / WT untreated	GSE7573	GSM188008,GSM188009,GSM188010,GSM188011	2	4	5	2	3	1	1	0	0	mbplot				GPL5113		NC_000913
22421217	ArcA +NO / ArcA untreated	GSE7573	GSM188036,GSM188037,GSM188038,GSM188039	2	4	5	2	3	1	1	0	0	mbplot				GPL5113		NC_000913
22425735	WT +degraded DeaNO / WT untreated	GSE7573	GSM188363,GSM188364,GSM188365,GSM188366	2	4	5	2	3	1	1	0	0	mbplot				GPL5113		NC_000913
22430250	iscR +NO / iscR untreated	GSE7573	GSM188367,GSM188368,GSM188369,GSM188370	2	4	5	2	3	1	1	0	0	mbplot				GPL5113		NC_000913
22434771	metJ +NO / metJ untreated (expt 1)	GSE7573	GSM188371,GSM188372	2	4	5	2	3	1	1	0	0	mbplot				GPL5113		NC_000913
22439288	metJ +NO / metJ untreated (expt 2)	GSE7573	GSM188373,GSM188374	2	2	3	4	5	1	1	0	0	mbplot				GPL5113		NC_000913
22443806	norR +NO / norR untreated (expt 1)	GSE7573	GSM188375,GSM188376	2	4	5	2	3	1	1	0	0	mbplot				GPL5113		NC_000913
22448328	norR +NO / norR untreated (expt 2)	GSE7573	GSM188377,GSM188378	2	2	3	4	5	1	1	0	0	mbplot				GPL5113		NC_000913
22452850	nsrR +NO / nsrR untreated	GSE7573	GSM188379,GSM188380	2	4	5	2	3	1	1	0	0	mbplot				GPL5113		NC_000913
22457363	nsrR hmpA +NO / nsrR hmpA untreated (expt 1)	GSE7573	GSM188381,GSM188382	2	4	5	2	3	1	1	0	0	mbplot				GPL5113		NC_000913
22461876	nsrR hmpA +NO / nsrR hmpA untreated (expt 2)	GSE7573	GSM188383	2	2	3	4	5	1	1	0	0	mbplot				GPL5113		NC_000913
22466379	WT +NO / WT untreated (diff platform)	GSE7573	GSM188384	2	4	5	2	3	1	1	0	0	mbplot				GPL5146		NC_000913
22470860	WT +NO / WT untreated	GSE7573	GSM188385,GSM188388,GSM188389	2	4	5	2	3	1	1	0	0	mbplot				GPL5113		NC_000913
22475380	WT +NO / WT untreated (dye swap)	GSE7573	GSM188386,GSM188387	2	2	3	4	5	1	1	0	0	mbplot				GPL5113		NC_000913
22479898	WT +met +NO / WT untreated	GSE7573	GSM188390,GSM188391,GSM188392,GSM188393	2	4	5	2	3	1	1	0	0	mbplot				GPL5113		NC_000913
6709362	capreomycin treated / H37Rv log-phase culture	GSE7588	GSM183632,GSM183634/GSM183531,GSM183633	1			1		1	0	0	0	mbplot				GPL4519	NC_003317	NC_003317
18567717	Total RNA from adherent SF370 (#1) labeled with Cy3 / Total RNA from associated SF370 (#1) labeled with Cy5	GSE7620	GSM184346,GSM184348,GSM184350,GSM184352	2			1		0	0	0	0	mbplot				GPL5122		
18567838	Total RNA from adherent SF370  labeled with Cy5 / Total RNA from associated SF370  labeled with Cy3	GSE7620	GSM184347,GSM184349,GSM184351,GSM184353	2			1		0	0	0	0	mbplot				GPL5122		
22484413	E. coli NCM3722 + 0.3 M NaCl / E. coli NCM3722 control; 30 degrees	GSE7656	GSM175737,GSM183489,GSM183495/GSM175728,GSM183488,GSM183494	1			1		1	1	0	0	maplot				GPL3154	NC_000913	NC_000913
22496649	E. coli NCM3722 + 0.3 M NaCl + 1mM glycine betaine / E. coli NCM3722 control; 30 degrees	GSE7656	GSM183470,GSM183490,GSM183496/GSM175728,GSM183488,GSM183494	1			1		1	1	0	0	maplot				GPL3154	NC_000913	NC_000913
22508885	E. coli NCM3722 + 0.3 M NaCl / E. coli NCM3722 control; 43 degrees	GSE7656	GSM183472,GSM183492,GSM183498/GSM183471,GSM183491,GSM183497	1			1		1	1	0	0	maplot				GPL3154	NC_000913	NC_000913
22521121	E. coli NCM3722 + 0.3 M NaCl + 1mM glycine betaine / E. coli NCM3722 control; 43 degrees	GSE7656	GSM183473,GSM183493,GSM183499/GSM183471,GSM183491,GSM183497	1			1		1	1	0	0	maplot				GPL3154	NC_000913	NC_000913
28642023	PFK study: Streptomyces coelicolor M145 pfkA2 deletion mutant / PFK study: Streptomyces coelicolor M145 wild type	GSE7686	GSM186203,GSM186204,GSM186205,GSM186206	2			3		0	0	0	0	mbplot				GPL5136		
30328848	Listeria monocytogenes 10403S alkaline shocked RNA 15 min / Listeria monocytogenes 10403S alkaline shock control RNA	GSE7854	GSM190493	2			1		0	0	0	0	mbplot				GPL5170		
30326322	Listeria monocytogenes 10403S alkaline (ph 9.0) treated cells 30 min / Listeria monocytogenes 10403S	GSE7854	GSM190567	2			1		0	0	0	0	mbplot				GPL5170		
30331364	Listeria monocytogenes 10403S  60 min alkaline (ph 9.0) shocked cells 60 min / Listeria monocytogenes control	GSE7854	GSM190606	2			1		0	0	0	0	mbplot				GPL5170		
30325163	Listeria monocytogenes 10403S alkaline adapted cells / Listeria monocytogenes control	GSE7854	GSM190611	2			1		0	0	0	0	mbplot				GPL5170		
22533357	rpoS biofilm  / WT biofilm	GSE7885	GSM194046,GSM194047,GSM194048/GSM194049,GSM194050,GSM194051	1			1		1	1	0	0	maplot				GPL199	NC_000913	NC_000913
22537960	WT biofilm / WT exponential	GSE7885	GSM194049,GSM194050,GSM194051/GSM194055,GSM194056,GSM194057	1			1		1	1	0	0	maplot				GPL199	NC_000913	NC_000913
22542563	rpoS exponential / WT exponential	GSE7885	GSM194052,GSM194053,GSM194054/GSM194055,GSM194056,GSM194057	1			1		1	1	0	0	maplot				GPL199	NC_000913	NC_000913
22547166	WT stationary phase / WT exponential	GSE7885	GSM194058,GSM194059,GSM194060/GSM194055,GSM194056,GSM194057	1			1		1	1	0	0	maplot				GPL199	NC_000913	NC_000913
22551769	rpoS stationary / WT stationary	GSE7885	GSM194061,GSM194062,GSM194063/GSM194058,GSM194059,GSM194060	1			1		1	1	0	0	maplot				GPL199	NC_000913	NC_000913
26137268	Listeria monocytogenes alkaline (pH 9.5) treated cells / Listeria monocytogenes control	GSE7966	GSM190607	2			1		0	0	0	0	mbplot				GPL5170		
28928659	S. coelicolor RNA R5- medium 15h / S. coelicolor RNA R5- medium 22h using block1 signal	GSE8084	GSM200019,GSM200020/GSM200021,GSM200022	1			2		1	1	0	0	maplot				GPL4908		
28936191	S. coelicolor RNA R5- medium 15h / S. coelicolor RNA R5- medium 24h using block1 signal	GSE8084	GSM200019,GSM200020/GSM200023	1			2		1	1	0	0	maplot				GPL4908		
28943723	S. coelicolor RNA R5- medium 15h / S. coelicolor RNA R5- medium 26h using block1 signal	GSE8084	GSM200019,GSM200020/GSM200024	1			2		1	1	0	0	maplot				GPL4908		
28951255	S. coelicolor RNA R5- medium 15h / S. coelicolor RNA R5- medium 35h using block1 signal	GSE8084	GSM200019,GSM200020/GSM200025	1			2		1	1	0	0	maplot				GPL4908		
28958787	S. coelicolor RNA R5- medium 15h / S. coelicolor RNA R5- medium 43h using block1 signal	GSE8084	GSM200019,GSM200020/GSM200026	1			2		1	1	0	0	maplot				GPL4908		
28966319	S. coelicolor RNA R5- medium 22h / S. coelicolor RNA R5- medium 24h using block1 signal	GSE8084	GSM200021,GSM200022/GSM200023	1			2		1	1	0	0	maplot				GPL4908		
28981383	S. coelicolor RNA R5- medium 22h / S. coelicolor RNA R5- medium 26h using block1 signal	GSE8084	GSM200021,GSM200022/GSM200024	1			2		1	1	0	0	maplot				GPL4908		
28988915	S. coelicolor RNA R5- medium 22h / S. coelicolor RNA R5- medium 35h using block1 signal	GSE8084	GSM200021,GSM200022/GSM200025	1			2		1	1	0	0	maplot				GPL4908		
28996447	S. coelicolor RNA R5- medium 22h / S. coelicolor RNA R5- medium 43h using block1 signal	GSE8084	GSM200021,GSM200022/GSM200026	1			2		1	1	0	0	maplot				GPL4908		
29003979	S. coelicolor RNA R5- medium 24h / S. coelicolor RNA R5- medium 26h using block1 signal	GSE8084	GSM200023/GSM200024	1			2		1	1	0	0	maplot				GPL4908		
29011511	S. coelicolor RNA R5- medium 24h / S. coelicolor RNA R5- medium 35h using block1 signal	GSE8084	GSM200023/GSM200025	1			2		1	1	0	0	maplot				GPL4908		
29019043	S. coelicolor RNA R5- medium 26h / S. coelicolor RNA R5- medium 35h using block1 signal	GSE8084	GSM200024/GSM200025	1			2		1	1	0	0	maplot				GPL4908		
29026575	S. coelicolor RNA R5- medium 26h / S. coelicolor RNA R5- medium 43h using block1 signal	GSE8084	GSM200024/GSM200026	1			2		1	1	0	0	maplot				GPL4908		
29041639	S. coelicolor RNA R5- medium 35h / S. coelicolor RNA R5- medium 43h using block1 signal	GSE8084	GSM200025/GSM200026	1			2		1	1	0	0	maplot				GPL4908		
28710231	S. coelicolor RNA R5- medium 10h / S. coelicolor RNA R5- medium 13h using block 1 signal	GSE8086	GSM200659,GSM200660/GSM200661,GSM200662	1			2		1	1	0	0	maplot				GPL4908		
28717763	S. coelicolor RNA R5- medium 10h / S. coelicolor RNA R5- medium 16h using block 1 signal	GSE8086	GSM200659,GSM200660/GSM200663,GSM200664,GSM200665	1			2		1	1	0	0	maplot				GPL4908		
28725295	S. coelicolor RNA R5- medium 10h / S. coelicolor RNA R5- medium 19h using block 1 signal	GSE8086	GSM200659,GSM200660/GSM200666,GSM200667	1			2		1	1	0	0	maplot				GPL4908		
28732827	S. coelicolor RNA R5- medium 10h / S. coelicolor RNA R5- medium 25h using block 1 signal	GSE8086	GSM200659,GSM200660/GSM200668,GSM200669	1			2		1	1	0	0	maplot				GPL4908		
28740359	S. coelicolor RNA R5- medium 10h / S. coelicolor RNA R5- medium 31h using block 1 signal	GSE8086	GSM200659,GSM200660/GSM200670,GSM200676	1			2		1	1	0	0	maplot				GPL4908		
28747891	S. coelicolor RNA R5- medium 10h / S. coelicolor RNA R5- medium 35h using block 1 signal	GSE8086	GSM200659,GSM200660/GSM200671,GSM200677	1			2		1	1	0	0	maplot				GPL4908		
28755423	S. coelicolor RNA R5- medium 10h / S. coelicolor RNA R5- medium 37h using block 1 signal	GSE8086	GSM200659,GSM200660/GSM200672,GSM200673	1			2		1	1	0	0	maplot				GPL4908		
28762955	S. coelicolor RNA R5- medium 13h / S. coelicolor RNA R5- medium 16h using block 1 signal	GSE8086	GSM200661,GSM200662/GSM200663,GSM200664,GSM200665	1			2		1	1	0	0	maplot				GPL4908		
28770487	S. coelicolor RNA R5- medium 13h / S. coelicolor RNA R5- medium 19h using block 1 signal	GSE8086	GSM200661,GSM200662/GSM200666,GSM200667	1			2		1	1	0	0	maplot				GPL4908		
28778019	S. coelicolor RNA R5- medium 13h / S. coelicolor RNA R5- medium 25h using block 1 signal	GSE8086	GSM200661,GSM200662/GSM200668,GSM200669	1			2		1	1	0	0	maplot				GPL4908		
28785551	S. coelicolor RNA R5- medium 13h / S. coelicolor RNA R5- medium 31h using block 1 signal	GSE8086	GSM200661,GSM200662/GSM200670,GSM200676	1			2		1	1	0	0	maplot				GPL4908		
28793083	S. coelicolor RNA R5- medium 13h / S. coelicolor RNA R5- medium 35h using block 1 signal	GSE8086	GSM200661,GSM200662/GSM200671,GSM200677	1			2		1	1	0	0	maplot				GPL4908		
28800615	S. coelicolor RNA R5- medium 13h / S. coelicolor RNA R5- medium 37h using block 1 signal	GSE8086	GSM200661,GSM200662/GSM200672,GSM200673	1			2		1	1	0	0	maplot				GPL4908		
28808147	S. coelicolor RNA R5- medium 16h / S. coelicolor RNA R5- medium 19h using block 1 signal	GSE8086	GSM200663,GSM200664,GSM200665/GSM200666,GSM200667	1			2		1	1	0	0	maplot				GPL4908		
28815679	S. coelicolor RNA R5- medium 16h / S. coelicolor RNA R5- medium 25h using block 1 signal	GSE8086	GSM200663,GSM200664,GSM200665/GSM200668,GSM200669	1			2		1	1	0	0	maplot				GPL4908		
28823211	S. coelicolor RNA R5- medium 16h / S. coelicolor RNA R5- medium 31h using block 1 signal	GSE8086	GSM200663,GSM200664,GSM200665/GSM200670,GSM200676	1			2		1	1	0	0	maplot				GPL4908		
28830743	S. coelicolor RNA R5- medium 16h / S. coelicolor RNA R5- medium 35h using block 1 signal	GSE8086	GSM200663,GSM200664,GSM200665/GSM200671,GSM200677	1			2		1	1	0	0	maplot				GPL4908		
28838275	S. coelicolor RNA R5- medium 16h / S. coelicolor RNA R5- medium 37h using block 1 signal	GSE8086	GSM200663,GSM200664,GSM200665/GSM200672,GSM200673	1			2		1	1	0	0	maplot				GPL4908		
28845807	S. coelicolor RNA R5- medium 19h / S. coelicolor RNA R5- medium 25h using block 1 signal	GSE8086	GSM200666,GSM200667/GSM200668,GSM200669	1			2		1	1	0	0	maplot				GPL4908		
28853339	S. coelicolor RNA R5- medium 19h / S. coelicolor RNA R5- medium 31h using block 1 signal	GSE8086	GSM200666,GSM200667/GSM200670,GSM200676	1			2		1	1	0	0	maplot				GPL4908		
28860871	S. coelicolor RNA R5- medium 19h / S. coelicolor RNA R5- medium 35h using block 1 signal	GSE8086	GSM200666,GSM200667/GSM200671,GSM200677	1			2		1	1	0	0	maplot				GPL4908		
28868403	S. coelicolor RNA R5- medium 19h / S. coelicolor RNA R5- medium 37h using block 1 signal	GSE8086	GSM200666,GSM200667/GSM200672,GSM200673	1			2		1	1	0	0	maplot				GPL4908		
28875935	S. coelicolor RNA R5- medium 25h / S. coelicolor RNA R5- medium 31h using block 1 signal	GSE8086	GSM200668,GSM200669/GSM200670,GSM200676	1			2		1	1	0	0	maplot				GPL4908		
28883467	S. coelicolor RNA R5- medium 25h / S. coelicolor RNA R5- medium 35h using block 1 signal	GSE8086	GSM200668,GSM200669/GSM200671,GSM200677	1			2		1	1	0	0	maplot				GPL4908		
28890999	S. coelicolor RNA R5- medium 25h / S. coelicolor RNA R5- medium 37h using block 1 signal	GSE8086	GSM200668,GSM200669/GSM200672,GSM200673	1			2		1	1	0	0	maplot				GPL4908		
28898531	S. coelicolor RNA R5- medium 31h / S. coelicolor RNA R5- medium 35h using block 1 signal	GSE8086	GSM200670,GSM200676/GSM200671,GSM200677	1			2		1	1	0	0	maplot				GPL4908		
28906063	S. coelicolor RNA R5- medium 31h / S. coelicolor RNA R5- medium 37h using block 1 signal	GSE8086	GSM200670,GSM200676/GSM200672,GSM200673	1			2		1	1	0	0	maplot				GPL4908		
28921127	S. coelicolor RNA R5- medium 35h / S. coelicolor RNA R5- medium 37h using block 1 signal	GSE8086	GSM200671,GSM200677/GSM200672,GSM200673	1			2		1	1	0	0	maplot				GPL4908		
28649975	S. coelicolor RNA R5- medium 22h / S. coelicolor RNA R5- medium 10h using block 1 signal	GSE8086	GSM200674,GSM200675/GSM200659,GSM200660	1			2		1	1	0	0	maplot				GPL4908		
28657507	S. coelicolor RNA R5- medium 22h / S. coelicolor RNA R5- medium 13h using block 1 signal	GSE8086	GSM200674,GSM200675/GSM200661,GSM200662	1			2		1	1	0	0	maplot				GPL4908		
28665039	S. coelicolor RNA R5- medium 22h / S. coelicolor RNA R5- medium 16h using block 1 signal	GSE8086	GSM200674,GSM200675/GSM200663,GSM200664,GSM200665	1			2		1	1	0	0	maplot				GPL4908		
28672571	S. coelicolor RNA R5- medium 22h / S. coelicolor RNA R5- medium 19h using block 1 signal	GSE8086	GSM200674,GSM200675/GSM200666,GSM200667	1			2		1	1	0	0	maplot				GPL4908		
28680103	S. coelicolor RNA R5- medium 22h / S. coelicolor RNA R5- medium 25h using block 1 signal	GSE8086	GSM200674,GSM200675/GSM200668,GSM200669	1			2		1	1	0	0	maplot				GPL4908		
28687635	S. coelicolor RNA R5- medium 22h / S. coelicolor RNA R5- medium 31h using block 1 signal	GSE8086	GSM200674,GSM200675/GSM200670,GSM200676	1			2		1	1	0	0	maplot				GPL4908		
28695167	S. coelicolor RNA R5- medium 22h / S. coelicolor RNA R5- medium 35h using block 1 signal	GSE8086	GSM200674,GSM200675/GSM200671,GSM200677	1			2		1	1	0	0	maplot				GPL4908		
28702699	S. coelicolor RNA R5- medium 22h / S. coelicolor RNA R5- medium 37h using block 1 signal	GSE8086	GSM200674,GSM200675/GSM200672,GSM200673	1			2		1	1	0	0	maplot				GPL4908		
29164176	S. coelicolor RNA R5- medium 13h / S. coelicolor RNA R5- medium 10h using block1 signal	GSE8107	GSM200818,GSM200819/GSM200817	1			2		1	1	0	0	maplot				GPL4908		
29081324	S. coelicolor RNA R5- medium 13h / S. coelicolor RNA R5- medium 14h	GSE8107	GSM200818,GSM200819/GSM200820,GSM200821	1			2		1	1	0	0	maplot				GPL4908		
29088856	S. coelicolor RNA R5- medium 13h / S. coelicolor RNA R5- medium 16h using block1 signal	GSE8107	GSM200818,GSM200819/GSM200822,GSM200823	1			2		1	1	0	0	maplot				GPL4908		
29096388	S. coelicolor RNA R5- medium 13h / S. coelicolor RNA R5- medium 18h using block1 signal	GSE8107	GSM200818,GSM200819/GSM200824,GSM200825	1			2		1	1	0	0	maplot				GPL4908		
29103920	S. coelicolor RNA R5- medium 13h / S. coelicolor RNA R5- medium 20h using block1 signal	GSE8107	GSM200818,GSM200819/GSM200826,GSM200827	1			2		1	1	0	0	maplot				GPL4908		
29111452	S. coelicolor RNA R5- medium 13h / S. coelicolor RNA R5- medium 22h using block1 signal	GSE8107	GSM200818,GSM200819/GSM200828,GSM200829	1			2		1	1	0	0	maplot				GPL4908		
29118984	S. coelicolor RNA R5- medium 13h / S. coelicolor RNA R5- medium 24h using block1 signal	GSE8107	GSM200818,GSM200819/GSM200830,GSM200831	1			2		1	1	0	0	maplot				GPL4908		
29126516	S. coelicolor RNA R5- medium 13h / S. coelicolor RNA R5- medium 27h using block1 signal	GSE8107	GSM200818,GSM200819/GSM200832	1			2		1	1	0	0	maplot				GPL4908		
29134048	S. coelicolor RNA R5- medium 13h / S. coelicolor RNA R5- medium 29h using block1 signal	GSE8107	GSM200818,GSM200819/GSM200833	1			2		1	1	0	0	maplot				GPL4908		
29141580	S. coelicolor RNA R5- medium 13h / S. coelicolor RNA R5- medium 32h using block1 signal	GSE8107	GSM200818,GSM200819/GSM200834,GSM200835	1			2		1	1	0	0	maplot				GPL4908		
29149112	S. coelicolor RNA R5- medium 13h / S. coelicolor RNA R5- medium 34h using block1 signal	GSE8107	GSM200818,GSM200819/GSM200836	1			2		1	1	0	0	maplot				GPL4908		
29156644	S. coelicolor RNA R5- medium 13h / S. coelicolor RNA R5- medium 37h using block1 signal	GSE8107	GSM200818,GSM200819/GSM200837,GSM200838	1			2		1	1	0	0	maplot				GPL4908		
29247028	S. coelicolor RNA R5- medium 14h / S. coelicolor RNA R5- medium 10h using block1 signal	GSE8107	GSM200820,GSM200821/GSM200817	1			2		1	1	0	0	maplot				GPL4908		
29171708	S. coelicolor RNA R5- medium 14h / S. coelicolor RNA R5- medium 16h using block1 signal	GSE8107	GSM200820,GSM200821/GSM200822,GSM200823	1			2		1	1	0	0	maplot				GPL4908		
29179240	S. coelicolor RNA R5- medium 14h / S. coelicolor RNA R5- medium 18h using block1 signal	GSE8107	GSM200820,GSM200821/GSM200824,GSM200825	1			2		1	1	0	0	maplot				GPL4908		
29186772	S. coelicolor RNA R5- medium 14h / S. coelicolor RNA R5- medium 20h using block1 signal	GSE8107	GSM200820,GSM200821/GSM200826,GSM200827	1			2		1	1	0	0	maplot				GPL4908		
29194304	S. coelicolor RNA R5- medium 14h / S. coelicolor RNA R5- medium 22h using block1 signal	GSE8107	GSM200820,GSM200821/GSM200828,GSM200829	1			2		1	1	0	0	maplot				GPL4908		
29201836	S. coelicolor RNA R5- medium 14h / S. coelicolor RNA R5- medium 24h using block1 signal	GSE8107	GSM200820,GSM200821/GSM200830,GSM200831	1			2		1	1	0	0	maplot				GPL4908		
29209368	S. coelicolor RNA R5- medium 14h / S. coelicolor RNA R5- medium 27h using block1 signal	GSE8107	GSM200820,GSM200821/GSM200832	1			2		1	1	0	0	maplot				GPL4908		
29216900	S. coelicolor RNA R5- medium 14h / S. coelicolor RNA R5- medium 29h using block1 signal	GSE8107	GSM200820,GSM200821/GSM200833	1			2		1	1	0	0	maplot				GPL4908		
29224432	S. coelicolor RNA R5- medium 14h / S. coelicolor RNA R5- medium 32h using block1 signal	GSE8107	GSM200820,GSM200821/GSM200834,GSM200835	1			2		1	1	0	0	maplot				GPL4908		
29231964	S. coelicolor RNA R5- medium 14h / S. coelicolor RNA R5- medium 34h using block1 signal	GSE8107	GSM200820,GSM200821/GSM200836	1			2		1	1	0	0	maplot				GPL4908		
29239496	S. coelicolor RNA R5- medium 14h / S. coelicolor RNA R5- medium 37h using block1 signal	GSE8107	GSM200820,GSM200821/GSM200837,GSM200838	1			2		1	1	0	0	maplot				GPL4908		
29314816	S. coelicolor RNA R5- medium 16h / S. coelicolor RNA R5- medium 10h using block1 signal	GSE8107	GSM200822,GSM200823/GSM200817	1			2		1	1	0	0	maplot				GPL4908		
29254560	S. coelicolor RNA R5- medium 16h / S. coelicolor RNA R5- medium 18h using block1 signal	GSE8107	GSM200822,GSM200823/GSM200824,GSM200825	1			2		1	1	0	0	maplot				GPL4908		
29262092	S. coelicolor RNA R5- medium 16h / S. coelicolor RNA R5- medium 20h using block1 signal	GSE8107	GSM200822,GSM200823/GSM200826,GSM200827	1			2		1	1	0	0	maplot				GPL4908		
29269624	S. coelicolor RNA R5- medium 16h / S. coelicolor RNA R5- medium 22h using block1 signal	GSE8107	GSM200822,GSM200823/GSM200828,GSM200829	1			2		1	1	0	0	maplot				GPL4908		
29277156	S. coelicolor RNA R5- medium 16h / S. coelicolor RNA R5- medium 24h using block1 signal	GSE8107	GSM200822,GSM200823/GSM200830,GSM200831	1			2		1	1	0	0	maplot				GPL4908		
29284688	S. coelicolor RNA R5- medium 16h / S. coelicolor RNA R5- medium 29h using block1 signal	GSE8107	GSM200822,GSM200823/GSM200833	1			2		1	1	0	0	maplot				GPL4908		
29292220	S. coelicolor RNA R5- medium 16h / S. coelicolor RNA R5- medium 32h using block1 signal	GSE8107	GSM200822,GSM200823/GSM200834,GSM200835	1			2		1	1	0	0	maplot				GPL4908		
29299752	S. coelicolor RNA R5- medium 16h / S. coelicolor RNA R5- medium 34h using block1 signal	GSE8107	GSM200822,GSM200823/GSM200836	1			2		1	1	0	0	maplot				GPL4908		
29307284	S. coelicolor RNA R5- medium 16h / S. coelicolor RNA R5- medium 37h using block1 signal	GSE8107	GSM200822,GSM200823/GSM200837,GSM200838	1			2		1	1	0	0	maplot				GPL4908		
29382604	S. coelicolor RNA R5- medium 18h / S. coelicolor RNA R5- medium 10h using block1 signal	GSE8107	GSM200824,GSM200825/GSM200817	1			2		1	1	0	0	maplot				GPL4908		
29322348	S. coelicolor RNA R5- medium 18h / S. coelicolor RNA R5- medium 20h using block1 signal	GSE8107	GSM200824,GSM200825/GSM200826,GSM200827	1			2		1	1	0	0	maplot				GPL4908		
29329880	S. coelicolor RNA R5- medium 18h / S. coelicolor RNA R5- medium 22h using block1 signal	GSE8107	GSM200824,GSM200825/GSM200828,GSM200829	1			2		1	1	0	0	maplot				GPL4908		
29337412	S. coelicolor RNA R5- medium 18h / S. coelicolor RNA R5- medium 24h using block1 signal	GSE8107	GSM200824,GSM200825/GSM200830,GSM200831	1			2		1	1	0	0	maplot				GPL4908		
29344944	S. coelicolor RNA R5- medium 18h / S. coelicolor RNA R5- medium 27h using block1 signal	GSE8107	GSM200824,GSM200825/GSM200832	1			2		1	1	0	0	maplot				GPL4908		
29352476	S. coelicolor RNA R5- medium 18h / S. coelicolor RNA R5- medium 29h using block1 signal	GSE8107	GSM200824,GSM200825/GSM200833	1			2		1	1	0	0	maplot				GPL4908		
29360008	S. coelicolor RNA R5- medium 18h / S. coelicolor RNA R5- medium 32h using block1 signal	GSE8107	GSM200824,GSM200825/GSM200834,GSM200835	1			2		1	1	0	0	maplot				GPL4908		
29367540	S. coelicolor RNA R5- medium 18h / S. coelicolor RNA R5- medium 34h using block1 signal	GSE8107	GSM200824,GSM200825/GSM200836	1			2		1	1	0	0	maplot				GPL4908		
29375072	S. coelicolor RNA R5- medium 18h / S. coelicolor RNA R5- medium 37h using block1 signal	GSE8107	GSM200824,GSM200825/GSM200837,GSM200838	1			2		1	1	0	0	maplot				GPL4908		
29442860	S. coelicolor RNA R5- medium 20h / S. coelicolor RNA R5- medium 10h using block1 signal	GSE8107	GSM200826,GSM200827/GSM200817	1			2		1	1	0	0	maplot				GPL4908		
29397668	S. coelicolor RNA R5- medium 20h / S. coelicolor RNA R5- medium 22h using block1 signal	GSE8107	GSM200826,GSM200827/GSM200828,GSM200829	1			2		1	1	0	0	maplot				GPL4908		
29405200	S. coelicolor RNA R5- medium 20h / S. coelicolor RNA R5- medium 24h using block1 signal	GSE8107	GSM200826,GSM200827/GSM200830,GSM200831	1			2		1	1	0	0	maplot				GPL4908		
29412732	S. coelicolor RNA R5- medium 20h / S. coelicolor RNA R5- medium 27h using block1 signal	GSE8107	GSM200826,GSM200827/GSM200832	1			2		1	1	0	0	maplot				GPL4908		
29420264	S. coelicolor RNA R5- medium 20h / S. coelicolor RNA R5- medium 32h using block1 signal	GSE8107	GSM200826,GSM200827/GSM200834,GSM200835	1			2		1	1	0	0	maplot				GPL4908		
29427796	S. coelicolor RNA R5- medium 20h / S. coelicolor RNA R5- medium 34h using block1 signal	GSE8107	GSM200826,GSM200827/GSM200836	1			2		1	1	0	0	maplot				GPL4908		
29435328	S. coelicolor RNA R5- medium 20h / S. coelicolor RNA R5- medium 37h using block1 signal	GSE8107	GSM200826,GSM200827/GSM200837,GSM200838	1			2		1	1	0	0	maplot				GPL4908		
29495584	S. coelicolor RNA R5- medium 22h / S. coelicolor RNA R5- medium 10h using block1 signal	GSE8107	GSM200828,GSM200829/GSM200817	1			2		1	1	0	0	maplot				GPL4908		
29450392	S. coelicolor RNA R5- medium 22h / S. coelicolor RNA R5- medium 24h using block1 signal	GSE8107	GSM200828,GSM200829/GSM200830,GSM200831	1			2		1	1	0	0	maplot				GPL4908		
29457924	S. coelicolor RNA R5- medium 22h / S. coelicolor RNA R5- medium 27h using block1 signal	GSE8107	GSM200828,GSM200829/GSM200832	1			2		1	1	0	0	maplot				GPL4908		
29465456	S. coelicolor RNA R5- medium 22h / S. coelicolor RNA R5- medium 29h using block1 signal	GSE8107	GSM200828,GSM200829/GSM200833	1			2		1	1	0	0	maplot				GPL4908		
29472988	S. coelicolor RNA R5- medium 22h / S. coelicolor RNA R5- medium 32h using block1 signal	GSE8107	GSM200828,GSM200829/GSM200834,GSM200835	1			2		1	1	0	0	maplot				GPL4908		
29480520	S. coelicolor RNA R5- medium 22h / S. coelicolor RNA R5- medium 34h using block1 signal	GSE8107	GSM200828,GSM200829/GSM200836	1			2		1	1	0	0	maplot				GPL4908		
29488052	S. coelicolor RNA R5- medium 22h / S. coelicolor RNA R5- medium 37h using block1 signal	GSE8107	GSM200828,GSM200829/GSM200837,GSM200838	1			2		1	1	0	0	maplot				GPL4908		
29540776	S. coelicolor RNA R5- medium 24h / S. coelicolor RNA R5- medium 10h using block1 signal	GSE8107	GSM200830,GSM200831/GSM200817	1			2		1	1	0	0	maplot				GPL4908		
29503116	S. coelicolor RNA R5- medium 24h / S. coelicolor RNA R5- medium 27h using block1 signal	GSE8107	GSM200830,GSM200831/GSM200832	1			2		1	1	0	0	maplot				GPL4908		
29510648	S. coelicolor RNA R5- medium 24h / S. coelicolor RNA R5- medium 29h using block1 signal	GSE8107	GSM200830,GSM200831/GSM200833	1			2		1	1	0	0	maplot				GPL4908		
29518180	S. coelicolor RNA R5- medium 24h / S. coelicolor RNA R5- medium 32h using block1 signal	GSE8107	GSM200830,GSM200831/GSM200834,GSM200835	1			2		1	1	0	0	maplot				GPL4908		
29525712	S. coelicolor RNA R5- medium 24h / S. coelicolor RNA R5- medium 34h using block1 signal	GSE8107	GSM200830,GSM200831/GSM200836	1			2		1	1	0	0	maplot				GPL4908		
29533244	S. coelicolor RNA R5- medium 24h / S. coelicolor RNA R5- medium 37h using block1 signal	GSE8107	GSM200830,GSM200831/GSM200837,GSM200838	1			2		1	1	0	0	maplot				GPL4908		
29570904	S. coelicolor RNA R5- medium 27h / S. coelicolor RNA R5- medium 10h using block1 signal	GSE8107	GSM200832/GSM200817	1			2		1	1	0	0	maplot				GPL4908		
29548308	S. coelicolor RNA R5- medium 27h / S. coelicolor RNA R5- medium 29h using block1 signal	GSE8107	GSM200832/GSM200833	1			2		1	1	0	0	maplot				GPL4908		
29555840	S. coelicolor RNA R5- medium 27h / S. coelicolor RNA R5- medium 32h using block1 signal	GSE8107	GSM200832/GSM200834,GSM200835	1			2		1	1	0	0	maplot				GPL4908		
29563372	S. coelicolor RNA R5- medium 27h / S. coelicolor RNA R5- medium 37h using block1 signal	GSE8107	GSM200832/GSM200837,GSM200838	1			2		1	1	0	0	maplot				GPL4908		
29601032	S. coelicolor RNA R5- medium 29h / S. coelicolor RNA R5- medium 10h using block1 signal	GSE8107	GSM200833/GSM200817	1			2		1	1	0	0	maplot				GPL4908		
29578436	S. coelicolor RNA R5- medium 29h / S. coelicolor RNA R5- medium 32h using block1 signal	GSE8107	GSM200833/GSM200834,GSM200835	1			2		1	1	0	0	maplot				GPL4908		
29585968	S. coelicolor RNA R5- medium 29h / S. coelicolor RNA R5- medium 34h using block1 signal	GSE8107	GSM200833/GSM200836	1			2		1	1	0	0	maplot				GPL4908		
29593500	S. coelicolor RNA R5- medium 29h / S. coelicolor RNA R5- medium 37h using block1 signal	GSE8107	GSM200833/GSM200837,GSM200838	1			2		1	1	0	0	maplot				GPL4908		
29623628	S. coelicolor RNA R5- medium 32h / S. coelicolor RNA R5- medium 10h using block1 signal	GSE8107	GSM200834,GSM200835/GSM200817	1			2		1	1	0	0	maplot				GPL4908		
29608564	S. coelicolor RNA R5- medium 32h / S. coelicolor RNA R5- medium 34h using block1 signal	GSE8107	GSM200834,GSM200835/GSM200836	1			2		1	1	0	0	maplot				GPL4908		
29616096	S. coelicolor RNA R5- medium 32h / S. coelicolor RNA R5- medium 37h using block1 signal	GSE8107	GSM200834,GSM200835/GSM200837,GSM200838	1			2		1	1	0	0	maplot				GPL4908		
29638692	S. coelicolor RNA R5- medium 34h / S. coelicolor RNA R5- medium 10h using block1 signal	GSE8107	GSM200836/GSM200817	1			2		1	1	0	0	maplot				GPL4908		
29631160	S. coelicolor RNA R5- medium 34h / S. coelicolor RNA R5- medium 37h using block1 signal	GSE8107	GSM200836/GSM200837,GSM200838	1			2		1	1	0	0	maplot				GPL4908		
29646224	S. coelicolor RNA R5- medium 37h / S. coelicolor RNA R5- medium 10h using block1 signal	GSE8107	GSM200837,GSM200838/GSM200817	1			2		1	1	0	0	maplot				GPL4908		
27979207	S. coelicolor RNA R5- medium 15h / S. coelicolor RNA R5- medium 17h using block2 signal	GSE8160	GSM202005,GSM202006/GSM202007,GSM202008	1			6		1	1	0	0	maplot				GPL4908		
27308859	S. coelicolor RNA R5- medium 15h / S. coelicolor RNA R5- medium 19h  using block1 signal	GSE8160	GSM202005,GSM202006/GSM202009,GSM202010	1			2		1	1	0	0	maplot				GPL4908		
27323923	S. coelicolor RNA R5- medium 15h / S. coelicolor RNA R5- medium 21h  using block1 signal	GSE8160	GSM202005,GSM202006/GSM202011,GSM202012	1			2		1	1	0	0	maplot				GPL4908		
28009335	S. coelicolor RNA R5- medium 15h / S. coelicolor RNA R5- medium 23h using block2 signal	GSE8160	GSM202005,GSM202006/GSM202013,GSM202014	1			6		1	1	0	0	maplot				GPL4908		
28016867	S. coelicolor RNA R5- medium 15h / S. coelicolor RNA R5- medium 25h using block2 signal	GSE8160	GSM202005,GSM202006/GSM202015,GSM202016	1			6		1	1	0	0	maplot				GPL4908		
28024399	S. coelicolor RNA R5- medium 15h / S. coelicolor RNA R5- medium 28h using block2 signal	GSE8160	GSM202005,GSM202006/GSM202017	1			6		1	1	0	0	maplot				GPL4908		
28031931	S. coelicolor RNA R5- medium 15h / S. coelicolor RNA R5- medium 31h using block 2 signal	GSE8160	GSM202005,GSM202006/GSM202018	1			6		1	1	0	0	maplot				GPL4908		
28039463	S. coelicolor RNA R5- medium 15h / S. coelicolor RNA R5- medium 32h using block2 signal	GSE8160	GSM202005,GSM202006/GSM202019,GSM202020	1			6		1	1	0	0	maplot				GPL4908		
28046995	S. coelicolor RNA R5- medium 15h / S. coelicolor RNA R5- medium 35h  using block2 signal	GSE8160	GSM202005,GSM202006/GSM202021	1			6		1	1	0	0	maplot				GPL4908		
28054527	S. coelicolor RNA R5- medium 15h / S. coelicolor RNA R5- medium 37h  using block2 signal	GSE8160	GSM202005,GSM202006/GSM202022	1			6		1	1	0	0	maplot				GPL4908		
28062059	S. coelicolor RNA R5- medium 15h / S. coelicolor RNA R5- medium 38h using block2 signal	GSE8160	GSM202005,GSM202006/GSM202023	1			6		1	1	0	0	maplot				GPL4908		
27399243	S. coelicolor RNA R5- medium 15h / S. coelicolor RNA R5- medium 41h  using block1 signal	GSE8160	GSM202005,GSM202006/GSM202024,GSM202025	1			2		1	1	0	0	maplot				GPL4908		
28077123	S. coelicolor RNA R5- medium 15h / S. coelicolor RNA R5- medium 45h  using block2 signal	GSE8160	GSM202005,GSM202006/GSM202026,GSM202027	1			6		1	1	0	0	maplot				GPL4908		
28084655	S. coelicolor RNA R5- medium 17h / S. coelicolor RNA R5- medium 19h using block 2 signal	GSE8160	GSM202007,GSM202008/GSM202009,GSM202010	1			6		1	1	0	0	maplot				GPL4908		
28092187	S. coelicolor RNA R5- medium 17h / S. coelicolor RNA R5- medium 21h using block2 signal	GSE8160	GSM202007,GSM202008/GSM202011,GSM202012	1			6		1	1	0	0	maplot				GPL4908		
28099719	S. coelicolor RNA R5- medium 17h / S. coelicolor RNA R5- medium 23h using block2 signal	GSE8160	GSM202007,GSM202008/GSM202013,GSM202014	1			6		1	1	0	0	maplot				GPL4908		
28107251	S. coelicolor RNA R5- medium 17h / S. coelicolor RNA R5- medium 25h using block2 signal	GSE8160	GSM202007,GSM202008/GSM202015,GSM202016	1			6		1	1	0	0	maplot				GPL4908		
27451967	S. coelicolor RNA R5- medium 17h / S. coelicolor RNA R5- medium 28h  using block1 signal	GSE8160	GSM202007,GSM202008/GSM202017	1			2		1	1	0	0	maplot				GPL4908		
28122315	S. coelicolor RNA R5- medium 17h / S. coelicolor RNA R5- medium 31h using block2 signal	GSE8160	GSM202007,GSM202008/GSM202018	1			6		1	1	0	0	maplot				GPL4908		
28129847	S. coelicolor RNA R5- medium 17h / S. coelicolor RNA R5- medium 32h using block2 signal	GSE8160	GSM202007,GSM202008/GSM202019,GSM202020	1			6		1	1	0	0	maplot				GPL4908		
28137379	S. coelicolor RNA R5- medium 17h / S. coelicolor RNA R5- medium 35h using block2 signal	GSE8160	GSM202007,GSM202008/GSM202021	1			6		1	1	0	0	maplot				GPL4908		
28144911	S. coelicolor RNA R5- medium 17h / S. coelicolor RNA R5- medium 37h using block2 signal	GSE8160	GSM202007,GSM202008/GSM202022	1			6		1	1	0	0	maplot				GPL4908		
28152443	S. coelicolor RNA R5- medium 17h / S. coelicolor RNA R5- medium 38h using block2 signal	GSE8160	GSM202007,GSM202008/GSM202023	1			6		1	1	0	0	maplot				GPL4908		
28159975	S. coelicolor RNA R5- medium 17h / S. coelicolor RNA R5- medium 41h using block2 signal	GSE8160	GSM202007,GSM202008/GSM202024,GSM202025	1			6		1	1	0	0	maplot				GPL4908		
28167507	S. coelicolor RNA R5- medium 17h / S. coelicolor RNA R5- medium 45h using block2 signal	GSE8160	GSM202007,GSM202008/GSM202026,GSM202027	1			6		1	1	0	0	maplot				GPL4908		
27519755	S. coelicolor RNA R5- medium 19h / S. coelicolor RNA R5- medium 21h  using block1 signal	GSE8160	GSM202009,GSM202010/GSM202011,GSM202012	1			2		1	1	0	0	maplot				GPL4908		
28182571	S. coelicolor RNA R5- medium 19h / S. coelicolor RNA R5- medium 23h using block2 signal	GSE8160	GSM202009,GSM202010/GSM202013,GSM202014	1			6		1	1	0	0	maplot				GPL4908		
28190103	S. coelicolor RNA R5- medium 19h / S. coelicolor RNA R5- medium 25h using block2 signal	GSE8160	GSM202009,GSM202010/GSM202015,GSM202016	1			6		1	1	0	0	maplot				GPL4908		
28197635	S. coelicolor RNA R5- medium 19h / S. coelicolor RNA R5- medium 28h using block2 signal	GSE8160	GSM202009,GSM202010/GSM202017	1			6		1	1	0	0	maplot				GPL4908		
28205167	S. coelicolor RNA R5- medium 19h / S. coelicolor RNA R5- medium 31h using block2 signal	GSE8160	GSM202009,GSM202010/GSM202018	1			6		1	1	0	0	maplot				GPL4908		
28212699	S. coelicolor RNA R5- medium 19h / S. coelicolor RNA R5- medium 32h using block2 signal	GSE8160	GSM202009,GSM202010/GSM202019,GSM202020	1			6		1	1	0	0	maplot				GPL4908		
28220231	S. coelicolor RNA R5- medium 19h / S. coelicolor RNA R5- medium 35h using block2 signal	GSE8160	GSM202009,GSM202010/GSM202021	1			6		1	1	0	0	maplot				GPL4908		
28227763	S. coelicolor RNA R5- medium 19h / S. coelicolor RNA R5- medium 37h using block2 signal	GSE8160	GSM202009,GSM202010/GSM202022	1			6		1	1	0	0	maplot				GPL4908		
28235295	S. coelicolor RNA R5- medium 19h / S. coelicolor RNA R5- medium 38h using block2 signal	GSE8160	GSM202009,GSM202010/GSM202023	1			6		1	1	0	0	maplot				GPL4908		
28242827	S. coelicolor RNA R5- medium 19h / S. coelicolor RNA R5- medium 41h using block2 signal	GSE8160	GSM202009,GSM202010/GSM202024,GSM202025	1			6		1	1	0	0	maplot				GPL4908		
28250359	S. coelicolor RNA R5- medium 19h / S. coelicolor RNA R5- medium 45h using block2 signal	GSE8160	GSM202009,GSM202010/GSM202026,GSM202027	1			6		1	1	0	0	maplot				GPL4908		
28257891	S. coelicolor RNA R5- medium 21h / S. coelicolor RNA R5- medium 23h using block2 signal	GSE8160	GSM202011,GSM202012/GSM202013,GSM202014	1			6		1	1	0	0	maplot				GPL4908		
28265423	S. coelicolor RNA R5- medium 21h / S. coelicolor RNA R5- medium 25h using block2 signal	GSE8160	GSM202011,GSM202012/GSM202015,GSM202016	1			6		1	1	0	0	maplot				GPL4908		
28272955	S. coelicolor RNA R5- medium 21h / S. coelicolor RNA R5- medium 28h using block2 signal	GSE8160	GSM202011,GSM202012/GSM202017	1			6		1	1	0	0	maplot				GPL4908		
28280487	S. coelicolor RNA R5- medium 21h / S. coelicolor RNA R5- medium 31h using block2 signal	GSE8160	GSM202011,GSM202012/GSM202018	1			6		1	1	0	0	maplot				GPL4908		
28288019	S. coelicolor RNA R5- medium 21h / S. coelicolor RNA R5- medium 32h using block2 signal	GSE8160	GSM202011,GSM202012/GSM202019,GSM202020	1			6		1	1	0	0	maplot				GPL4908		
28295551	S. coelicolor RNA R5- medium 21h / S. coelicolor RNA R5- medium 35h using block2 signal	GSE8160	GSM202011,GSM202012/GSM202021	1			6		1	1	0	0	maplot				GPL4908		
28303083	S. coelicolor RNA R5- medium 21h / S. coelicolor RNA R5- medium 37h using block2 signal	GSE8160	GSM202011,GSM202012/GSM202022	1			6		1	1	0	0	maplot				GPL4908		
28310615	S. coelicolor RNA R5- medium 21h / S. coelicolor RNA R5- medium 38h using block2 signal	GSE8160	GSM202011,GSM202012/GSM202023	1			6		1	1	0	0	maplot				GPL4908		
28318147	S. coelicolor RNA R5- medium 21h / S. coelicolor RNA R5- medium 41h using block2 signal	GSE8160	GSM202011,GSM202012/GSM202024,GSM202025	1			6		1	1	0	0	maplot				GPL4908		
28325679	S. coelicolor RNA R5- medium 21h / S. coelicolor RNA R5- medium 45h using block2 signal	GSE8160	GSM202011,GSM202012/GSM202026,GSM202027	1			6		1	1	0	0	maplot				GPL4908		
28333211	S. coelicolor RNA R5- medium 23h / S. coelicolor RNA R5- medium 25h using block2 signal	GSE8160	GSM202013,GSM202014/GSM202015,GSM202016	1			6		1	1	0	0	maplot				GPL4908		
28340743	S. coelicolor RNA R5- medium 23h / S. coelicolor RNA R5- medium 28h using block2 signal	GSE8160	GSM202013,GSM202014/GSM202017	1			6		1	1	0	0	maplot				GPL4908		
28348275	S. coelicolor RNA R5- medium 23h / S. coelicolor RNA R5- medium 31h using block2 signal	GSE8160	GSM202013,GSM202014/GSM202018	1			6		1	1	0	0	maplot				GPL4908		
28355807	S. coelicolor RNA R5- medium 23h / S. coelicolor RNA R5- medium 32h using block2 signal	GSE8160	GSM202013,GSM202014/GSM202019,GSM202020	1			6		1	1	0	0	maplot				GPL4908		
27677927	S. coelicolor RNA R5- medium 23h / S. coelicolor RNA R5- medium 35h  using block1 signal	GSE8160	GSM202013,GSM202014/GSM202021	1			2		1	1	0	0	maplot				GPL4908		
28363339	S. coelicolor RNA R5- medium 23h / S. coelicolor RNA R5- medium 37h using block2 signal	GSE8160	GSM202013,GSM202014/GSM202022	1			6		1	1	0	0	maplot				GPL4908		
28370871	S. coelicolor RNA R5- medium 23h / S. coelicolor RNA R5- medium 38h using block2 signal	GSE8160	GSM202013,GSM202014/GSM202023	1			6		1	1	0	0	maplot				GPL4908		
28378403	S. coelicolor RNA R5- medium 23h / S. coelicolor RNA R5- medium 41h using block2 signal	GSE8160	GSM202013,GSM202014/GSM202024,GSM202025	1			6		1	1	0	0	maplot				GPL4908		
28385935	S. coelicolor RNA R5- medium 23h / S. coelicolor RNA R5- medium 45h using block2 signal	GSE8160	GSM202013,GSM202014/GSM202026,GSM202027	1			6		1	1	0	0	maplot				GPL4908		
28393467	S. coelicolor RNA R5- medium 25h / S. coelicolor RNA R5- medium 28h using block2 signal	GSE8160	GSM202015,GSM202016/GSM202017	1			6		1	1	0	0	maplot				GPL4908		
28400999	S. coelicolor RNA R5- medium 25h / S. coelicolor RNA R5- medium 31h using block2 signal	GSE8160	GSM202015,GSM202016/GSM202018	1			6		1	1	0	0	maplot				GPL4908		
28408531	S. coelicolor RNA R5- medium 25h / S. coelicolor RNA R5- medium 32h using block2 signal	GSE8160	GSM202015,GSM202016/GSM202019,GSM202020	1			6		1	1	0	0	maplot				GPL4908		
27745715	S. coelicolor RNA R5- medium 25h / S. coelicolor RNA R5- medium 35h  using block1 signal	GSE8160	GSM202015,GSM202016/GSM202021	1			2		1	1	0	0	maplot				GPL4908		
28423595	S. coelicolor RNA R5- medium 25h / S. coelicolor RNA R5- medium 37h using block2 signal	GSE8160	GSM202015,GSM202016/GSM202022	1			6		1	1	0	0	maplot				GPL4908		
28431127	S. coelicolor RNA R5- medium 25h / S. coelicolor RNA R5- medium 38h using block2 signal	GSE8160	GSM202015,GSM202016/GSM202023	1			6		1	1	0	0	maplot				GPL4908		
28438659	S. coelicolor RNA R5- medium 25h / S. coelicolor RNA R5- medium 41h using block2 signal	GSE8160	GSM202015,GSM202016/GSM202024,GSM202025	1			6		1	1	0	0	maplot				GPL4908		
28446191	S. coelicolor RNA R5- medium 25h / S. coelicolor RNA R5- medium 45h using block2 signal	GSE8160	GSM202015,GSM202016/GSM202026,GSM202027	1			6		1	1	0	0	maplot				GPL4908		
28453723	S. coelicolor RNA R5- medium 28h / S. coelicolor RNA R5- medium 31h using block2 signal	GSE8160	GSM202017/GSM202018	1			6		1	1	0	0	maplot				GPL4908		
27790907	S. coelicolor RNA R5- medium 28h / S. coelicolor RNA R5- medium 32h  using block1 signal	GSE8160	GSM202017/GSM202019,GSM202020	1			2		1	1	0	0	maplot				GPL4908		
28461255	S. coelicolor RNA R5- medium 28h / S. coelicolor RNA R5- medium 35h using block2 signal	GSE8160	GSM202017/GSM202021	1			6		1	1	0	0	maplot				GPL4908		
28468787	S. coelicolor RNA R5- medium 28h / S. coelicolor RNA R5- medium 37h using block2 signal	GSE8160	GSM202017/GSM202022	1			6		1	1	0	0	maplot				GPL4908		
28476319	S. coelicolor RNA R5- medium 28h / S. coelicolor RNA R5- medium 38h using block2 signal	GSE8160	GSM202017/GSM202023	1			6		1	1	0	0	maplot				GPL4908		
28483851	S. coelicolor RNA R5- medium 28h / S. coelicolor RNA R5- medium 41h using block2 signal	GSE8160	GSM202017/GSM202024,GSM202025	1			6		1	1	0	0	maplot				GPL4908		
28491383	S. coelicolor RNA R5- medium 28h / S. coelicolor RNA R5- medium 45h using block2 signal	GSE8160	GSM202017/GSM202026,GSM202027	1			6		1	1	0	0	maplot				GPL4908		
27828567	S. coelicolor RNA R5- medium 31h / S. coelicolor RNA R5- medium 32h using block 1 signal	GSE8160	GSM202018/GSM202019,GSM202020	1			2		1	1	0	0	maplot				GPL4908		
28498915	S. coelicolor RNA R5- medium 31h / S. coelicolor RNA R5- medium 35h	GSE8160	GSM202018/GSM202021	1			6		1	1	0	0	maplot				GPL4908		
28506447	S. coelicolor RNA R5- medium 31h / S. coelicolor RNA R5- medium 37h using block2 signal	GSE8160	GSM202018/GSM202022	1			6		1	1	0	0	maplot				GPL4908		
28513979	S. coelicolor RNA R5- medium 31h / S. coelicolor RNA R5- medium 38h using block2 signal	GSE8160	GSM202018/GSM202023	1			6		1	1	0	0	maplot				GPL4908		
28521511	S. coelicolor RNA R5- medium 31h / S. coelicolor RNA R5- medium 41h using block2 signal	GSE8160	GSM202018/GSM202024,GSM202025	1			6		1	1	0	0	maplot				GPL4908		
28529043	S. coelicolor RNA R5- medium 31h / S. coelicolor RNA R5- medium 45h using block2 signal	GSE8160	GSM202018/GSM202026,GSM202027	1			6		1	1	0	0	maplot				GPL4908		
28536575	S. coelicolor RNA R5- medium 32h / S. coelicolor RNA R5- medium 35h using block2 signal	GSE8160	GSM202019,GSM202020/GSM202021	1			6		1	1	0	0	maplot				GPL4908		
28544107	S. coelicolor RNA R5- medium 32h / S. coelicolor RNA R5- medium 37h using block2 signal	GSE8160	GSM202019,GSM202020/GSM202022	1			6		1	1	0	0	maplot				GPL4908		
27881291	S. coelicolor RNA R5- medium 32h / S. coelicolor RNA R5- medium 38h suing block1 signal	GSE8160	GSM202019,GSM202020/GSM202023	1			2		1	1	0	0	maplot				GPL4908		
28551639	S. coelicolor RNA R5- medium 32h / S. coelicolor RNA R5- medium 41h 20SLR612	GSE8160	GSM202019,GSM202020/GSM202024,GSM202025	1			6		1	1	0	0	maplot				GPL4908		
28559171	S. coelicolor RNA R5- medium 32h / S. coelicolor RNA R5- medium 45h using block 2 signal	GSE8160	GSM202019,GSM202020/GSM202026,GSM202027	1			6		1	1	0	0	maplot				GPL4908		
28566703	S. coelicolor RNA R5- medium 35h / S. coelicolor RNA R5- medium 37h using block 2 signal	GSE8160	GSM202021/GSM202022	1			6		1	1	0	0	maplot				GPL4908		
28574235	S. coelicolor RNA R5- medium 35h / S. coelicolor RNA R5- medium 38h using block 2 signal	GSE8160	GSM202021/GSM202023	1			6		1	1	0	0	maplot				GPL4908		
28581767	S. coelicolor RNA R5- medium 35h / S. coelicolor RNA R5- medium 41h using block 2 signal	GSE8160	GSM202021/GSM202024,GSM202025	1			6		1	1	0	0	maplot				GPL4908		
28589299	S. coelicolor RNA R5- medium 35h / S. coelicolor RNA R5- medium 45h using block 2 signal	GSE8160	GSM202021/GSM202026,GSM202027	1			6		1	1	0	0	maplot				GPL4908		
28596831	S. coelicolor RNA R5- medium 37h / S. coelicolor RNA R5- medium 38h using block 2 signal	GSE8160	GSM202022/GSM202023	1			6		1	1	0	0	maplot				GPL4908		
28604363	S. coelicolor RNA R5- medium 37h / S. coelicolor RNA R5- medium 41h using block 2 signal	GSE8160	GSM202022/GSM202024,GSM202025	1			6		1	1	0	0	maplot				GPL4908		
28611895	S. coelicolor RNA R5- medium 37h / S. coelicolor RNA R5- medium 45h using block 2 signal	GSE8160	GSM202022/GSM202026,GSM202027	1			6		1	1	0	0	maplot				GPL4908		
28619427	S. coelicolor RNA R5- medium 38h / S. coelicolor RNA R5- medium 41h using block 2 signal	GSE8160	GSM202023/GSM202024,GSM202025	1			6		1	1	0	0	maplot				GPL4908		
28626959	S. coelicolor RNA R5- medium 38h / S. coelicolor RNA R5- medium 45h using block 2 signal	GSE8160	GSM202023/GSM202026,GSM202027	1			6		1	1	0	0	maplot				GPL4908		
28634491	S. coelicolor RNA R5- medium 41h / S. coelicolor RNA R5- medium 45h using block 2 signal	GSE8160	GSM202024,GSM202025/GSM202026,GSM202027	1			6		1	1	0	0	maplot				GPL4908		
22556372	0 min aerobic to anaerobic shift / control	GSE8323	GSM206026	2			1		1	0	1	0	mbplot			1	GPL5435		NC_000913
22560871	2 min aerobic to anaerobic shift / control	GSE8323	GSM206029	2			1		1	0	1	0	mbplot		2	2	GPL5436		NC_000913
22565370	5 min aerobic to anaerobic shift / control	GSE8323	GSM206032,GSM206035	2			1		1	0	1	0	mbplot		5	3	GPL5436		NC_000913
22569869	15 min aerobic to anaerobic shift / control	GSE8323	GSM206039	2			1		1	0	1	0	mbplot		15	4	GPL5436		NC_000913
22574368	25 min Rep 1 aerobic to anaerobic shift / control	GSE8323	GSM206042	2			1		1	0	1	0	mbplot		25	5	GPL5435		NC_000913
22578867	25 min Rep 2 aerobic to anaerobic shift / control	GSE8323	GSM206047	2			1		1	0	1	0	mbplot		25	6	GPL5436		NC_000913
22583366	35 min aerobic to anaerobic shift / control	GSE8323	GSM206051	2			1		1	0	1	0	mbplot		35	7	GPL5436		NC_000913
22587865	45 min aerobic to anaerobic shift / control	GSE8323	GSM206054	2			1		1	0	1	0	mbplot		45	8	GPL5436		NC_000913
22592364	55 min Rep 1 aerobic to anaerobic shift / control	GSE8323	GSM206055	2			1		1	0	1	0	mbplot		55	9	GPL5435		NC_000913
22596863	55 min Rep 2 aerobic to anaerobic shift / control	GSE8323	GSM206056	2			1		1	0	1	0	mbplot		55	10	GPL5436		NC_000913
22601362	pck overexpression early log phase / WT early log phase	GSE8532	GSM211798	2			1		0	0	0	0	mbplot				GPL5482		NC_000913
22605784	ppc overexpression early log phase / early log phase	GSE8532	GSM211799	2			1		0	0	0	0	mbplot				GPL5482		NC_000913
22610206	ppc overexpression chemostat / WT chemostat	GSE8532	GSM211800	2			1		0	0	0	0	mbplot				GPL5482		NC_000913
22614628	pck overexpression chemostat / WT chemostat	GSE8532	GSM211801	2			1		0	0	0	0	mbplot				GPL5482		NC_000913
22619050	WT +DPTA / WT untreated (expt 1)	GSE8540	GSM211557,GSM211558	2	4	5	2	3	1	1	0	0	mbplot				GPL5113		NC_000913
22623571	WT +DPTA / WT untreated (expt 2)	GSE8540	GSM211559,GSM211560	2	4	5	2	3	1	1	0	0	mbplot				GPL5113		NC_000913
22628091	cysB +500uM GSNO / cysB untreated	GSE8540	GSM211562,GSM211563	2	4	5	2	3	1	1	0	0	mbplot				GPL5113		NC_000913
22632605	nsrR +500uM GSNO / nsrR untreated	GSE8540	GSM211564,GSM211565,GSM211566,GSM211567	2	4	5	2	3	1	1	0	0	mbplot				GPL5113		NC_000913
22637113	flhDC +500uM GSNO / flhDC untreated (expt 1)	GSE8540	GSM211568,GSM211569	2	4	5	2	3	1	1	0	0	mbplot				GPL5113		NC_000913
22641618	WT +met +500uM GSNO / WT +met untreated (expt 2)	GSE8540	GSM211570,GSM211571	2	4	5	2	3	1	1	0	0	mbplot				GPL5113		NC_000913
22646130	WT +cys +500uM GSNO / WT +cys untreated	GSE8540	GSM211575,GSM211576	2	4	5	2	3	1	1	0	0	mbplot				GPL5113		NC_000913
22650623	flhDC +500uM GSNO / flhDC untreated (expt 2)	GSE8540	GSM211728,GSM211729	2	2	3	4	5	1	1	0	0	mbplot				GPL5113		NC_000913
22655138	WT +100uM GSNO / WT untreated	GSE8540	GSM211740,GSM211741,GSM211742,GSM211743	2	4	5	2	3	1	1	0	0	mbplot				GPL5113		NC_000913
22659643	WT +100uM GSNO / WT untreated (dye swap)	GSE8540	GSM211744,GSM211745	2	2	3	4	5	1	1	0	0	mbplot				GPL5113		NC_000913
22664157	dpp +100uM GSNO / dpp untreated	GSE8540	GSM211776,GSM211777,GSM211778,GSM211779	2	4	5	2	3	1	1	0	0	mbplot				GPL5113		NC_000913
22668673	WT +500uM GSNO / WT untreated	GSE8540	GSM211794,GSM211795,GSM211796,GSM211797	2	4	5	2	3	1	1	0	0	mbplot				GPL5113		NC_000913
22673187	WT +met +500uM GSNO / WT +met untreated (expt 1)	GSE8540	GSM211873,GSM211874	2	4	5	2	3	1	1	0	0	mbplot				GPL5113		NC_000913
22677687	metJ +500uM GSNO / metJ untreated	GSE8540	GSM211875,GSM211877,GSM211879,GSM211880,GSM211881	2	4	5	2	3	1	1	0	0	mbplot				GPL5113		NC_000913
22682206	metJ +500uM GSNO / metJ untreated (dye swap)	GSE8540	GSM211876	2	2	3	4	5	1	1	0	0	mbplot				GPL5113		NC_000913
26636693	Streptoccocus mutans grown in anaerobic conditions / S. mutans UA159 grown in 5% CO2	GSE8544	GSM236979,GSM236980,GSM236981,GSM236982	2			1		0	0	0	0	mbplot				GPL4340		
26634747	Streptoccocus mutans grown in aerobic conditions / S. mutans UA159 grown in 5% CO2	GSE8544	GSM236983,GSM236984,GSM236985,GSM236986	2			1		0	0	0	0	mbplot				GPL4340		
9145547	Salmonella enterica subsp. enterica serovar Typhimurium X3339 total RNA after microgravity in flight F11 / Salmonella enterica subsp. enterica serovar Typhimurium X3339 gDNA from overnight cultures in LB	GSE8573	GSM212791,GSM212792,GSM212793	2	3	4	15	16	1	1	0	0	mbplot				GPL4805		
9161553	Salmonella enterica subsp. enterica serovar Typhimurium X3339 total RNA after flight F15 / Salmonella enterica subsp. enterica serovar Typhimurium X3339 gDNA from overnight cultures in LB	GSE8573	GSM212794,GSM212795,GSM212796	2	3	4	15	16	1	1	0	0	mbplot				GPL4805		
9179990	Salmonella enterica subsp. enterica serovar Typhimurium X3339 total RNA after flight F25 / Salmonella enterica subsp. enterica serovar Typhimurium X3339 gDNA from overnight cultures in LB	GSE8573	GSM212797,GSM212798,GSM212799	2	3	4	15	16	1	1	0	0	mbplot				GPL4805		
9187544	Salmonella enterica subsp. enterica serovar Typhimurium X3339 total RNA after ground G11 / Salmonella enterica subsp. enterica serovar Typhimurium X3339 gDNA from overnight cultures in LB	GSE8573	GSM212800,GSM212801,GSM212802	2	3	4	15	16	1	1	0	0	mbplot				GPL4805		
9319091	Salmonella enterica subsp. enterica serovar Typhimurium X3339 total RNA after ground G25 / Salmonella enterica subsp. enterica serovar Typhimurium X3339 gDNA from overnight cultures in LB	GSE8573	GSM212803,GSM212804,GSM212805	2	3	4	15	16	1	1	0	0	mbplot				GPL4805		
9332640	Salmonella enterica subsp. enterica serovar Typhimurium X3339 total RNA after ground G123 / Salmonella enterica subsp. enterica serovar Typhimurium X3339 gDNA from overnight cultures in LB	GSE8573	GSM212806,GSM212807,GSM212808	2	3	4	15	16	1	1	0	0	mbplot				GPL4805		
9196893	X3339 total RNA after microgravity in flight on M9 minimal media / Typhimurium X3339 gDNA from overnight cultures in LB	GSE8573	GSM341670,GSM341671,GSM341672	2	3	4	15	16	1	1	0	0	mbplot				GPL6868		
9326705	X3339 total RNA after microgravity on ground on M9 minimal media / Typhimurium X3339 gDNA from overnight cultures in LB	GSE8573	GSM341673,GSM341674,GSM341675	2	3	4	15	16	1	1	0	0	mbplot				GPL6868		
8499747	sigEmutant/H37Rv wildtype	GSE8664	GSM214900,GSM214901,GSM214902	2			1		0	0	0	0	mbplot				GPL2787		
8503655	Cell culture exposed to 0.05% SDS for 90 minutes / Cell culture untreated for H37Rv wildtype	GSE8664	GSM214903,GSM214904,GSM214905,GSM214906,GSM214907,GSM214908	2			1		0	0	0	0	mbplot				GPL2787		
8507563	Cell culture exposed to 0.05% SDS for 90 minutes / Cell culture untreated in sigE mutant	GSE8664	GSM214909,GSM214910,GSM214911,GSM214912,GSM214913,GSM214914	2			1		0	0	0	0	mbplot				GPL2787		
8770668	sigh mutant/H37Rv	GSE8689	GSM215378,GSM215379,GSM215380	2			1		0	0	0	0	mbplot				GPL2787		
8774576	Cell culture exposed to Diamide 5 mM for 60 minutes / Cell culture untreated for wild type	GSE8689	GSM215381,GSM215382,GSM215383,GSM215384,GSM215385,GSM215386	2			1		0	0	0	0	mbplot				GPL2787		
8778484	Cell culture exposed to Diamide 5 mM for 60 minutes / Cell culture untreated for sigH mutant	GSE8689	GSM215387,GSM215388,GSM215389,GSM215390,GSM215391,GSM215392	2			1		0	0	0	0	mbplot				GPL2787		
22686718	yncC biofilm cells / wt biofilm cells	GSE8706	GSM215706/GSM215705	1			1		1	1	0	0	mbplot				GPL199	NC_000913	NC_000913
22691321	yncC colony / wt colony	GSE8706	GSM252013/GSM252012	1			1		1	1	0	0	mbplot				GPL3154	NC_000913	NC_000913
22703557	4h LB biofilm hha / WT	GSE8708	GSM215708/GSM215707	1			1		1	1	0	0	mbplot		240		GPL199	NC_000913	NC_000913
22708160	4h LB-glu biofilm hha / WT	GSE8708	GSM215710/GSM215709	1			1		1	1	0	0	mbplot		240		GPL199	NC_000913	NC_000913
22712763	15h LB-glu biofilm hha / WT	GSE8708	GSM215712/GSM215711	1			1		1	1	0	0	mbplot		900		GPL199	NC_000913	NC_000913
22717366	24h LB-glu biofilm hha / WT	GSE8708	GSM215714/GSM215713	1			1		1	1	0	0	mbplot		1440		GPL199	NC_000913	NC_000913
8338179	Cell culture grew in iron-sufficient (50 uM FeCl3) / Cell culture grew in iron-deficient (2 uM FeCl3)	GSE8732	GSM216623,GSM216624,GSM216625,GSM216626,GSM216627,GSM216628	2			1		0	0	0	0	mbplot				GPL2787		
8359489	ST22vs H37Rv in iron-sufficient (50 uM FeCl3)	GSE8732	GSM216629,GSM216630,GSM216631,GSM216632,GSM216633,GSM216634	2			1		0	0	0	0	mbplot				GPL2787		
8366391	ST52/ST22 Cell culture grew in iron-sufficient (50 uM FeCl3)	GSE8732	GSM216635,GSM216636,GSM216637,GSM216638,GSM216639,GSM216640	2			1		0	0	0	0	mbplot				GPL2787		
26109582	100 ng/ml CSP; 5 minutes. / untreated	GSE8758	GSM217391,GSM217622	2			1		0	0	0	0	mbplot				GPL5736		
26105486	100 ng/ml CSP; 15 minutes. / untreated	GSE8758	GSM217625,GSM217628	2			1		0	0	0	0	mbplot				GPL5736		
26107534	100 ng/ml CSP; 40 minutes. / untreated	GSE8758	GSM217631,GSM217632	2			1		0	0	0	0	mbplot				GPL5736		
8608614	Cell culture grew for 0 days / Cell culture grew for 0 days	GSE8786	GSM218219,GSM218220,GSM218221	2			1		0	0	0	0	mbplot				GPL5714		
8620338	Cell culture grew for 6 days / Cell culture grew for 0 days	GSE8786	GSM218222,GSM218223,GSM218224	2			1		0	0	0	0	mbplot				GPL5714		
8628154	Cell culture grew for 8 days / Cell culture grew for 0 days	GSE8786	GSM218225,GSM218226,GSM218227	2			1		0	0	0	0	mbplot				GPL5714		
8612522	Cell culture grew for 14 days / Cell culture grew for 0 days	GSE8786	GSM218228,GSM218229,GSM218230	2			1		0	0	0	0	mbplot				GPL5714		
8616430	Cell culture grew for 24 days / Cell culture grew for 0 days	GSE8786	GSM218231,GSM218232,GSM218233,GSM218234	2			1		0	0	0	0	mbplot				GPL5714		
8624246	Cell culture grew for 60 days / Cell culture grew for 0 days	GSE8786	GSM218235,GSM218236,GSM218237	2			1		0	0	0	0	mbplot				GPL5714		
8647694	Cell culture grew under Wayne Growth conditions for 4 days / Cell culture grew under Wayne Growth conditions for 0 days(oxygen-depleted)	GSE8786	GSM218238,GSM218239,GSM218240,GSM218241,GSM218242,GSM218243	2			1		0	0	0	0	mbplot				GPL5714		
8651602	Cell culture grew under Wayne Growth conditions for 6 days / Cell culture grew under Wayne Growth conditions for 0 days(oxygen-depleted)	GSE8786	GSM218244,GSM218245,GSM218246	2			1		0	0	0	0	mbplot				GPL5714		
8655510	Cell culture grew under Wayne Growth conditions for 8 days / Cell culture grew under Wayne Growth conditions for 0 days(oxygen-depleted)	GSE8786	GSM218247,GSM218248,GSM218249	2			1		0	0	0	0	mbplot				GPL5714		
8632062	Cell culture grew under Wayne Growth conditions for 10 days / Cell culture grew under Wayne Growth conditions for 0 days(oxygen-depleted)	GSE8786	GSM218250,GSM218251,GSM218252	2			1		0	0	0	0	mbplot				GPL5714		
8635970	Cell culture grew under Wayne Growth conditions for 14 days / Cell culture grew under Wayne Growth conditions for 0 days(oxygen-depleted)	GSE8786	GSM218256,GSM218257,GSM218258,GSM218259,GSM218260,GSM218261,GSM218262,GSM218263,GSM218264	2			1		0	0	0	0	mbplot				GPL5714		
8639878	Cell culture grew under Wayne Growth conditions for 20 days / Cell culture grew under Wayne Growth conditions for 0 days(oxygen-depleted)	GSE8786	GSM218265,GSM218266	2			1		0	0	0	0	mbplot				GPL5714		
8643786	Cell culture grew under Wayne Growth conditions for 30 days / Cell culture grew under Wayne Growth conditions for 0 days(oxygen-depleted)	GSE8786	GSM218267,GSM218268	2			1		0	0	0	0	mbplot				GPL5714		
8659418	Cell culture grew under Wayne Growth conditions for 80 days / Cell culture grew under Wayne Growth conditions for 0 days	GSE8786	GSM218269,GSM218270,GSM218271,GSM218272	2			1		0	0	0	0	mbplot				GPL5714		
8585183	Mycobacterium tuberculosis, pH 5.5 acid stress, 2 hr / Mycobacterium tuberculosis, pH 7.0 control, 2 hr	GSE8827	GSM218909	2			1		0	0	0	0	mbplot				GPL5754		
8589446	Mycobacterium tuberculosis, pH 6.5 acid stress, 2 hr / Mycobacterium tuberculosis, pH 7.0 control, 2 hr	GSE8827	GSM218910	2			1		0	0	0	0	mbplot				GPL5754		
8599030	Mycobacterium tuberculosis, untreated macrophage, 2 hr / Mycobacterium tuberculosis, Concanamycin A treated macrophages, 2 hr	GSE8827	GSM218911	2			1		0	0	0	0	mbplot				GPL5754		
8572394	Mycobacterium tuberculosis, cytochalasin D treated macrophage, 2 hr / Mycobacterium tuberculosis, cytochalasin D treated no macrophage extracellular controls	GSE8827	GSM218912	2			1		0	0	0	0	mbplot				GPL5754		
8568131	Phagosomal BCG after 2hr macrophage infection / Extracellular Control BCG, 2hr in infection media, no macrophages	GSE8827	GSM219303	2			1		0	0	0	0	mbplot				GPL5754		
8563868	Phagosomal BCG after 24hr macrophage infection / Extracellular Control BCG, 24hr in infection media, no macrophages	GSE8827	GSM219304	2			1		0	0	0	0	mbplot				GPL5754		
8580920	Mycobacterium tuberculosis, untreated macrophage, 2 hr / Extracellular Control M. tuberculosis, 2hr in infection media, no macrophages	GSE8827	GSM219305	2			1		0	0	0	0	mbplot				GPL5754		
8576657	Mycobacterium tuberculosis, untreated macrophage, 24 hr / Extracellular Control M. tuberculosis, 24hr in infection media, no macrophages	GSE8827	GSM219324	2			1		0	0	0	0	mbplot				GPL5754		
6673560	WT Cell culture grew under 0.2% Oxygen treatment / Cell culture grew under any treatment	GSE8829	GSM219331,GSM219332,GSM219333,GSM219334,GSM219335,GSM219336	2			1		0	0	0	0	mbplot				GPL5714		NC_003317
6679527	dosR Cell culture grew under 0.2% Oxygen treatment / Cell culture grew under any treatment	GSE8829	GSM219337,GSM219338,GSM219339,GSM219340,GSM219341,GSM219342	2			1		0	0	0	0	mbplot				GPL5714		NC_003317
8281928	H373v wildtype / CPR like mutant	GSE8830	GSM219343,GSM219345,GSM219347,GSM219349,GSM219351,GSM219353,GSM219355	2			1		0	0	0	0	mbplot	cy5 R wildtype cy3 green CPR like mutant			GPL5753		
8285835	CPR like mutant/ H373v wildtype	GSE8830	GSM219344,GSM219346,GSM219348,GSM219350,GSM219352,GSM219354,GSM219356	2			1		0	0	0	0	mbplot	cy3 G CPR like mutant Cy5 R wildtype			GPL5753		
7598823	low Oxygen Day 4 / MTB1254 Day 0	GSE8839	GSM886248,GSM886264,GSM886294,GSM886339,GSM886348,GSM886355	2	6		5		1	1	0	0	mbplot				GPL9901		
7331730	H37Rv Rv3132-34 KO hypoxia 4 day / H37Rv 0 day ctrl	GSE8839	GSM886249,GSM886275,GSM886290,GSM886342	2	6		5		1	1	0	0	mbplot				GPL9901		
7416917	0.5 mM DETA/NO 40min / MTB strain 1254 Ctrl	GSE8839	GSM886250,GSM886255,GSM886256,GSM886333	2	6		5		1	1	0	0	mbplot				GPL8561		
7339546	Rv3132-4KO 0.05mM DNO 40m / Control; Rv3132 4KO No treatment	GSE8839	GSM886251,GSM886292,GSM886302,GSM886318	2	6		5		1	1	0	0	mbplot				GPL8561		
7375243	0.5 mM DETA/NO 16hrs / MTB strain 1254 Ctrl	GSE8839	GSM886252,GSM886288,GSM886325,GSM886326	2	6		5		1	1	0	0	mbplot				GPL8561		
7366267	0.05 mM DETA/NO 40min / MTB strain 1254 Ctrl	GSE8839	GSM886253,GSM886295,GSM886320,GSM886327,GSM886347,GSM886364,GSM886377	2	6		5		1	1	0	0	mbplot				GPL8561		
7583191	low aeration   0.005 mM DETA/NO / MTB strain 1254 Ctrl	GSE8839	GSM886254,GSM886280,GSM886323	2	6		5		1	1	0	0	mbplot				GPL8561		
7591007	low aeration   0.05 mM DETA/NO / MTB strain 1254 Ctrl	GSE8839	GSM886257,GSM886315,GSM886316	2	6		5		1	1	0	0	mbplot				GPL8561		
7563651	high aeration   0.01 mM DETA/NO / MTB strain 1254 Ctrl	GSE8839	GSM886258,GSM886313,GSM886345	2	6		5		1	1	0	0	mbplot				GPL8561		
7594915	MTB1254 Day 0 / MTB1254 Day 0	GSE8839	GSM886259,GSM886311,GSM886356	2	6		5		1	1	0	0	mbplot				GPL9901		
7431302	0.5 mM KCN   2hr hypoxia / MTB strain 1254 Ctrl	GSE8839	GSM886260,GSM886321,GSM886346	2	6		5		1	1	0	0	mbplot				GPL8561		
7409101	0.5 mM DETA/NO 24hrs / MTB strain 1254 Ctrl	GSE8839	GSM886261,GSM886298,GSM886330,GSM886359	2	6		5		1	1	0	0	mbplot				GPL8561		
7323914	CDC1551 0.05 DNO 40min / CDC1551 No treatment	GSE8839	GSM886262,GSM886303,GSM886331,GSM886366,GSM886375	2	6		5		1	1	0	0	mbplot				GPL8561		
7357360	0.005 mM DETA/NO 40min / MTB strain 1254 Ctrl	GSE8839	GSM886263,GSM886281,GSM886286,GSM886341	2	6		5		1	1	0	0	mbplot				GPL8561		
7344989	Rv3133 Comp 0.05mM DNO 40m / Rv3133 Comp No treatment;Control	GSE8839	GSM886265,GSM886287,GSM886324,GSM886336	2	6		5		1	1	0	0	mbplot				GPL8561		
7524019	5.0 mM DETA/NO 40min / MTB strain 1254 Ctrl	GSE8839	GSM886266,GSM886272,GSM886293,GSM886367	2	6		5		1	1	0	0	mbplot				GPL8561		
7384219	0.5 mM DETA/NO 1hr / MTB strain 1254 Ctrl	GSE8839	GSM886267,GSM886269,GSM886274,GSM886338	2	6		5		1	1	0	0	mbplot				GPL8561		
7335638	Rv 0.05mM DNO 40m / H37Rv No treatment; Control	GSE8839	GSM886268,GSM886289,GSM886309,GSM886374	2	6		5		1	1	0	0	mbplot				GPL8561		
7413009	0.5 mM DETA/NO 2hrs / MTB strain 1254 Ctrl	GSE8839	GSM886270,GSM886284,GSM886317,GSM886335	2	6		5		1	1	0	0	mbplot				GPL8561		
7427394	0.5 mM DETA/NO 8hrs / MTB strain 1254 Ctrl	GSE8839	GSM886271,GSM886296,GSM886337,GSM886371	2	6		5		1	1	0	0	mbplot				GPL8561		
7512640	2hr Hypoxia / MTB strain 1254 Ctrl	GSE8839	GSM886273,GSM886332,GSM886373	2	6		5		1	1	0	0	mbplot				GPL8561		
7579283	low aeration   0.001 mM DETA/NO / MTB strain 1254 Ctrl	GSE8839	GSM886276,GSM886300,GSM886349	2	6		5		1	1	0	0	mbplot				GPL8561		
7439118	0.5 mM KCN 20min   0.05 mM DETA/NO 40min / MTB strain 1254 Ctrl	GSE8839	GSM886277,GSM886361,GSM886378	2	6		5		1	1	0	0	mbplot				GPL8561		
7557019	high aeration   0.005 mM DETA/NO / MTB strain 1254 Ctrl	GSE8839	GSM886278,GSM886297,GSM886314	2	6		5		1	1	0	0	mbplot				GPL8561		
7327822	H37Rv Rv3132-34 KO (complemented) hypoxia (NPR) 4 days / H37Rv Rv3132-34 KO no treatment 0 days	GSE8839	GSM886279,GSM886329,GSM886368,GSM886370	2	6		5		1	1	0	0	mbplot				GPL9901		
7567559	high aeration   0.05 mM DETA/NO / MTB strain 1254 Ctrl	GSE8839	GSM886282,GSM886283,GSM886352	2	6		5		1	1	0	0	mbplot				GPL8561		
7435210	0.5 mM KCN 1hr / MTB strain 1254 Ctrl	GSE8839	GSM886285,GSM886304,GSM886363	2	6		5		1	1	0	0	mbplot				GPL8561		
7540519	high aeration   0.001 mM DETA/NO / MTB strain 1254 Ctrl	GSE8839	GSM886291,GSM886328,GSM886365	2	6		5		1	1	0	0	mbplot				GPL8561		
7575375	low aeration (0.2% oxygen) 2hr / MTB strain 1254 Ctrl	GSE8839	GSM886299,GSM886305,GSM886357	2	6		5		1	1	0	0	mbplot				GPL8561		
7395663	0.5 mM DETA/NO 20min / MTB strain 1254 Ctrl	GSE8839	GSM886301,GSM886306,GSM886351,GSM886376	2	6		5		1	1	0	0	mbplot				GPL8561		
7457948	1.0 mM DETA/NO 40min / MTB strain 1254 Ctrl	GSE8839	GSM886307,GSM886322,GSM886344,GSM886358	2	6		5		1	1	0	0	mbplot				GPL8561		
7422447	0.5 mM DETA/NO 5min / MTB strain 1254 Ctrl	GSE8839	GSM886308,GSM886310,GSM886353,GSM886362	2	6		5		1	1	0	0	mbplot				GPL8561		
7587099	low aeration   0.01 mM DETA/NO / MTB strain 1254 Ctrl	GSE8839	GSM886312,GSM886350,GSM886354	2	6		5		1	1	0	0	mbplot				GPL8561		
7405193	0.5 mM DETA/NO 24hrs   0.5 mM DNO 40min / MTB strain 1254 Ctrl	GSE8839	GSM886319,GSM886340,GSM886369,GSM886372	2	6		5		1	1	0	0	mbplot				GPL8561		
7571467	high aeration / MTB strain 1254 Ctrl	GSE8839	GSM886334,GSM886343,GSM886360	2	6		5		1	1	0	0	mbplot				GPL8561		
6668302	Brucella melitensis 16M vjbR mutant strain / Brucella melitensis 16M wild type strain ; OD600nm : 0.75	GSE8844	GSM219237/GSM219200	1			1		1	0	0	0	mbplot	another test			GPL5730	NC_003317	NC_003317
29857704	Brucella melitensis 16M babR mutant strain / Brucella melitensis 16M wild type strain ; OD600nm : 0.75	GSE8844	GSM219239/GSM219200	1			1		1	0	0	0	mbplot				GPL5730		
25394376	S. mutans UA159 grown in TV 0.5% galactose / S. mutans UA159 grown in BHI	GSE8850	GSM218557,GSM218558,GSM218559,GSM218560	2			1		0	0	0	0	mbplot				GPL4340		
25376043	S. mutans TW1 grown in TV 0.5% galactose / S. mutans UA159 grown in BHI	GSE8850	GSM218561,GSM218562,GSM218563,GSM218564	2			1		0	0	0	0	mbplot				GPL4340		
25433940	S. mutans UA159 grown in TV 0.5% glucose / S. mutans UA159 grown in BHI	GSE8850	GSM219984,GSM219985,GSM220035,GSM220036	2			1		0	0	0	0	mbplot				GPL4340		
25382828	S. mutans TW1 grown in TV 0.5% glucose / S. mutans UA159 grown in BHI	GSE8850	GSM220037,GSM220038,GSM220039,GSM220040	2			1		0	0	0	0	mbplot				GPL4340		
25285695	S. mutans JAM1 grown in BHI (manL knockout)/ S. mutans UA159 grown in BHI(wildtype)	GSE8922	GSM226166,GSM226171,GSM226173,GSM226174,GSM226176,GSM226177	2			1		0	0	0	0	mbplot				GPL4340		
25292071	S. mutans UA159 grown in BHI / S. mutans UA159 grown in BHI	GSE8922	GSM226178,GSM226180,GSM226187,GSM226188,GSM226189,GSM226190	2			1		0	0	0	0	mbplot				GPL4340		
22721969	S TP1 / A TP1	GSE8965	GSM227140,GSM227141,GSM227142,GSM227251,GSM227252	2	3	5	2	4	1	1	0	0	mbplot		240		GPL5767		NC_000913
22731685	L TP1 / A TP1	GSE8965	GSM227253,GSM227254,GSM227255,GSM227256,GSM227257	2	3	5	2	4	1	0	0	0	mbplot		240		GPL5767		NC_000913
22741401	S TP2 / A TP2	GSE8965	GSM227071,GSM227072,GSM227073,GSM227074	2	3	5	2	4	1	1	0	0	mbplot		420		GPL5767		NC_000913
22751117	L TP2 / A TP2	GSE8965	GSM227076,GSM227077,GSM227078,GSM227079,GSM227080	2	3	5	2	4	1	1	0	0	mbplot		420		GPL5767		NC_000913
22760833	S TP3 / A TP3	GSE8965	GSM227081,GSM227082,GSM227083,GSM227084,GSM227085	2	3	5	2	4	1	1	0	0	mbplot		720		GPL5767		NC_000913
22770549	L TP3 / A TP3	GSE8965	GSM227086,GSM227087,GSM227088,GSM227089,GSM227090	2	3	5	2	4	1	1	0	0	mbplot		720		GPL5767		NC_000913
22780265	S TP4 / A TP4	GSE8965	GSM227091,GSM227092,GSM227093,GSM227094,GSM227095	2	3	5	2	4	1	1	0	0	mbplot		1080		GPL5767		NC_000913
22789981	L TP4 / A TP4	GSE8965	GSM227096,GSM227097,GSM227098,GSM227099,GSM227100	2	3	5	2	4	1	1	0	0	mbplot		1080		GPL5767		NC_000913
22799697	Pst mutant  / WT chi7122	GSE9178	GSM231807,GSM231809,GSM231811,GSM231813/GSM231797,GSM231800,GSM231802,GSM231804	1			1		0	0	0	0	maplot				GPL3154	NC_002655	NC_002655
30333897	L. monocytogenes S2542, 400 MPa 5 min, / L. monocytogenes S2542, atmospheric pressure	GSE9179	GSM231557,GSM231843,GSM231859	2			1		0	0	0	0	mbplot				GPL5334		
30336744	L. monocytogenes S2542, 600 MPA 5 min treatment / L. monocytogenes S2542, atmospheric pressure	GSE9179	GSM231860,GSM231861,GSM231862,GSM231863,GSM231864,GSM231865	2			1		0	0	0	0	mbplot				GPL5334		
22808920	23 degrees C / 37 degrees C	GSE9197	GSM232846,GSM232847,GSM232848,GSM232849,GSM232850	2			1		0	0	0	0	mbplot				GPL5942		NC_000913
22813321	lsrR / W3110 wild-type	GSE9203	GSM232902,GSM232903/GSM232900,GSM232901	1			1		1	1	0	0	maplot				GPL199	NC_000913	NC_000913
22817924	lsrK / W3110 wild-type	GSE9203	GSM232904,GSM232905/GSM232900,GSM232901	1			1		1	1	0	0	maplot				GPL199	NC_000913	NC_000913
26296659	Staphylococcus aureus 137/93A with mersacidin / Staphylococcus aureus 137/93A	GSE9261	GSM234953,GSM234956	2			1		0	0	0	0	mbplot				GPL5421		
26298955	Staphylococcus aureus 137/93A / Staphylococcus aureus 137/93A with mersacidin	GSE9261	GSM234955,GSM234958	2			1		0	0	0	0	mbplot				GPL5421		
26303361	Staphylococcus aureus SG511 / Staphylococcus aureus SG511 with mersacidin	GSE9261	GSM234971,GSM234973	2			1		0	0	0	0	mbplot				GPL5421		
26305471	Staphylococcus aureus SG511 with mersacidin / Staphylococcus aureus SG511	GSE9261	GSM234992,GSM234993	2			1		0	0	0	0	mbplot				GPL5421		
26493227	Yersinia pestis, 45 degree,10min / Yersinia pestis, 37 degree,10min	GSE9279	GSM232054	2			1		0	0	0	0	mbplot				GPL5937		
26470391	Yersinia pestis, 10 degree, 1 hr / Yersinia pestis, before cold shock	GSE9279	GSM232073	2			1		0	0	0	0	mbplot				GPL5937		
26500839	Yersinia pestis, high salinity, 20 min / Yersinia pestis_without high salinity	GSE9279	GSM232074	2			1		0	0	0	0	mbplot				GPL5937		
26497033	Yersinia pestis, 0.5 M sorbitol, 20 min / Yersinia pestis_without high osmolarity	GSE9279	GSM232075	2			1		0	0	0	0	mbplot				GPL5937		
26489421	Yersinia pestis, grown at 37 ?C / Yersinia pestis	GSE9279	GSM232076	2			1		0	0	0	0	mbplot				GPL5937		
26462779	Yersinia pestis, polymyxin B treatmnt / Yersinia pestis_without treatment of antibacterial peptide	GSE9279	GSM232077	2			1		0	0	0	0	mbplot				GPL5937		
26466585	Yersinia pestis, Chloramphenicol treatment, 30 min / Yersinia pestis_without chloramphenicol treatment	GSE9279	GSM232078	2			1		0	0	0	0	mbplot				GPL5937		
26546511	Yersinia pestis, tetracycline, 30min / Yersinia pestis, without tetracycline	GSE9279	GSM232079	2			1		0	0	0	0	mbplot				GPL5937		
26523675	Yersinia pestis, OmpR mutant (high osmolarity), 30 min / Yersinia pestis, wild-type strain (high osmolarity), 30 min	GSE9279	GSM232174	2			1		0	0	0	0	mbplot				GPL5937		
26527481	Yersinia pestis, ompR mutant, high salinity, 30 min / Yersinia pestis, wild-type strain, high salinity, 30 min	GSE9279	GSM232176	2			1		0	0	0	0	mbplot				GPL5937		
26458973	Yersinia pestis, pH5.5, 10 min / Yersinia pestis, pH7.2	GSE9279	GSM232177	2			1		0	0	0	0	mbplot				GPL5937		
26481809	Yersinia pestis, Exponential phase, BHI / Yersinia pestis, stationary phase, BHI	GSE9279	GSM232833	2			1		0	0	0	0	mbplot				GPL5937		
26485615	Yersinia pestis, Exponential phase, TMH / Yersinia pestis, stationary phase, TMH	GSE9279	GSM232834	2			1		0	0	0	0	mbplot				GPL5937		
26516063	Yersinia pestis, Exponential growth phase, TMH / Yersinia pestis, Exponential growth phase, BHI	GSE9279	GSM232835	2			1		0	0	0	0	mbplot				GPL5937		
26519869	Yersinia pestis, Stationary growth phase, TMH / Yersinia pestis, Stationary growth phase, BHI	GSE9279	GSM232836	2			1		0	0	0	0	mbplot				GPL5937		
26531287	Yersinia pestis, H2O2, 30min / Yersinia pestis, H2O, 30min	GSE9279	GSM232837	2			1		0	0	0	0	mbplot				GPL5937		
26535093	Yersinia pestis, oxyR mutant, H2O2, 30min / Yersinia pestis, Wild-type strain, H2O2, 30min	GSE9279	GSM232838	2			1		0	0	0	0	mbplot				GPL5937		
26538899	Yersinia pestis, phoP mutant, 10 ?M Mg2  / Yersinia pestis, wild type strain, 10 ?M Mg2 	GSE9279	GSM232839	2			1		0	0	0	0	mbplot				GPL5937		
26542705	Yersinia pestis, phoP mutant, pH 5.5 / Yersinia pestis, wild-type strain, pH 5.5	GSE9279	GSM232840	2			1		0	0	0	0	mbplot				GPL5937		
26504645	Yersinia pestis, iron starvation, 26 ?C, 2, 2'-dipyridyl, 30min / Yersinia pestis, iron rich, 26 ?C, 40 ?M FeCl3	GSE9279	GSM232841	2			1		0	0	0	0	mbplot				GPL5937		
26508451	Yersinia pestis, iron starvation, 37 ?C, 2, 2'-dipyridyl, 30min / Yersinia pestis, iron rich, 37 ?C, 40 ?M FeCl3	GSE9279	GSM232842	2			1		0	0	0	0	mbplot				GPL5937		
26474197	Yersinia pestis_fur mutant_iron rich_26 degree_30min_rep8 / Yersinia pestis_wild-type strain_iron rich_26 degree_30min_rep8	GSE9279	GSM232843	2			1		0	0	0	0	mbplot				GPL5937		
26478003	Yersinia pestis_fur mutant_iron rich_37 degree_30min_rep8 / Yersinia pestis_wild-type strain_iron rich_37 degree_30min_rep8	GSE9279	GSM232844	2			1		0	0	0	0	mbplot				GPL5937		
26512257	Yersinia pestis, 10 ?M Mg2  / Yersinia pestis, 20 mM Mg2 	GSE9279	GSM232845	2			1		0	0	0	0	mbplot				GPL5937		
8936638	H37Rv_hypoxia_4h RNA /H37Rv_Log phase RNA	GSE9331	GSM237631,GSM237632,GSM237633,GSM237634,GSM237635	2			1		0	0	0	0	mbplot				GPL4291		
8945814	H37Rv_hypoxia_8h RNA / H37Rv_Log phase RNA	GSE9331	GSM237636,GSM237637	2			1		0	0	0	0	mbplot				GPL4291		
8927462	H37Rv_hypoxia_1d RNA / H37Rv_Log phase RNA	GSE9331	GSM237640,GSM237641,GSM237642,GSM237643,GSM237644,GSM237645	2			1		0	0	0	0	mbplot				GPL4291		
8932050	H37Rv_hypoxia_4d RNA / H37Rv_Log phase RNA	GSE9331	GSM237646,GSM237647,GSM237648,GSM237649,GSM237650	2			1		0	0	0	0	mbplot				GPL4291		
8941226	H37Rv_hypoxia_7d RNA / H37Rv_Log phase RNA	GSE9331	GSM237651,GSM237652,GSM237653,GSM237654	2			1		0	0	0	0	mbplot				GPL4291		
8909110	dosR_mutant_hypoxia_4h RNA /dosR_mutant_Log phase RNA	GSE9331	GSM237655,GSM237656,GSM237657,GSM237658	2			1		0	0	0	0	mbplot				GPL4291		
8918286	dosR_mutant_hypoxia_8h RNA / dosR_mutant_Log phase RNA GSM237659	GSE9331	GSM237659	2			1		0	0	0	0	mbplot				GPL4291		
8895346	dosR_mutant_hypoxia_12h RNA / dosR_mutant_Log phase RNA	GSE9331	GSM237660,GSM237661	2			1		0	0	0	0	mbplot				GPL4291		
8899934	dosR_mutant_hypoxia_1d RNA / dosR_mutant_Log phase RNA	GSE9331	GSM237662,GSM237663,GSM237664,GSM237665,GSM237666	2			1		0	0	0	0	mbplot				GPL4291		
8904522	dosR_mutant_hypoxia 4d RNA / dosR_mutant_Log phase RNA	GSE9331	GSM237667	2			1		0	0	0	0	mbplot				GPL4291		
8913698	dosR_mutant_hypoxia_7d RNA /dosR_mutant_ Log phase RNA	GSE9331	GSM237668	2			1		0	0	0	0	mbplot				GPL4291		
8922874	dosR_mutant_hypoxia_8h RNA /dosR_mutant_Log phase RNA	GSE9331	GSM237672	2			1		0	0	0	0	mbplot				GPL4293		
24983559	S. mutans JLrelA control condition(relA mutant) / S. mutans UA159 grown in BHI(wildtype)	GSE9382	GSM238694,GSM238695,GSM238696,GSM238697	2			1		0	0	0	0	mbplot				GPL4340		
25001111	S. mutans JLrelA mup treated(relA mutant with mupricin treated) / S. mutans UA159 grown in BHI	GSE9382	GSM238698,GSM238699,GSM238735,GSM238737	2			1		0	0	0	0	mbplot				GPL4340		
25017631	S. mutans UA159 control condition / S. mutans UA159 grown in BHI	GSE9382	GSM238739,GSM238743,GSM238744,GSM238745	2			1		0	0	0	0	mbplot				GPL4340		
25022917	S. mutans UA159 mup treated / S. mutans UA159 grown in BHI	GSE9382	GSM238748,GSM238755,GSM238757,GSM238758	2			1		0	0	0	0	mbplot				GPL4340		
22822527	3.5h 100uM AI-2 / EHEC VS94 3.5h control	GSE9388	GSM239043/GSM239042	1			3		1	1	0	0	maplot		210		GPL3154	NC_002655	NC_002655
22831750	4h 100uM AI-2 / EHEC VS94 4h control	GSE9388	GSM239045/GSM239044	1			3		1	1	0	0	maplot		240		GPL3154	NC_002655	NC_002655
22840973	4.5h 100uM AI-2 / EHEC VS94 4.5h control	GSE9388	GSM239047/GSM239046	1			3		1	1	0	0	maplot		270		GPL3154	NC_002655	NC_002655
22850196	5.5h 100uM AI-2 / EHEC VS94 5.5h control	GSE9388	GSM239049/GSM239048	1			3		1	1	0	0	maplot		330		GPL3154	NC_002655	NC_002655
9721889	Salmonella adapted at pH 4.4 for 1 hour / Salmonella adapted at pH 4.4 for 1 hour   250 M spermine NONOate	GSE9398	GSM239109,GSM239140,GSM239141	2			1		0	0	0	0	mbplot				GPL1835		
26976577	Saccharopolyspora erythraea after 12h of growth / Saccharopolyspora erythraea after 16h of growth	GSE9422	GSM239465,GSM239466/GSM239467,GSM239468	1			1		1	1	0	0	maplot				GPL6051		
26983072	RNA extracted from Saccharopolyspora erythraea after 12h of growth / RNA extracted from Saccharopolyspora erythraea after 20h of growth	GSE9422	GSM239465,GSM239466/GSM239469,GSM239470	1			1		1	1	0	0	maplot				GPL6051		
26989567	RNA extracted from Saccharopolyspora erythraea after 12h of growth / RNA extracted from Saccharopolyspora erythraea after 32h of growth	GSE9422	GSM239465,GSM239466/GSM239471,GSM239472	1			1		1	1	0	0	maplot				GPL6051		
26996062	RNA extracted from Saccharopolyspora erythraea after 12h of growth / RNA extracted from Saccharopolyspora erythraea after 36h of growth	GSE9422	GSM239465,GSM239466/GSM239473,GSM239474	1			1		1	1	0	0	maplot				GPL6051		
27002557	RNA extracted from Saccharopolyspora erythraea after 12h of growth / RNA extracted from Saccharopolyspora erythraea after 40h of growth	GSE9422	GSM239465,GSM239466/GSM239475,GSM239476	1			1		1	1	0	0	maplot				GPL6051		
27009052	RNA extracted from Saccharopolyspora erythraea after 12h of growth / RNA extracted from Saccharopolyspora erythraea after 52h of growth	GSE9422	GSM239465,GSM239466/GSM239477,GSM239478	1			1		1	1	0	0	maplot				GPL6051		
27015547	RNA extracted from Saccharopolyspora erythraea after 12h of growth / RNA extracted from Saccharopolyspora erythraea after 56h of growth	GSE9422	GSM239465,GSM239466/GSM239479,GSM239480	1			1		1	1	0	0	maplot				GPL6051		
27022042	RNA extracted from Saccharopolyspora erythraea after 12h of growth / RNA extracted from Saccharopolyspora erythraea after 60h of growth	GSE9422	GSM239465,GSM239466/GSM239481,GSM239482	1			1		1	1	0	0	maplot				GPL6051		
27028537	RNA extracted from Saccharopolyspora erythraea after 12h of growth / RNA extracted from Saccharopolyspora erythraea after 72h of growth	GSE9422	GSM239465,GSM239466/GSM239483,GSM239484	1			1		1	1	0	0	maplot				GPL6051		
27035032	RNA extracted from Saccharopolyspora erythraea after 16h of growth / RNA extracted from Saccharopolyspora erythraea after 20h of growth	GSE9422	GSM239467,GSM239468/GSM239469,GSM239470	1			1		1	1	0	0	maplot				GPL6051		
27041527	RNA extracted from Saccharopolyspora erythraea after 16h of growth / RNA extracted from Saccharopolyspora erythraea after 32h of growth	GSE9422	GSM239467,GSM239468/GSM239471,GSM239472	1			1		1	1	0	0	maplot				GPL6051		
27048022	RNA extracted from Saccharopolyspora erythraea after 16h of growth / RNA extracted from Saccharopolyspora erythraea after 36h of growth	GSE9422	GSM239467,GSM239468/GSM239473,GSM239474	1			1		1	1	0	0	maplot				GPL6051		
27054517	RNA extracted from Saccharopolyspora erythraea after 16h of growth / RNA extracted from Saccharopolyspora erythraea after 40h of growth	GSE9422	GSM239467,GSM239468/GSM239475,GSM239476	1			1		1	1	0	0	maplot				GPL6051		
27061012	RNA extracted from Saccharopolyspora erythraea after 16h of growth / RNA extracted from Saccharopolyspora erythraea after 52h of growth	GSE9422	GSM239467,GSM239468/GSM239477,GSM239478	1			1		1	1	0	0	maplot				GPL6051		
27067507	RNA extracted from Saccharopolyspora erythraea after 16h of growth / RNA extracted from Saccharopolyspora erythraea after 56h of growth	GSE9422	GSM239467,GSM239468/GSM239479,GSM239480	1			1		1	1	0	0	maplot				GPL6051		
27074002	RNA extracted from Saccharopolyspora erythraea after 16h of growth / RNA extracted from Saccharopolyspora erythraea after 60h of growth	GSE9422	GSM239467,GSM239468/GSM239481,GSM239482	1			1		1	1	0	0	maplot				GPL6051		
27080497	RNA extracted from Saccharopolyspora erythraea after 16h of growth / RNA extracted from Saccharopolyspora erythraea after 72h of growth	GSE9422	GSM239467,GSM239468/GSM239483,GSM239484	1			1		1	1	0	0	maplot				GPL6051		
27086992	RNA extracted from Saccharopolyspora erythraea after 20h of growth / RNA extracted from Saccharopolyspora erythraea after 32h of growth	GSE9422	GSM239469,GSM239470/GSM239471,GSM239472	1			1		1	1	0	0	maplot				GPL6051		
27093487	RNA extracted from Saccharopolyspora erythraea after 20h of growth / RNA extracted from Saccharopolyspora erythraea after 36h of growth	GSE9422	GSM239469,GSM239470/GSM239473,GSM239474	1			1		1	1	0	0	maplot				GPL6051		
27099982	RNA extracted from Saccharopolyspora erythraea after 20h of growth / RNA extracted from Saccharopolyspora erythraea after 40h of growth	GSE9422	GSM239469,GSM239470/GSM239475,GSM239476	1			1		1	1	0	0	maplot				GPL6051		
27106477	RNA extracted from Saccharopolyspora erythraea after 20h of growth / RNA extracted from Saccharopolyspora erythraea after 52h of growth	GSE9422	GSM239469,GSM239470/GSM239477,GSM239478	1			1		1	1	0	0	maplot				GPL6051		
27112972	RNA extracted from Saccharopolyspora erythraea after 20h of growth / RNA extracted from Saccharopolyspora erythraea after 56h of growth	GSE9422	GSM239469,GSM239470/GSM239479,GSM239480	1			1		1	1	0	0	maplot				GPL6051		
27119467	RNA extracted from Saccharopolyspora erythraea after 20h of growth / RNA extracted from Saccharopolyspora erythraea after 60h of growth	GSE9422	GSM239469,GSM239470/GSM239481,GSM239482	1			1		1	1	0	0	maplot				GPL6051		
27125962	RNA extracted from Saccharopolyspora erythraea after 20h of growth / RNA extracted from Saccharopolyspora erythraea after 72h of growth	GSE9422	GSM239469,GSM239470/GSM239483,GSM239484	1			1		1	1	0	0	maplot				GPL6051		
27132457	RNA extracted from Saccharopolyspora erythraea after 32h of growth / RNA extracted from Saccharopolyspora erythraea after 36h of growth	GSE9422	GSM239471,GSM239472/GSM239473,GSM239474	1			1		1	1	0	0	maplot				GPL6051		
27138952	RNA extracted from Saccharopolyspora erythraea after 32h of growth / RNA extracted from Saccharopolyspora erythraea after 40h of growth	GSE9422	GSM239471,GSM239472/GSM239475,GSM239476	1			1		1	1	0	0	maplot				GPL6051		
27145447	RNA extracted from Saccharopolyspora erythraea after 32h of growth / RNA extracted from Saccharopolyspora erythraea after 52h of growth	GSE9422	GSM239471,GSM239472/GSM239477,GSM239478	1			1		1	1	0	0	maplot				GPL6051		
27151942	RNA extracted from Saccharopolyspora erythraea after 32h of growth / RNA extracted from Saccharopolyspora erythraea after 56h of growth	GSE9422	GSM239471,GSM239472/GSM239479,GSM239480	1			1		1	1	0	0	maplot				GPL6051		
27158437	RNA extracted from Saccharopolyspora erythraea after 32h of growth / RNA extracted from Saccharopolyspora erythraea after 60h of growth	GSE9422	GSM239471,GSM239472/GSM239481,GSM239482	1			1		1	1	0	0	maplot				GPL6051		
27164932	RNA extracted from Saccharopolyspora erythraea after 32h of growth / RNA extracted from Saccharopolyspora erythraea after 72h of growth	GSE9422	GSM239471,GSM239472/GSM239483,GSM239484	1			1		1	1	0	0	maplot				GPL6051		
27171427	RNA extracted from Saccharopolyspora erythraea after 36h of growth / RNA extracted from Saccharopolyspora erythraea after 40h of growth	GSE9422	GSM239473,GSM239474/GSM239475,GSM239476	1			1		1	1	0	0	maplot				GPL6051		
27177922	RNA extracted from Saccharopolyspora erythraea after 36h of growth / RNA extracted from Saccharopolyspora erythraea after 52h of growth	GSE9422	GSM239473,GSM239474/GSM239477,GSM239478	1			1		1	1	0	0	maplot				GPL6051		
27184417	RNA extracted from Saccharopolyspora erythraea after 36h of growth / RNA extracted from Saccharopolyspora erythraea after 56h of growth	GSE9422	GSM239473,GSM239474/GSM239479,GSM239480	1			1		1	1	0	0	maplot				GPL6051		
27190912	RNA extracted from Saccharopolyspora erythraea after 36h of growth / RNA extracted from Saccharopolyspora erythraea after 72h of growth	GSE9422	GSM239473,GSM239474/GSM239483,GSM239484	1			1		1	1	0	0	maplot				GPL6051		
27197407	RNA extracted from Saccharopolyspora erythraea after 40h of growth / RNA extracted from Saccharopolyspora erythraea after 52h of growth	GSE9422	GSM239475,GSM239476/GSM239477,GSM239478	1			1		1	1	0	0	maplot				GPL6051		
27203902	RNA extracted from Saccharopolyspora erythraea after 40h of growth / RNA extracted from Saccharopolyspora erythraea after 56h of growth	GSE9422	GSM239475,GSM239476/GSM239479,GSM239480	1			1		1	1	0	0	maplot				GPL6051		
27210397	RNA extracted from Saccharopolyspora erythraea after 40h of growth / RNA extracted from Saccharopolyspora erythraea after 60h of growth	GSE9422	GSM239475,GSM239476/GSM239481,GSM239482	1			1		1	1	0	0	maplot				GPL6051		
27216892	RNA extracted from Saccharopolyspora erythraea after 52h of growth / RNA extracted from Saccharopolyspora erythraea after 56h of growth	GSE9422	GSM239477,GSM239478/GSM239479,GSM239480	1			1		1	1	0	0	maplot				GPL6051		
27229882	RNA extracted from Saccharopolyspora erythraea after 52h of growth / RNA extracted from Saccharopolyspora erythraea after 60h of growth	GSE9422	GSM239477,GSM239478/GSM239481,GSM239482	1			1		1	1	0	0	maplot				GPL6051		
27223387	RNA extracted from Saccharopolyspora erythraea after 52h of growth / RNA extracted from Saccharopolyspora erythraea after 72h of growth	GSE9422	GSM239477,GSM239478/GSM239483,GSM239484	1			1		1	1	0	0	maplot				GPL6051		
27236377	RNA extracted from Saccharopolyspora erythraea after 56h of growth / RNA extracted from Saccharopolyspora erythraea after 60h of growth	GSE9422	GSM239479,GSM239480/GSM239481,GSM239482	1			1		1	1	0	0	maplot				GPL6051		
27242872	RNA extracted from Saccharopolyspora erythraea after 56h of growth / RNA extracted from Saccharopolyspora erythraea after 72h of growth	GSE9422	GSM239479,GSM239480/GSM239483,GSM239484	1			1		1	1	0	0	maplot				GPL6051		
27249367	RNA extracted from Saccharopolyspora erythraea after 60h of growth / RNA extracted from Saccharopolyspora erythraea after 72h of growth	GSE9422	GSM239481,GSM239482/GSM239483,GSM239484	1			1		1	1	0	0	maplot				GPL6051		
22859419	L-threonine producing strain / W3110 lacI (pKK223-3) control	GSE9434	GSM208573	2			1		0	0	0	0	mbplot				GPL5475		NC_000913
26103438	Streptococcus gordonii coaggregated with Actinomyces naeslundii. / Streptococcus gordonii monoculture	GSE9478	GSM240536,GSM240537	2			1		0	0	0	0	mbplot				GPL5736		
26275076	Daptomycin treated / Daptomycin untreated control	GSE9494	GSM240779	2			1		0	0	0	0	mbplot				GPL6059		
26272147	CCCP treated / CCCP untreated control	GSE9494	GSM240783	2			1		0	0	0	0	mbplot				GPL6059		
26278005	S. aureus Nisin Treatment / S. aureus nisin untreated control	GSE9494	GSM240784	2			1		0	0	0	0	mbplot				GPL6059		
26280934	Oxacillin treated S. aureus / Oxacillin untreated control	GSE9494	GSM240845	2			1		0	0	0	0	mbplot				GPL6059		
26283863	S. aureus vancomycin treated / Vancomycin untreated control	GSE9494	GSM240846	2			1		0	0	0	0	mbplot				GPL6059		
26286792	Daptomycin treated vraSR mutant KVR / Daptomycin treated S. aureus N315	GSE9494	GSM240847	2			1		0	0	0	0	mbplot				GPL6059		
22863905	Bdellovibrio infected E. coli S17-1 / E. coli only control	GSE9495	GSM240959,GSM240960,GSM240961,GSM240962,GSM240963,GSM240964,GSM240965,GSM240966,GSM240967,GSM240968/GSM240949,GSM240950,GSM240951,GSM240952,GSM240953,GSM240954,GSM240955,GSM240956,GSM240957,GSM240958	1			1		1	0	0	0	mbplot				GPL189	NC_000913	NC_000913
22868412	luxS in LB / WT W3110 in LB	GSE9582	GSM241976,GSM242118/GSM242116,GSM242117	1			1		1	1	0	0	mbplot				GPL199	NC_000913	NC_000913
7083667	QW119 RNA from LB broth at log phase / wild type RNA from LB broth at log phase	GSE9584	GSM214249,GSM214496,GSM214497	2	8	11	17	20	1	1	0	0	mbplot				GPL1835		
7096551	QW119 / Wildtype 14028	GSE9584	GSM214506,GSM214507,GSM214508	2	8	11	17	20	1	1	0	0	mbplot				GPL3788		
7105591	QW119 / Wildtype 14028	GSE9584	GSM214550,GSM214551,GSM214552	2	17	20	8	11	1	1	0	0	mbplot				GPL3788		
7114631	QW226 / Wildtype 14028	GSE9584	GSM214553,GSM214554,GSM214555	2	17	20	8	11	1	1	0	0	mbplot				GPL3788		
7130303	QW231 / WILDTYPE 14028	GSE9584	GSM214557,GSM214558,GSM214559	2	17	20	8	11	1	1	0	0	mbplot				GPL3788		
7126617	QW231 / WILDTYPE 14028	GSE9584	GSM214557,GSM214558,GSM214559	2	17	20	8	11	1	1	0	0	mbplot				GPL3788		
7135435	QW226 / WILDTYPE 14028	GSE9584	GSM214560,GSM214561,GSM214581	2	8	11	17	20	1	1	0	0	mbplot				GPL4804		
7144463	QW434 / Wildtype 14028	GSE9584	GSM215013,GSM215014,GSM215015	2	17	20	8	11	1	1	0	0	mbplot				GPL4804		
7149583	QW434 / Wildtype 14028	GSE9584	GSM215016,GSM215017,GSM215018	2	17	20	8	11	1	1	0	0	mbplot				GPL4804		
7168398	QW434 / WT 14028	GSE9584	GSM215019,GSM215020,GSM215021	2	8	11	17	20	1	1	0	0	mbplot				GPL4804		
7154703	QW434 / Wildtype 14028	GSE9584	GSM215229,GSM215230,GSM215231	2	17	20	8	11	1	1	0	0	mbplot				GPL3788		
22873015	luxS in LB + 0.8% glucose / WT W3110 in LB + 0.8% glucose	GSE9587	GSM242209,GSM242210/GSM242211,GSM242212	1			1		1	1	0	0	mbplot				GPL199	NC_000913	NC_000913
26626999	S. mutans delta codY / S. mutans UA159 grown in BHI	GSE9641	GSM241779,GSM241786,GSM241798,GSM241799	2			1		0	0	0	0	mbplot				GPL4340		
26628945	S. mutans UA159 / S. mutans UA159 grown in BHI	GSE9641	GSM241884,GSM242730,GSM242731,GSM242733	2			1		0	0	0	0	mbplot				GPL4340		
22877618	2 h infected TPI-1 cells / control	GSE9671	GSM244366,GSM244367,GSM244368,GSM244369/GSM244362,GSM244363,GSM244364,GSM244365	1			28		1	1	0	0	mbplot			1	GPL6178	NC_002655	NC_002655
22884188	8 h infected TPI-1 cells / control	GSE9671	GSM244370,GSM244371,GSM244372,GSM244373/GSM244362,GSM244363,GSM244364,GSM244365	1			28		1	1	0	0	mbplot			2	GPL6178	NC_002655	NC_002655
22890758	24 h infected TPI-1 cells / control	GSE9671	GSM244374,GSM244375,GSM244376,GSM244377/GSM244362,GSM244363,GSM244364,GSM244365	1			28		1	1	0	0	mbplot			3	GPL6178	NC_002655	NC_002655
7873639	Genomic DNA from Clostridium difficile strain 101 (equine isolate) / Genomic DNA from Clostridium difficile reference strain 630	GSE9693	GSM245069	2			1		0	0	0	0	mbplot	Mean value is off			GPL6118		
7875649	Genomic DNA from Clostridium difficile strain 104 (equine isolate) / Genomic DNA from Clostridium difficile reference strain 630	GSE9693	GSM245070	2			1		0	0	0	0	mbplot	Mean value is off			GPL6118		
7880931	Genomic DNA from Clostridium difficile strain 109 (equine isolate) / Genomic DNA from Clostridium difficile reference strain 630	GSE9693	GSM245071	2			1		0	0	0	0	mbplot	Mean value is off			GPL6118		
7881823	Genomic DNA from Clostridium difficile strain 112 (equine isolate) / Genomic DNA from Clostridium difficile reference strain 630	GSE9693	GSM245072	2			1		0	0	0	0	mbplot	Mean value is off			GPL6118		
7888223	Genomic DNA from Clostridium difficile strain 113 (equine isolate) / Genomic DNA from Clostridium difficile reference strain 630	GSE9693	GSM245073	2			1		0	0	0	0	mbplot	Mean value is off			GPL6118		
7889024	Genomic DNA from Clostridium difficile strain 114 (equine isolate) / Genomic DNA from Clostridium difficile reference strain 630	GSE9693	GSM245074	2			1		0	0	0	0	mbplot	Mean value is off			GPL6118		
7895515	Genomic DNA from Clostridium difficile strain 115 (equine isolate) / Genomic DNA from Clostridium difficile reference strain 630	GSE9693	GSM245075	2			1		0	0	0	0	mbplot				GPL6118		
7895840	Genomic DNA from Clostridium difficile strain 121 (equine isolate) / Genomic DNA from Clostridium difficile reference strain 630	GSE9693	GSM245076	2			1		0	0	0	0	mbplot	Mean value is off			GPL6118		
7902807	Genomic DNA from Clostridium difficile strain 123 (equine isolate) / Genomic DNA from Clostridium difficile reference strain 630	GSE9693	GSM245077	2			1		0	0	0	0	mbplot				GPL6118		
7903933	Genomic DNA from Clostridium difficile strain 124 (equine isolate) / Genomic DNA from Clostridium difficile reference strain 630	GSE9693	GSM245078	2			1		0	0	0	0	mbplot	Mean value is off			GPL6118		
7910099	Genomic DNA from Clostridium difficile strain 125 (equine isolate) / Genomic DNA from Clostridium difficile reference strain 630	GSE9693	GSM245079	2			1		0	0	0	0	mbplot				GPL6118		
7910814	Genomic DNA from Clostridium difficile strain 126 (equine isolate) / Genomic DNA from Clostridium difficile reference strain 630	GSE9693	GSM245080	2			1		0	0	0	0	mbplot				GPL6118		
7917391	Genomic DNA from Clostridium difficile strain 538 (equine isolate) / Genomic DNA from Clostridium difficile reference strain 630	GSE9693	GSM245081	2			1		0	0	0	0	mbplot				GPL6118		
7917820	Genomic DNA from Clostridium difficile strain 539 (equine isolate) / Genomic DNA from Clostridium difficile reference strain 630	GSE9693	GSM245082	2			1		0	0	0	0	mbplot				GPL6118		
7602731	Genomic DNA from Clostridium difficile strain 656 (bovine isolate) / Genomic DNA from Clostridium difficile reference strain 630	GSE9693	GSM245083	2			1		0	0	0	0	mbplot				GPL6118		
7609761	Genomic DNA from Clostridium difficile strain 658 (bovine isolate) / Genomic DNA from Clostridium difficile reference strain 630	GSE9693	GSM245084	2			1		0	0	0	0	mbplot				GPL6118		
7613407	Genomic DNA from Clostridium difficile strain 660 (bovine isolate) / Genomic DNA from Clostridium difficile reference strain 630	GSE9693	GSM245085	2			1		0	0	0	0	mbplot				GPL6118		
7617053	Genomic DNA from Clostridium difficile strain 662 (bovine isolate) / Genomic DNA from Clostridium difficile reference strain 630	GSE9693	GSM245086	2			1		0	0	0	0	mbplot				GPL6118		
7620699	Genomic DNA from Clostridium difficile strain 664 (bovine isolate) / Genomic DNA from Clostridium difficile reference strain 630	GSE9693	GSM245087	2			1		0	0	0	0	mbplot				GPL6118		
7630068	Genomic DNA from Clostridium difficile strain 668 (bovine isolate) / Genomic DNA from Clostridium difficile reference strain 630	GSE9693	GSM245088	2			1		0	0	0	0	mbplot				GPL6118		
7636478	Genomic DNA from Clostridium difficile strain 670 (bovine isolate) / Genomic DNA from Clostridium difficile reference strain 630	GSE9693	GSM245089	2			1		0	0	0	0	mbplot				GPL6118		
7640124	Genomic DNA from Clostridium difficile strain 672 (bovine isolate) / Genomic DNA from Clostridium difficile reference strain 630	GSE9693	GSM245090	2			1		0	0	0	0	mbplot				GPL6118		
7644527	Genomic DNA from Clostridium difficile strain 674 (bovine isolate) / Genomic DNA from Clostridium difficile reference strain 630	GSE9693	GSM245091	2			1		0	0	0	0	mbplot				GPL6118		
7652257	Genomic DNA from Clostridium difficile strain 676 (bovine isolate) / Genomic DNA from Clostridium difficile reference strain 630	GSE9693	GSM245092	2			1		0	0	0	0	mbplot				GPL6118		
7743290	Genomic DNA from Clostridium difficile strain CDC3 (human isolate) / Genomic DNA from Clostridium difficile reference strain 630	GSE9693	GSM245093	2			1		0	0	0	0	mbplot				GPL6118		
7800762	Genomic DNA from Clostridium difficile strain CDC6 (human isolate) / Genomic DNA from Clostridium difficile reference strain 630	GSE9693	GSM245094	2			1		0	0	0	0	mbplot				GPL6118		
7655903	Genomic DNA from Clostridium difficile strain CDC13 (human isolate) / Genomic DNA from Clostridium difficile reference strain 630	GSE9693	GSM245095	2			1		0	0	0	0	mbplot				GPL6118		
7662493	Genomic DNA from Clostridium difficile strain CDC14 (human isolate) / Genomic DNA from Clostridium difficile reference strain 630	GSE9693	GSM245096	2			1		0	0	0	0	mbplot				GPL6118		
7672877	Genomic DNA from Clostridium difficile strain CDC17(swine isolate) / Genomic DNA from Clostridium difficile reference strain 630	GSE9693	GSM245097	2			1		0	0	0	0	mbplot	Need to rework on this one. Mean value is off			GPL6118		
7681364	Genomic DNA from Clostridium difficile strain CDC18 (swine isolate) / Genomic DNA from Clostridium difficile reference strain 630	GSE9693	GSM245098	2			1		0	0	0	0	mbplot	Need to rework on this one. The Mean value is off			GPL6118		
7709664	Genomic DNA from Clostridium difficile strain CDC19 (human isolate) / Genomic DNA from Clostridium difficile reference strain 630	GSE9693	GSM245099	2			1		0	0	0	0	mbplot				GPL6118		
7713666	Genomic DNA from Clostridium difficile strain CDC21 (human isolate) / Genomic DNA from Clostridium difficile reference strain 630	GSE9693	GSM245100	2			1		0	0	0	0	mbplot				GPL6118		
7722088	Genomic DNA from Clostridium difficile strain CDC24 (human isolate) / Genomic DNA from Clostridium difficile reference strain 630	GSE9693	GSM245101	2			1		0	0	0	0	mbplot	Mean value is off			GPL6118		
7735465	Genomic DNA from Clostridium difficile strain CDC25 (human isolate) / Genomic DNA from Clostridium difficile reference strain 630	GSE9693	GSM245102	2			1		0	0	0	0	mbplot				GPL6118		
7739644	Genomic DNA from Clostridium difficile strain CDC27 (human isolate) / Genomic DNA from Clostridium difficile reference strain 630	GSE9693	GSM245103	2			1		0	0	0	0	mbplot				GPL6118		
7744107	Genomic DNA from Clostridium difficile strain CDC31 (human isolate) / Genomic DNA from Clostridium difficile reference strain 630	GSE9693	GSM245104	2			1		0	0	0	0	mbplot				GPL6118		
7750582	Genomic DNA from Clostridium difficile strain CDC33 (swine isolate) / Genomic DNA from Clostridium difficile reference strain 630	GSE9693	GSM245105	2			1		0	0	0	0	mbplot				GPL6118		
7753738	Genomic DNA from Clostridium difficile strain CDC34 (swine isolate) / Genomic DNA from Clostridium difficile reference strain 630	GSE9693	GSM245106	2			1		0	0	0	0	mbplot				GPL6118		
7757673	Genomic DNA from Clostridium difficile strain CDC35 (swine isolate) / Genomic DNA from Clostridium difficile reference strain 630	GSE9693	GSM245107	2			1		0	0	0	0	mbplot				GPL6118		
7761392	Genomic DNA from Clostridium difficile strain CDC36 (swine isolate) / Genomic DNA from Clostridium difficile reference strain 630	GSE9693	GSM245108	2			1		0	0	0	0	mbplot	Mean value is off			GPL6118		
7764555	Genomic DNA from Clostridium difficile strain CDC37 (swine isolate) / Genomic DNA from Clostridium difficile reference strain 630	GSE9693	GSM245109	2			1		0	0	0	0	mbplot	Mean value is way off			GPL6118		
7767149	Genomic DNA from Clostridium difficile strain CDC38 (swine isolate) / Genomic DNA from Clostridium difficile reference strain 630	GSE9693	GSM245110	2			1		0	0	0	0	mbplot				GPL6118		
7772458	Genomic DNA from Clostridium difficile strain CDC42 (human isolate) / Genomic DNA from Clostridium difficile reference strain 630	GSE9693	GSM245111	2			1		0	0	0	0	mbplot				GPL6118		
7776104	Genomic DNA from Clostridium difficile strain CDC43 (human isolate) / Genomic DNA from Clostridium difficile reference strain 630	GSE9693	GSM245112	2			1		0	0	0	0	mbplot				GPL6118		
7778071	Genomic DNA from Clostridium difficile strain CDC45 (human isolate) / Genomic DNA from Clostridium difficile reference strain 630	GSE9693	GSM245113	2			1		0	0	0	0	mbplot				GPL6118		
7783396	Genomic DNA from Clostridium difficile strain CDC49 (human isolate) / Genomic DNA from Clostridium difficile reference strain 630	GSE9693	GSM245114	2			1		0	0	0	0	mbplot				GPL6118		
7785451	Genomic DNA from Clostridium difficile strain CDC51 (human isolate) / Genomic DNA from Clostridium difficile reference strain 630	GSE9693	GSM245115	2			1		0	0	0	0	mbplot	Mean is off			GPL6118		
7790437	Genomic DNA from Clostridium difficile strain CDC53 (human isolate) / Genomic DNA from Clostridium difficile reference strain 630	GSE9693	GSM245116	2			1		0	0	0	0	mbplot				GPL6118		
7792913	Genomic DNA from Clostridium difficile strain CDC58 (human isolate) / Genomic DNA from Clostridium difficile reference strain 630	GSE9693	GSM245117	2			1		0	0	0	0	mbplot				GPL6118		
7796350	Genomic DNA from Clostridium difficile strain CDC59 (human isolate) / Genomic DNA from Clostridium difficile reference strain 630	GSE9693	GSM245118	2			1		0	0	0	0	mbplot	Mean id off			GPL6118		
7803648	Genomic DNA from Clostridium difficile strain CDC69 (human isolate) / Genomic DNA from Clostridium difficile reference strain 630	GSE9693	GSM245119	2			1		0	0	0	0	mbplot				GPL6118		
7931557	Genomic DNA from Clostridium difficile strain CDC71 (human isolate) / Genomic DNA from Clostridium difficile reference strain 630	GSE9693	GSM245120	2			1		0	0	0	0	mbplot	Mean value is off			GPL6118		
7808918	Genomic DNA from Clostridium difficile strain CDC74 (human isolate) / Genomic DNA from Clostridium difficile reference strain 630	GSE9693	GSM245121	2			1		0	0	0	0	mbplot	Mean value is off			GPL6118		
7815303	Genomic DNA from Clostridium difficile strain CDC75 (human isolate) / Genomic DNA from Clostridium difficile reference strain 630	GSE9693	GSM245122	2			1		0	0	0	0	mbplot	Mean value is off			GPL6118		
7815889	Genomic DNA from Clostridium difficile strain CDC76 (food isolate) / Genomic DNA from Clostridium difficile reference strain 630	GSE9693	GSM245123	2			1		0	0	0	0	mbplot				GPL6118		
7822595	Genomic DNA from Clostridium difficile strain CDC77 (food isolate) / Genomic DNA from Clostridium difficile reference strain 630	GSE9693	GSM245124	2			1		0	0	0	0	mbplot	Mean value is off			GPL6118		
7823479	Genomic DNA from Clostridium difficile strain CDC78 (food isolate) / Genomic DNA from Clostridium difficile reference strain 630	GSE9693	GSM245125	2			1		0	0	0	0	mbplot	mean value is off			GPL6118		
7829887	Genomic DNA from Clostridium difficile strain CDC79 (human isolate) / Genomic DNA from Clostridium difficile reference strain 630	GSE9693	GSM245126	2			1		0	0	0	0	mbplot	Mean is off			GPL6118		
7831524	Genomic DNA from Clostridium difficile strain CDC80 (human isolate) / Genomic DNA from Clostridium difficile reference strain 630	GSE9693	GSM245127	2			1		0	0	0	0	mbplot	Mean value is off			GPL6118		
7837179	Genomic DNA from Clostridium difficile strain CDC81 (human isolate) / Genomic DNA from Clostridium difficile reference strain 630	GSE9693	GSM245128	2			1		0	0	0	0	mbplot	Mean value is off			GPL6118		
7838145	Genomic DNA from Clostridium difficile strain CDC83 (human isolate) / Genomic DNA from Clostridium difficile reference strain 630	GSE9693	GSM245129	2			1		0	0	0	0	mbplot	Mean value is off			GPL6118		
7844471	Genomic DNA from Clostridium difficile strain CDC84 (human isolate) / Genomic DNA from Clostridium difficile reference strain 630	GSE9693	GSM245130	2			1		0	0	0	0	mbplot	Mean value is off			GPL6118		
7845070	Genomic DNA from Clostridium difficile strain CDC86 (food isolate) / Genomic DNA from Clostridium difficile reference strain 630	GSE9693	GSM245131	2			1		0	0	0	0	mbplot				GPL6118		
7851763	Genomic DNA from Clostridium difficile strain CDC88 (human isolate) / Genomic DNA from Clostridium difficile reference strain 630	GSE9693	GSM245132	2			1		0	0	0	0	mbplot	Mean value is off			GPL6118		
7853972	Genomic DNA from Clostridium difficile strain CDC89 (human isolate) / Genomic DNA from Clostridium difficile reference strain 630	GSE9693	GSM245133	2			1		0	0	0	0	mbplot	Mean value is off			GPL6118		
7859055	Genomic DNA from Clostridium difficile strain CDC90 (human isolate) / Genomic DNA from Clostridium difficile reference strain 630	GSE9693	GSM245134	2			1		0	0	0	0	mbplot	Mean value is off			GPL6118		
7859792	Genomic DNA from Clostridium difficile strain CDC94 (human isolate) / Genomic DNA from Clostridium difficile reference strain 630	GSE9693	GSM245135	2			1		0	0	0	0	mbplot	Mean value is off			GPL6118		
7866347	Genomic DNA from Clostridium difficile strain CDC96 (human isolate) / Genomic DNA from Clostridium difficile reference strain 630	GSE9693	GSM245136	2			1		0	0	0	0	mbplot	Mean value is off			GPL6118		
7866924	Genomic DNA from Clostridium difficile strain CDC97 (human isolate) / Genomic DNA from Clostridium difficile reference strain 630	GSE9693	GSM245137	2			1		0	0	0	0	mbplot				GPL6118		
7924683	Genomic DNA from Clostridium difficile strain QCD32g58 (human isolate) / Genomic DNA from Clostridium difficile reference strain 630	GSE9693	GSM245138	2			1		0	0	0	0	mbplot				GPL6118		
22897328	Ler overexpression in WT / WT control on LB	GSE9752	GSM246174,GSM246175	2			1		0	0	0	0	mbplot				GPL6228		NC_002695
22902780	Pch overexpression in WT / WT control on LB	GSE9752	GSM246176,GSM246177	2			1		0	0	0	0	mbplot				GPL6228		NC_002695
22908232	ler / WT control on LB	GSE9752	GSM246178,GSM246179	2			1		0	0	0	0	mbplot				GPL6228		NC_002695
22913684	pchABC / WT control on LB	GSE9752	GSM246180,GSM246181	2			1		0	0	0	0	mbplot				GPL6228		NC_002695
22919136	Pch overexpression in ler / ler control on LB	GSE9752	GSM246182,GSM246183	2			1		0	0	0	0	mbplot				GPL6228		NC_002695
22924588	Ler overexpression in pchAB / pchAB control on LB	GSE9752	GSM246184,GSM246185	2			1		0	0	0	0	mbplot				GPL6228		NC_002695
22930040	Ler overexpression in pchABC / pchABC control on LB	GSE9752	GSM246186,GSM246187	2			1		0	0	0	0	mbplot				GPL6228		NC_002695
22935492	Ler overexpression in WT / WT control on DMEM	GSE9752	GSM246188,GSM246189	2			1		0	0	0	0	mbplot				GPL6228		NC_002695
22940944	PchA overexpression in WT / WT control on DMEM	GSE9752	GSM246190,GSM246191	2			1		0	0	0	0	mbplot				GPL6228		NC_002695
22946396	ler / WT control on DMEM	GSE9752	GSM246192,GSM246193	2			1		0	0	0	0	mbplot				GPL6228		NC_002695
22951848	pchABC / WT control on DMEM	GSE9752	GSM246194,GSM246195	2			1		0	0	0	0	mbplot				GPL6228		NC_002695
22957300	PchA overexpression in ler / ler control on DMEM	GSE9752	GSM246196,GSM246197	2			1		0	0	0	0	mbplot				GPL6228		NC_002695
22962752	Ler overexpression in pchABC / pchABC control on DMEM	GSE9752	GSM246198,GSM246199	2			1		0	0	0	0	mbplot				GPL6228		NC_002695
22968204	1% tannin / continuous culture without tannin	GSE9755	GSM246247,GSM246249/GSM246244,GSM246246	1			1		1	1	0	0	mbplot				GPL199	NC_000913	NC_000913
8070393	2 hour 1ug/ml INH treated log phase culture / 2 hour water treated log phase culture	GSE9776	GSM241391,GSM241431,GSM241432	2			1		0	0	0	0	mbplot				GPL6020		
8074301	6 hour 1ug/ml INH treated log phase culture / 6 hour water treated log phase culture	GSE9776	GSM241392,GSM241433,GSM241434	2			1		0	0	0	0	mbplot				GPL6020		
8056487	6 hour 1ug/ml INH treated log phase KatG knockout culture / 6 hour water treated log phase KatG knockout culture	GSE9776	GSM241437,GSM241439,GSM241441	2			1		0	0	0	0	mbplot				GPL6020		
8082117	6 hour 1ug/ml INH treated nutrient starved culture / 6 hour water treated nutrient starved culture	GSE9776	GSM241442,GSM241443	2			1		0	0	0	0	mbplot				GPL6020		
8086025	6 hour 1ug/ml INH treated oxygen depleted culture / 6 hour water treated oxygen depleted culture	GSE9776	GSM241450,GSM241661,GSM241662	2			1		0	0	0	0	mbplot				GPL6020		
8078209	6 hour 25mg/kg INH treated hollow fiber / 6 hour water treated hollow fiber	GSE9776	GSM241663,GSM241664,GSM241665	2			1		0	0	0	0	mbplot				GPL6020		
22972807	rpoS / WT	GSE9814	GSM247614,GSM247615,GSM247616/GSM247608,GSM247612,GSM247613	1			1		1	1	0	0	mbplot				GPL199	NC_000913	NC_000913
26942985	glnPA OD 0.3 / wild-type OD 0.3	GSE9850	GSM249021,GSM249022,GSM249023,GSM249024	2			1		0	0	0	0	mbplot				GPL6268		
22977410	sdiA free-living cells 30 degrees / WT free-living cells 30 degrees	GSE9923	GSM247665/GSM247664	1			1		1	1	0	0	mbplot				GPL3154	NC_000913	NC_000913
22989646	luxS free-living cells +AI-2 30 degrees / luxS free-living cells without AI-2 30 degrees	GSE9923	GSM247667/GSM247666	1			1		1	1	0	0	mbplot				GPL3154	NC_000913	NC_000913
23001882	luxS free-living cells +AI-2 37 degrees / luxS free-living cells without AI-2 30 degrees	GSE9923	GSM247668/GSM247666	1			1		1	1	0	0	mbplot				GPL3154	NC_000913	NC_000913
23014118	luxS free-living cells +AI-2 37 degrees / luxS free-living cells without AI-2 37 degrees	GSE9923	GSM247668/GSM247669	1			1		1	1	0	0	mbplot				GPL3154	NC_000913	NC_000913
23026354	tnaA biofilm +100 uM indole 30 degrees / tnaA biofilm without indole 30 degrees	GSE9923	GSM247863/GSM247858	1			1		1	1	0	0	mbplot				GPL199	NC_000913	NC_000913
23030957	tnaA biofilm +100 uM indole 37 degrees / tnaA biofilm without indole 37 degrees	GSE9923	GSM247867/GSM247861	1			1		1	1	0	0	mbplot				GPL3154	NC_000913	NC_000913
23043193	WT biofilm cells 30 degrees / WT free-living cells 30 degrees	GSE9923	GSM247869/GSM247868	1			1		1	1	0	0	mbplot				GPL199	NC_000913	NC_000913
23047796	sdiA with biofilm cells +1mM indole 30 degrees / sdiA biofilm cells without indole 30 degrees	GSE9923	GSM264625/GSM264626	1			1		1	1	0	0	mbplot				GPL3154	NC_000913	NC_000913
23060032	hha overexpression / control	GSE10116	GSM255761/GSM255759	1			1		1	1	0	0	mbplot				GPL3154	NC_000913	NC_000913
23072268	10 ug cefsulodin -5 min / untreated -5 min	GSE10160	GSM256880,GSM256881/GSM256868,GSM256869,GSM256870	1			1		0	1	0	0	mbplot		-5		GPL199	NC_000913	NC_000913
23076871	0.03 ug mecillinam -5 min / untreated -5 min	GSE10160	GSM256889,GSM256890/GSM256868,GSM256869,GSM256870	1			1		0	1	0	0	mbplot		-5		GPL199	NC_000913	NC_000913
23081474	10 ug cefsulodin and 0.03 ug mecillinam -5 min / untreated -5 min	GSE10160	GSM256898,GSM256899,GSM256900/GSM256868,GSM256869,GSM256870	1			1		0	1	0	0	mbplot		-5		GPL199	NC_000913	NC_000913
23086077	10 ug cefsulodin 5 min / untreated 5 min	GSE10160	GSM256882,GSM256883/GSM256871,GSM256872	1			1		0	1	0	0	mbplot		5		GPL199	NC_000913	NC_000913
23090680	0.03 ug mecillinam 5 min / untreated 5 min	GSE10160	GSM256891,GSM256892/GSM256871,GSM256872	1			1		0	1	0	0	mbplot		5		GPL199	NC_000913	NC_000913
23095283	10 ug cefsulodin and 0.03 ug mecillinam 5 min / untreated 5 min	GSE10160	GSM256901,GSM256902,GSM256903/GSM256871,GSM256872	1			1		0	1	0	0	mbplot		5		GPL199	NC_000913	NC_000913
23099886	60 ug cefsulodin 5 min / untreated 5 min	GSE10160	GSM256919,GSM256920/GSM256911	1			1		0	1	0	0	mbplot		5		GPL3154	NC_000913	NC_000913
23112122	60 ug cefsulodin 10 min / untreated 10 min	GSE10160	GSM256922,GSM256923,GSM256924/GSM256912,GSM256913,GSM256914	1			1		0	1	0	0	mbplot		10		GPL3154	NC_000913	NC_000913
23124358	10 ug cefsulodin 20 min / untreated 20 min	GSE10160	GSM256884,GSM256885/GSM256873,GSM256874,GSM256875	1			1		0	1	0	0	mbplot		20		GPL199	NC_000913	NC_000913
23128961	0.03 ug mecillinam 20 min / untreated 20 min	GSE10160	GSM256893,GSM256894/GSM256873,GSM256874,GSM256875	1			1		0	1	0	0	mbplot		20		GPL199	NC_000913	NC_000913
23133564	10 ug cefsulodin and 0.03 ug mecillinam 20 min / untreated 20 min	GSE10160	GSM256904,GSM256905,GSM256906/GSM256873,GSM256874,GSM256875	1			1		0	1	0	0	mbplot		20		GPL199	NC_000913	NC_000913
23138167	60 ug cefsulodin 20 min / untreated 10 min	GSE10160	GSM256921/GSM256912,GSM256913,GSM256914	1			1		0	1	0	0	mbplot		20		GPL3154	NC_000913	NC_000913
23150403	10 ug cefsulodin 40 min / untreated 40 min	GSE10160	GSM256886,GSM256887,GSM256888/GSM256876,GSM256877,GSM256878,GSM256879	1			1		0	1	0	0	mbplot		40		GPL199	NC_000913	NC_000913
23155006	0.03 ug mecillinam 40 min / untreated 40 min	GSE10160	GSM256895,GSM256896,GSM256897/GSM256876,GSM256877,GSM256878,GSM256879	1			1		0	1	0	0	mbplot		40		GPL199	NC_000913	NC_000913
23159609	10 ug cefsulodin and 0.03 ug mecillinam 40 min / untreated 40 min	GSE10160	GSM256907,GSM256908,GSM256909,GSM256910/GSM256876,GSM256877,GSM256878,GSM256879	1			1		0	1	0	0	mbplot		40		GPL199	NC_000913	NC_000913
23164212	60 ug cefsulodin and 0.3 ug mecillinam 40 min / untreated 40 min	GSE10160	GSM256928/GSM256918	1			1		0	1	0	0	mbplot		40		GPL3154	NC_000913	NC_000913
23176448	0.3 ug mecillinam 60 min / untreated 60 min	GSE10160	GSM256925,GSM256926,GSM256927/GSM256915,GSM256916,GSM256917	1			1		0	1	0	0	mbplot		60		GPL3154	NC_000913	NC_000913
26835477	Streptococcus mutans UA159 High Mn / Streptococcus mutans UA159 Low Mn	GSE10215	GSM257877,GSM257879,GSM257881/GSM257876,GSM257878,GSM257880	1			1		1	1	0	0	maplot				GPL6395		
26837435	Streptococcus mutans UA159 SloR mutant/ Streptococcus mutans UA159 WT	GSE10215	GSM257883,GSM257885/GSM257882,GSM257884	1			1		1	1	0	0	maplot				GPL6395		
9726957	corA mutant / wild type	GSE10242	GSM258208,GSM258475,GSM258476	2	2	4	3	5	1	1	0	0	mbplot				GPL4805		
9732080	corA mutant / wild type	GSE10242	GSM258477,GSM258478,GSM258479	2	2	4	3	5	1	1	0	0	mbplot				GPL4805		
9737203	corA mutant / wild type	GSE10242	GSM258480,GSM258481,GSM258482	2	2	4	3	5	1	1	0	0	mbplot				GPL4805		
9742326	wild type total RNA/ wild type genomic DNA	GSE10242	GSM258483,GSM258484,GSM258485	2	2	4	3	5	1	1	0	0	mbplot				GPL4805		
9747449	wild type total RNA / wild type genomic DNA	GSE10242	GSM258486,GSM258487,GSM258488	2	2	4	3	5	1	1	0	0	mbplot				GPL4805		
9752572	wild type total RNA / wild type genomic DNA	GSE10242	GSM258489,GSM258490,GSM258491	2	2	4	3	5	1	1	0	0	mbplot				GPL4805		
23188684	batch culture control / (T2) glucose limited fed-batch (dye swap)	GSE10307	GSM259838,GSM259876,GSM259894	2			1		0	0	0	0	mbplot		10		GPL6427		NC_000913
23193181	(T2) glucose limited fed-batch / batch culture control 	GSE10307	GSM259840,GSM259877,GSM259895	2			1		0	0	0	0	mbplot		10		GPL6427		NC_000913
23197678	batch culture control / (T3) glucose limited fed-batch (dye swap)	GSE10307	GSM259841,GSM259890,GSM259896	2			1		0	0	0	0	mbplot		30		GPL6427		NC_000913
23202175	(T3) glucose limited fed-batch / batch culture control	GSE10307	GSM259843,GSM259891,GSM259904	2			1		0	0	0	0	mbplot		30		GPL6427		NC_000913
23206672	batch culture control / (T4) glucose limited fed-batch (dye swap)	GSE10307	GSM259844,GSM259878,GSM259905	2			1		0	0	0	0	mbplot		50		GPL6427		NC_000913
23211169	(T4) glucose limited fed-batch / batch culture control	GSE10307	GSM259846,GSM259879,GSM259906	2			1		0	0	0	0	mbplot		50		GPL6427		NC_000913
23215666	batch culture control / (T5) glucose limited fed-batch (dye swap)	GSE10307	GSM259880,GSM259907	2			1		0	0	0	0	mbplot		110		GPL6427		NC_000913
23220163	(T5) glucose limited fed-batch / batch culture control	GSE10307	GSM259881,GSM259908	2			1		0	0	0	0	mbplot		110		GPL6427		NC_000913
23224660	batch culture control / (T6) glucose limited fed-batch (dye swap)	GSE10307	GSM259882,GSM259909	2			1		0	0	0	0	mbplot		170		GPL6427		NC_000913
23229157	(T6) glucose limited fed-batch / batch culture control	GSE10307	GSM259883,GSM259910	2			1		0	0	0	0	mbplot		170		GPL6427		NC_000913
23233654	batch culture control / (T7) glucose limited fed-batch (dye swap)	GSE10307	GSM259884,GSM259911	2			1		0	0	0	0	mbplot		230		GPL6427		NC_000913
23238151	(T7) glucose limited fed-batch / batch culture control	GSE10307	GSM259885,GSM259912	2			1		0	0	0	0	mbplot		230		GPL6427		NC_000913
23242648	batch culture control / (T8) glucose limited fed-batch (dye swap)	GSE10307	GSM259886,GSM259913	2			1		0	0	0	0	mbplot		350		GPL6427		NC_000913
23247145	(T8) glucose limited fed-batch / batch culture control	GSE10307	GSM259887,GSM259914	2			1		0	0	0	0	mbplot		350		GPL6427		NC_000913
23251642	batch culture control / (T1) glucose limited fed-batch (dye swap)	GSE10307	GSM259830,GSM259888,GSM259893	2			1		0	0	0	0	mbplot				GPL6427		NC_000913
23256139	(T1) glucose limited fed-batch / batch culture control 	GSE10307	GSM259837,GSM259889,GSM259893	2			1		0	0	0	0	mbplot				GPL6427		NC_000913
23260636	O157 TUV93-0 + 20uM ME0052 / O157 TUV93-0 control	GSE10319	GSM260720	2			1		1	0	0	0	mbplot				GPL3051		NC_002655
23266988	O157 TUV93-0 + 20uM ME0053 / O157 TUV93-0 control	GSE10319	GSM260721	2			1		1	0	0	0	mbplot				GPL3051		NC_002655
23273340	O157 TUV93-0 + 20uM ME0054 / O157 TUV93-0 control	GSE10319	GSM260722	2			1		1	0	0	0	mbplot				GPL3051		NC_002655
23279692	O157 TUV93-0 + 20uM ME0055 / O157 TUV93-0 control	GSE10319	GSM260723	2			1		1	0	0	0	mbplot				GPL3051		NC_002655
23286044	MG1655 10 ug bicyclomycin / MG1655 control	GSE10345	GSM261484,GSM261485/GSM261482,GSM261483	1			1		1	1	0	0	mbplot				GPL3154	NC_000913	NC_000913
23298280	MG1655 25 ug bicyclomycin / MG1655 control	GSE10345	GSM261486,GSM261487/GSM261482,GSM261483	1			1		1	1	0	0	mbplot				GPL3154	NC_000913	NC_000913
23310516	MG1655 100 ug bicyclomycin / MG1655 control	GSE10345	GSM261488,GSM261489/GSM261482,GSM261483	1			1		1	1	0	0	mbplot				GPL3154	NC_000913	NC_000913
23322752	O157:H7 100 ug bicyclomycin / O157:H7 control	GSE10345	GSM261492,GSM261493/GSM261490,GSM261491	1			1		1	1	0	0	mbplot				GPL3154	NC_000913	NC_000913
23334988	MDS42 100 ug bicyclomycin / MDS42 control	GSE10345	GSM261496,GSM261497/GSM261494,GSM261495	1			1		1	1	0	0	mbplot				GPL3154	NC_000913	NC_000913
23347224	MDS42 nusA / MDS42 control	GSE10345	GSM261498,GSM261499/GSM261494,GSM261495	1			1		1	1	0	0	mbplot				GPL3154	NC_000913	NC_000913
23359460	MDS42 nusG / MDS42 control	GSE10345	GSM261500,GSM261501/GSM261494,GSM261495	1			1		1	1	0	0	mbplot				GPL3154	NC_000913	NC_000913
8474699	M. tuberculosis H37Rv grown under multiple stress for 1 day in Dubos medium (pH5.0) without glycerol starting from OD600	GSE10391	GSM262592,GSM262593,GSM262594,GSM262595,GSM262596,GSM262597,GSM262598,GSM262599,GSM262600,GSM262601	2			1		0	0	0	0	mbplot				GPL4388		
8479407	M. tuberculosis H37Rv grown under multiple stress for 2 days in Dubos medium (pH5.0) without glycerol starting from OD600	GSE10391	GSM262602,GSM262603,GSM262604,GSM262605,GSM262606,GSM262607,GSM262608,GSM262609,GSM262610,GSM262611	2			1		0	0	0	0	mbplot				GPL4388		
8428532	M. tuberculosis H37Rv grown under multiple stress for 3 days in Dubos medium (pH5.0) without glycerol starting from OD600	GSE10391	GSM262612,GSM262613,GSM262614,GSM262615,GSM262616	2			1		0	0	0	0	mbplot				GPL4369		
8433240	M. tuberculosis H37Rv grown under multiple stress for 3 days in Dubos medium (pH5.0) without glycerol starting from OD600	GSE10391	GSM262617,GSM262618,GSM262619,GSM262620,GSM262621,GSM262622,GSM262623,GSM262624,GSM262625,GSM262626	2			1		0	0	0	0	mbplot				GPL4388		
8419116	M. tuberculosis H37Rv grown under multiple stress for 6 days in Dubos medium (pH5.0) without glycerol starting from OD600	GSE10391	GSM262627,GSM262628,GSM262629,GSM262630,GSM262631,GSM262632,GSM262633,GSM262634,GSM262635,GSM262636,GSM262637,GSM262638	2			1		0	0	0	0	mbplot				GPL4369		
8451159	M. tuberculosis H37Rv grown under multiple stress for 6 days in Dubos medium (pH5.0) without glycerol starting from OD600	GSE10391	GSM262639,GSM262640,GSM262641,GSM262642,GSM262643	2			1		0	0	0	0	mbplot				GPL4388		
8423824	M. tuberculosis H37Rv grown under multiple stress for 12 days in Dubos medium (pH5.0) without glycerol starting from OD600	GSE10391	GSM262644,GSM262645,GSM262646,GSM262647,GSM262648,GSM262649,GSM262650,GSM262651,GSM262652,GSM262653,GSM262654	2			1		0	0	0	0	mbplot				GPL4369		
8437948	M. tuberculosis H37Rv grown for 3 days under multiple stress in reduced Dubos medium (10%, pH5.0) without glycerol starting from OD600	GSE10391	GSM262655,GSM262656	2			1		0	0	0	0	mbplot				GPL4388		
8455867	M. tuberculosis H37Rv grown for 9 days under multiple stress in reduced Dubos medium (10%, pH5.0) without glycerol starting from OD600	GSE10391	GSM262657,GSM262658	2			1		0	0	0	0	mbplot				GPL4388		
8465283	M. tuberculosis H37Rv grown for 18 days under multiple stress in reduced Dubos medium (10%, pH5.0) without glycerol starting from OD600	GSE10391	GSM262659,GSM262660	2			1		0	0	0	0	mbplot				GPL4388		
8442656	M. tuberculosis H37Rv grown for 3 days in reduced Dubos medium (10%, pH7.0) without glycerol starting from OD600	GSE10391	GSM262661,GSM262662	2			1		0	0	0	0	mbplot				GPL4388		
8460575	M. tuberculosis H37Rv grown for 9 days in reduced Dubos medium (10%, pH7.0) without glycerol starting from OD600	GSE10391	GSM262663,GSM262664	2			1		0	0	0	0	mbplot				GPL4388		
8469991	M. tuberculosis H37Rv grown for 18 days in reduced Dubos medium (10%, pH7.0) without glycerol starting from OD600	GSE10391	GSM262665,GSM262666	2			1		0	0	0	0	mbplot				GPL4388		
6774141	Brucella melitensis delta blxR, log phase, in broth / Brucella melitensis, log phase, in broth	GSE10735	GSM263816,GSM263817,GSM263818,GSM263819,GSM263820/GSM258798,GSM258799,GSM258800,GSM258802,GSM258803,GSM258804,GSM258805,GSM258806	1			1		1	1	0	0	maplot				GPL6170		
23371696	4 min temp upshift / 0 min control	GSE10855	GSM275372/GSM275371	1			2		1	0	0	0	maplot		4	1	GPL6570	NC_000913	NC_000913
23376061	8 min temp upshift / 0 min control	GSE10855	GSM275373/GSM275371	1			2		1	0	0	0	mbplot		8	2	GPL6570	NC_000913	NC_000913
23380426	12 min temp upshift / 0 min control	GSE10855	GSM275374/GSM275371	1			2		1	0	0	0	mbplot		12	3	GPL6570	NC_000913	NC_000913
23384791	20 min temp upshift / 0 min control	GSE10855	GSM275375/GSM275371	1			2		1	0	0	0	mbplot		20	4	GPL6570	NC_000913	NC_000913
23389156	28 min temp upshift / 0 min control	GSE10855	GSM275376/GSM275371	1			2		1	0	0	0	mbplot		28	5	GPL6570	NC_000913	NC_000913
23393521	44 min temp upshift / 0 min control	GSE10855	GSM275377/GSM275371	1			2		1	0	0	0	mbplot		44	6	GPL6570	NC_000913	NC_000913
23397886	4 min temp downshift / 0 min control	GSE10855	GSM275386/GSM275385	1			2		1	0	0	0	mbplot		4	7	GPL6570	NC_000913	NC_000913
23402251	8 min temp downshift / 0 min control	GSE10855	GSM275387/GSM275385	1			2		1	0	0	0	mbplot		8	8	GPL6570	NC_000913	NC_000913
23406616	12 min temp downshift / 0 min control	GSE10855	GSM275388/GSM275385	1			2		1	0	0	0	mbplot		12	9	GPL6570	NC_000913	NC_000913
23410981	20 min temp downshift / 0 min control	GSE10855	GSM275389/GSM275385	1			2		1	0	0	0	mbplot		20	10	GPL6570	NC_000913	NC_000913
23415346	28 min temp downshift / 0 min control	GSE10855	GSM275390/GSM275385	1			2		1	0	0	0	mbplot		28	11	GPL6570	NC_000913	NC_000913
23419711	44 min temp downshift / 0 min control	GSE10855	GSM275391/GSM275385	1			2		1	0	0	0	mbplot		44	12	GPL6570	NC_000913	NC_000913
23424076	16 min temp upshift / 0 min parental control	GSE10855	GSM275400/GSM275399	1			2		1	0	0	0	mbplot		16	13	GPL6570	NC_000913	NC_000913
23428441	44 min temp upshift / 0 min parental control	GSE10855	GSM275404/GSM275399	1			2		1	0	0	0	mbplot		44	14	GPL6570	NC_000913	NC_000913
23432806	16 min temp upshift / 0 min evolved strain control	GSE10855	GSM275403/GSM275402	1			2		1	0	0	0	mbplot		16	15	GPL6570	NC_000913	NC_000913
23437171	44 min temp upshift / 0 min evolved strain control	GSE10855	GSM275404/GSM275402	1			2		1	0	0	0	mbplot		44	16	GPL6570	NC_000913	NC_000913
23441536	4 min oxygen upshift / 0 min control	GSE10855	GSM275393/GSM275392	1			2		1	0	0	0	mbplot		4	17	GPL6570	NC_000913	NC_000913
23445901	8 min oxygen upshift / 0 min control	GSE10855	GSM275394/GSM275392	1			2		1	0	0	0	mbplot		8	18	GPL6570	NC_000913	NC_000913
23450266	12 min oxygen upshift / 0 min control	GSE10855	GSM275395/GSM275392	1			2		1	0	0	0	mbplot		12	19	GPL6570	NC_000913	NC_000913
23454631	20 min oxygen upshift / 0 min control	GSE10855	GSM275396/GSM275392	1			2		1	0	0	0	mbplot		20	20	GPL6570	NC_000913	NC_000913
23458996	28 min oxygen upshift / 0 min control	GSE10855	GSM275397/GSM275392	1			2		1	0	0	0	mbplot		28	21	GPL6570	NC_000913	NC_000913
23463361	44 min oxygen upshift / 0 min control	GSE10855	GSM275398/GSM275392	1			2		1	0	0	0	mbplot		44	22	GPL6570	NC_000913	NC_000913
23467726	4 min oxygen downshift / 0 min control	GSE10855	GSM275379/GSM275378	1			2		1	0	0	0	mbplot		4	23	GPL6570	NC_000913	NC_000913
23472091	8 min oxygen downshift / 0 min control	GSE10855	GSM275380/GSM275378	1			2		1	0	0	0	mbplot		8	24	GPL6570	NC_000913	NC_000913
23476456	12 min oxygen downshift / 0 min control	GSE10855	GSM275381/GSM275378	1			2		1	0	0	0	mbplot		12	25	GPL6570	NC_000913	NC_000913
23480821	20 min oxygen downshift / 0 min control	GSE10855	GSM275382/GSM275378	1			2		1	0	0	0	mbplot		20	26	GPL6570	NC_000913	NC_000913
23485186	28 min oxygen downshift / 0 min control	GSE10855	GSM275383/GSM275378	1			2		1	0	0	0	mbplot		28	27	GPL6570	NC_000913	NC_000913
23489551	44 min oxygen downshift / 0 min control	GSE10855	GSM275384/GSM275378	1			2		1	0	0	0	mbplot		44	28	GPL6570	NC_000913	NC_000913
23493916	E. coli B178 groESL(-) expressing human Hsp60 and Hsp10 / E. coli B178 groESL(-) expressing human wt and Val98Ile Hsp60 and Hsp10	GSE10974	GSM277818/GSM277819	1			1		1	1	0	0	mbplot				GPL199	NC_000913	NC_000913
23498519	4.5% NaCl in TSB / pooled RNA control	GSE11041	GSM279016,GSM279025,GSM279032	2			1		0	0	0	0	mbplot				GPL6679		NC_000913
23508316	15% glycerol in TSB / pooled RNA control	GSE11041	GSM279017,GSM279028,GSM279030	2			1		0	0	0	0	mbplot				GPL6679		NC_000913
23518113	HCl (pH 4.75) in TSB / pooled RNA control	GSE11041	GSM279018,GSM279046	2			1		0	0	0	0	mbplot				GPL6679		NC_000913
23527910	NaOH (pH 9.6) in TSB / pooled RNA control	GSE11041	GSM279019,GSM279042	2			1		0	0	0	0	mbplot				GPL6679		NC_000913
23537707	0.05 M acetate in TSB / pooled RNA control	GSE11041	GSM279020,GSM279022,GSM279026	2			1		0	0	0	0	mbplot				GPL6679		NC_000913
23547504	Heat (46o) in TSB / pooled RNA control	GSE11041	GSM279021,GSM279027,GSM279043	2			1		0	0	0	0	mbplot				GPL6679		NC_000913
23557301	5% ethanol in TSB / pooled RNA control	GSE11041	GSM279023,GSM279031,GSM279048	2			1		0	0	0	0	mbplot				GPL6679		NC_000913
23567098	Cold (15o) in TSB / pooled RNA control	GSE11041	GSM279024,GSM279029,GSM279033	2			1		0	0	0	0	mbplot				GPL6679		NC_000913
23576895	7 ppm benzalkonium Cl in TSB / pooled RNA control	GSE11041	GSM279035,GSM279045,GSM279047	2			1		0	0	0	0	mbplot				GPL6679		NC_000913
23586692	9 ppm benzalkonium Cl in TSB / pooled RNA control	GSE11041	GSM279036,GSM279039,GSM279049	2			1		0	0	0	0	mbplot				GPL6679		NC_000913
23596489	150 mg/ml ethidium Br in TSB / pooled RNA control	GSE11041	GSM279037,GSM279040,GSM279041	2			1		0	0	0	0	mbplot				GPL6679		NC_000913
23606286	exponential / stationary in apple juice Rep 1,4	GSE11052	GSM278228,GSM279169	2	3		2		0	0	0	0	mbplot				GPL5047		NC_002695
23611523	exponential / stationary in apple juice Rep 2,3	GSE11052	GSM279167,GSM279168	2	2		3		0	0	0	0	mbplot				GPL5047		NC_002695
23616760	apple juice / MOPS exponential Rep 1,2,4,5	GSE11052	GSM279170,GSM279171,GSM279173,GSM279174	2	3		2		0	0	0	0	mbplot				GPL5047		NC_002695
23621997	apple juice / MOPS exponential Rep 3	GSE11052	GSM279172	2	2		3		0	0	0	0	mbplot				GPL5047		NC_002695
23627234	apple juice / MOPS stationary Rep 1,4	GSE11052	GSM279175,GSM279178	2	3		2		0	0	0	0	mbplot				GPL5047		NC_002695
23632471	apple juice / MOPS stationary Rep 2,3,5	GSE11052	GSM279176,GSM279177,GSM279180	2	2		3		0	0	0	0	mbplot				GPL5047		NC_002695
23637708	relA spoT isoleucine starved / WT replete isoleucine	GSE11087	GSM280105,GSM280106/GSM280103,GSM280104	1			1		0	0	0	0	mbplot				GPL6702	NC_000913	NC_000913
23645752	relA isoleucine starved / WT replete isoleucine	GSE11087	GSM280107,GSM280108/GSM280103,GSM280104	1			1		0	0	0	0	mbplot				GPL6702	NC_000913	NC_000913
23653796	WT isoleucine starved / WT replete isoleucine	GSE11087	GSM280109,GSM280110/GSM280103,GSM280104	1			1		0	0	0	0	mbplot				GPL6702	NC_000913	NC_000913
23661840	crp isoleucine starved / WT replete isoleucine	GSE11087	GSM585497,GSM585498/GSM280103,GSM280104	1			1		0	0	0	0	mbplot				GPL6702	NC_000913	NC_000913
23669884	dksA isoleucine starved / WT replete isoleucine	GSE11087	GSM585499,GSM585500/GSM280103,GSM280104	1			1		0	0	0	0	mbplot				GPL6702	NC_000913	NC_000913
23677928	lrp isoleucine starved / WT replete isoleucine	GSE11087	GSM585502/GSM280103,GSM280104	1			1		0	0	0	0	mbplot				GPL6702	NC_000913	NC_000913
23685972	rpoS isoleucine starved / WT replete isoleucine	GSE11087	GSM585503,GSM585504/GSM280103,GSM280104	1			1		0	0	0	0	mbplot				GPL6702	NC_000913	NC_000913
23694016	rpoS isoleucine starved / WT isoleucine starved	GSE11087	GSM585503,GSM585504/GSM280109,GSM280110	1			1		0	0	0	0	mbplot				GPL6702	NC_000913	NC_000913
23702060	WT isoleucine starved tp 1 / WT replete isoleucine	GSE11087	GSM585507/GSM585505,GSM585506	1			1		0	0	0	0	mbplot				GPL3154	NC_000913	NC_000913
23709920	WT isoleucine starved tp 2 / WT replete isoleucine	GSE11087	GSM585508/GSM585505,GSM585506	1			1		0	0	0	0	mbplot				GPL3154	NC_000913	NC_000913
23717780	WT isoleucine starved tp 3 / WT replete isoleucine	GSE11087	GSM585509/GSM585505,GSM585506	1			1		0	0	0	0	mbplot				GPL3154	NC_000913	NC_000913
23725640	WT isoleucine starved tp 4 / WT replete isoleucine	GSE11087	GSM585510/GSM585505,GSM585506	1			1		0	0	0	0	mbplot				GPL3154	NC_000913	NC_000913
23733500	WT isoleucine starved tp 5/ WT replete isoleucine	GSE11087	GSM585511/GSM585505,GSM585506	1			1		0	0	0	0	mbplot				GPL3154	NC_000913	NC_000913
23741360	WT isoleucine starved tp 6 / WT replete isoleucine	GSE11087	GSM585512/GSM585505,GSM585506	1			1		0	0	0	0	mbplot				GPL3154	NC_000913	NC_000913
23749220	WT isoleucine starved tp 7 / WT replete isoleucine	GSE11087	GSM585513/GSM585505,GSM585506	1			1		0	0	0	0	mbplot				GPL3154	NC_000913	NC_000913
23757080	WT isoleucine starved tp 8 / WT replete isoleucine	GSE11087	GSM585514/GSM585505,GSM585506	1			1		0	0	0	0	mbplot				GPL3154	NC_000913	NC_000913
23764940	WT isoleucine starved tp 9 / WT replete isoleucine	GSE11087	GSM585515/GSM585505,GSM585506	1			1		0	0	0	0	mbplot				GPL3154	NC_000913	NC_000913
23772800	WT isoleucine starved tp 10 / WT replete isoleucine	GSE11087	GSM585516/GSM585505,GSM585506	1			1		0	0	0	0	mbplot				GPL3154	NC_000913	NC_000913
23780660	WT isoleucine starved tp 11 / WT replete isoleucine	GSE11087	GSM585517/GSM585505,GSM585506	1			1		0	0	0	0	mbplot				GPL3154	NC_000913	NC_000913
23788520	WT isoleucine starved tp 12 / WT replete isoleucine	GSE11087	GSM585518/GSM585505,GSM585506	1			1		0	0	0	0	mbplot				GPL3154	NC_000913	NC_000913
8265363	MTB- CO treated 20 ppm / MTB -Untreated	GSE11095	GSM276233,GSM276236	2			1		0	0	0	0	mbplot				GPL6610		
8274112	MTB- CO treated 200 ppm / MTB -Untreated	GSE11095	GSM276234,GSM276237	2			1		0	0	0	0	mbplot				GPL6610		
8278020	MTB- CO treated 2000 ppm / MTB -Untreated	GSE11095	GSM276235,GSM276238	2			1		0	0	0	0	mbplot				GPL6610		
8703052	MTB- CO treated 20000 ppm / MTB -Untreated	GSE11096	GSM280233,GSM280239,GSM280243,GSM280257	2			1		0	0	0	0	mbplot				GPL6719		
8711504	MTB-deltadosR compdosR CO treated 20000 ppm / MTB -deltadosR compdosRUntreated	GSE11096	GSM280235	2			1		0	0	0	0	mbplot				GPL6719		
8707278	MTB- NO treated 100 uM / MTB -Untreated	GSE11096	GSM280236,GSM280241,GSM280250,GSM280262	2			1		0	0	0	0	mbplot				GPL6719		
8719956	MTB- deltadosR nitric oxide treated 100 uM / MTB -deltadosR Untreated	GSE11096	GSM280237,GSM280242	2			1		0	0	0	0	mbplot				GPL6719		
8715730	MTB- deltadosR compdosR nitric oxide treated 100 uM / MTB -deltadosR compdosR Untreated	GSE11096	GSM280238	2			1		0	0	0	0	mbplot				GPL6719		
8732634	MTB-deltadosS CO treated 20000 ppm / MTB -deltadosS Untreated	GSE11096	GSM280244,GSM280258	2			1		0	0	0	0	mbplot				GPL6719		
8724182	MTB-deltadosS compdosS CO treated 20000 ppm / MTB -deltadosS compdosS Untreated	GSE11096	GSM280245	2			1		0	0	0	0	mbplot				GPL6719		
8762216	MTB-deltadosT CO treated 20000 ppm / MTB -deltadosT Untreated	GSE11096	GSM280246,GSM280259	2			1		0	0	0	0	mbplot				GPL6719		
8757990	MTB-deltadosT compdosT CO treated 20000 ppm / MTB -deltadosT compdosT Untreated	GSE11096	GSM280247	2			1		0	0	0	0	mbplot				GPL6719		
8749538	MTB-deltadosST CO treated 20000 ppm / MTB -deltadosST Untreated	GSE11096	GSM280248,GSM280260	2			1		0	0	0	0	mbplot				GPL6719		
8741086	MTB- deltadosST compdosT CO treated 20000 ppm / MTB -deltadosST compdosT Untreated	GSE11096	GSM280249,GSM280261	2			1		0	0	0	0	mbplot				GPL6719		
8736860	MTB-deltadosS  nitric oxide treated 100 uM / MTB -deltadosS Untreated	GSE11096	GSM280251,GSM280263	2			1		0	0	0	0	mbplot				GPL6719		
8728408	MTB- deltadosS compdosS nitric oxide treated 100 uM / MTB -deltadosS compdosS Untreated	GSE11096	GSM280252	2			1		0	0	0	0	mbplot				GPL6719		
8766442	MTB-deltadosT nitric oxide treated 100 uM / MTB -deltadosT Untreated	GSE11096	GSM280253,GSM280264	2			1		0	0	0	0	mbplot				GPL6719		
8753764	MTB-deltadosST nitric oxide treated 100 uM / MTB -deltadosST Untreated	GSE11096	GSM280255,GSM280265	2			1		0	0	0	0	mbplot				GPL6719		
8745312	MTB-deltadosST compdosT nitric oxide treated 100 uM / MTB -deltadosST compdosT Untreated	GSE11096	GSM280256,GSM280266	2			1		0	0	0	0	mbplot				GPL6719		
23796380	WT stationary phase / WT exponential phase	GSE11183	GSM286829,GSM286830/GSM286826,GSM286827	1			1		1	0	0	0	mbplot				GPL199	NC_000913	NC_000913
23800983	hupA / WT LB exponential	GSE11183	GSM286831/GSM286826,GSM286827	1			1		1	1	0	0	mbplot				GPL199	NC_000913	NC_000913
23805586	hupA / WT LB transition	GSE11183	GSM286832/GSM286828	1			1		1	1	0	0	maplot				GPL199	NC_000913	NC_000913
23810189	hupA / WT LB stationary	GSE11183	GSM286833/GSM286829,GSM286830	1			1		1	1	0	0	mbplot				GPL199	NC_000913	NC_000913
23814792	hupB / WT LB exponential	GSE11183	GSM286834/GSM286826,GSM286827	1			1		1	1	0	0	mbplot				GPL199	NC_000913	NC_000913
23819395	hupB / WT LB transition	GSE11183	GSM286835/GSM286828	1			1		1	1	0	0	mbplot				GPL199	NC_000913	NC_000913
23823998	hupB / WT LB stationary	GSE11183	GSM286836/GSM286829,GSM286830	1			1		1	1	0	0	mbplot				GPL199	NC_000913	NC_000913
23828601	hupAB / WT LB exponential	GSE11183	GSM286837,GSM286838/GSM286826,GSM286827	1			1		1	1	0	0	maplot				GPL199	NC_000913	NC_000913
23833204	hupAB / WT LB transition	GSE11183	GSM286839/GSM286828	1			1		1	1	0	0	mbplot				GPL199	NC_000913	NC_000913
23837807	hupAB / WT LB stationary	GSE11183	GSM286840,GSM286841/GSM286829,GSM286830	1			1		1	1	0	0	mbplot				GPL199	NC_000913	NC_000913
23842410	rpoS / WT LB exponential	GSE11183	GSM286842/GSM286826,GSM286827	1			1		1	1	0	0	mbplot				GPL199	NC_000913	NC_000913
23847013	rpoS / WT LB stationary	GSE11183	GSM286843/GSM286829,GSM286830	1			1		1	1	0	0	mbplot				GPL199	NC_000913	NC_000913
23851616	hupAB / WT M9 glucose exponential	GSE11183	GSM286848/GSM286844	1			1		1	1	0	0	mbplot				GPL199	NC_000913	NC_000913
23856219	hupAB / WT M9 glycerol exponential	GSE11183	GSM286849/GSM286845	1			1		1	1	0	0	mbplot				GPL199	NC_000913	NC_000913
23860822	hupAB / WT M9 glucose stationary	GSE11183	GSM286850/GSM286846	1			1		1	1	0	0	mbplot				GPL199	NC_000913	NC_000913
23865425	hupAB / WT M9 glycerol stationary	GSE11183	GSM286851/GSM286847	1			1		1	1	0	0	mbplot				GPL199	NC_000913	NC_000913
29854816	log phase  / stationary phase	GSE11192	GSM281917,GSM281918,GSM281919,GSM281920/GSM281921,GSM281922,GSM281923,GSM281924	1			1		1	1	0	0	mbplot				GPL6748		
23870028	MG1655 mucus (10 mg/ml) / MG1655 glucose minimal medium	GSE11254	GSM284101,GSM284102/GSM284099,GSM284100	1			1		0	1	0	0	mbplot				GPL6702	NC_000913	NC_000913
23883028	EDL933, mucus (10 mg/ml), test / EDL933, glucose minimal medium, control	GSE11254	GSM284105,GSM284106/GSM284103,GSM284104	1			1		0	0	0	0	mbplot				GPL6702	NC_002655	NC_002655
23892603	ECOR26, mucus (10 mg/ml), test / ECOR26, glucose minimal medium, control	GSE11254	GSM284109,GSM284110/GSM284107,GSM284108	1			1		0	0	0	0	mbplot				GPL6702	NC_004431	NC_004431
23903976	NISSLE, mucus (10 mg/ml), test / NISSLE, glucose minimal medium, control	GSE11254	GSM284113,GSM284114/GSM284111,GSM284112	1			1		0	0	0	0	mbplot				GPL6702	NC_004431	NC_004431
18302867	MGAS5005 / M1 MGAS5005 delta ccpA (5005.718)	GSE11328	GSM286098,GSM286109,GSM286113	2			7		0	0	0	0	mbplot				GPL1482		
30433056	Listeria monocytogenes 10403S PrfA*/ Listeria monocytogenes 10403S delta prfA	GSE11347	GSM286188,GSM286189,GSM286190,GSM286191	2			1		0	0	0	0	mbplot				GPL5029		
30444442	Listeria monocytogenes 10403S PrfA* / Listeria monocytogenes 10403S PrfA*_delta sigB	GSE11347	GSM286192,GSM286193,GSM286194,GSM286195	2			1		0	0	0	0	mbplot				GPL5029		
30438749	Listeria monocytogenes 10403S PrfA* / Listeria monocytogenes 10403S delta prfA_delta sigB	GSE11347	GSM286196,GSM286197,GSM286198,GSM286199	2			1		0	0	0	0	mbplot				GPL5029		
30455828	Listeria monocytogenes 10403S delta prfA/ Listeria monocytogenes 10403S PrfA*_delta sigB	GSE11347	GSM286200,GSM286201,GSM286202,GSM286203	2			1		0	0	0	0	mbplot				GPL5029		
30427363	Listeria monocytogenes 10403S delta prfA /Listeria monocytogenes 10403S delta prfA_delta sigB	GSE11347	GSM286612,GSM286614,GSM286615,GSM286616	2			1		0	0	0	0	mbplot				GPL5029		
30450135	Listeria monocytogenes 10403S PrfA*_delta sigB / Listeria monocytogenes 10403S delta prfA_delta sigB	GSE11347	GSM286617,GSM286618,GSM286642,GSM286643	2			1		0	0	0	0	mbplot				GPL5029		
17995448	M1 MGAS5005 / M1 MGAS5005.trxR	GSE11388	GSM287583,GSM287585,GSM287590,GSM287592,GSM287594,GSM287596	2			7		0	0	0	0	mbplot				GPL1482		
26931811	wild-type grown in GM17 with 0.25 mM ZnSO4 OD 0.3 / wild-type D39 GM17 OD 0.3	GSE11438	GSM288461,GSM288489,GSM288493,GSM288495	2			5		0	0	0	0	mbplot				GPL5023		
12694388	medium with glycerol / medium with cellobiose	GSE11459	GSM288905,GSM288908	2			8		0	0	0	0	mbplot				GPL6847		
23915349	heat shock / control Rep 1,3,6,8,10,12	GSE11463	GSM288813,GSM288928,GSM288931,GSM288934,GSM288937,GSM288939	2	2		1		0	0	0	0	mbplot				GPL6272		NC_002655
23920757	heat shock / control Rep 2,4,5,7,9,11	GSE11463	GSM288814,GSM288927,GSM288930,GSM288933,GSM288935,GSM288938	2	1		2		0	0	0	0	mbplot				GPL6272		NC_002655
7219123	14028s hfq RNA LBlog  /14028s genomic DNA	GSE11486	GSM289174,GSM289175,GSM289176	2	3	4	15	16	1	1	0	0	mbplot				GPL6868		
7224349	14028s hfq RNA LBstat  / 14028s gDNA	GSE11486	GSM289177,GSM289178,GSM289179	2	3	4	15	16	1	1	0	0	mbplot				GPL6868		
7229575	14028s hfq RNA MgMDil / 14028s gDNA	GSE11486	GSM289180,GSM289181,GSM289182	2	3	4	15	16	1	1	0	0	mbplot				GPL6868		
7240027	14028s hfq RNA MgMShock / 14028s gDNA	GSE11486	GSM289183,GSM289184,GSM289189	2	3	4	15	16	1	1	0	0	mbplot				GPL6868		
7268801	14028s smpB RNA LBlog / 14028s gDNA	GSE11486	GSM289185,GSM289186,GSM289187	2	3	4	15	16	1	1	0	0	mbplot				GPL6868		
7274027	14028s smpB RNA LBstat  / 14028s gDNA	GSE11486	GSM289188,GSM289190,GSM289191	2	3	4	15	16	1	1	0	0	mbplot				GPL6868		
7279253	14028s smpB RNA MgMDil  / 14028s gDNA	GSE11486	GSM289192,GSM289193,GSM289194	2	3	4	15	16	1	1	0	0	mbplot				GPL6868		
7284479	14028s smpB RNA MgMShock / 14028s gDNA	GSE11486	GSM289195,GSM289196,GSM289197	2	3	4	15	16	1	1	0	0	mbplot				GPL6868		
7292366	14028s wt RNA LBlog  / 14028s gDNA	GSE11486	GSM289198,GSM289199,GSM289200	2	3	4	15	16	1	1	0	0	mbplot				GPL6868		
7302914	14028s wt RNA LBstat  / 14028s gDNA	GSE11486	GSM289201,GSM289202,GSM289203	2	3	4	15	16	1	1	0	0	mbplot				GPL6868		
7313462	14028s wt RNA MgMDil  / 14028s gDNA	GSE11486	GSM289204,GSM289205,GSM289206	2	3	4	15	16	1	1	0	0	mbplot				GPL6868		
7318688	14028s wt RNA MgMShock  / 14028s gDNA	GSE11486	GSM289207,GSM289208,GSM289209	2	3	4	15	16	1	1	0	0	mbplot				GPL6868		
23926165	WT 100 mM Cd(II) for 10 min / WT	GSE11562	GSM290826	2	4		2		1	0	0	0	mbplot				GPL534		NC_000913
23930668	gshA 100 mM Cd(II) for 10 min / WT	GSE11562	GSM291135	2	4		2		1	0	0	0	mbplot				GPL534		NC_000913
23935171	gshB 100 mM Cd(II) for 10 min / WT	GSE11562	GSM291137	2	4		2		1	0	0	0	mbplot				GPL534		NC_000913
26119585	S. agalactiae, 30 degrees at mid log phase  / S. agalactiae, 40 degrees at mid log phase	GSE11666	GSM296249,GSM296258,GSM296260/GSM296373,GSM296375,GSM296378	1			1		1	1	0	0	mbplot				GPL6923		
26113609	S. agalactiae, 30 degrees at late log phase / S. agalactiae, 30 degrees at mid log phase	GSE11666	GSM296297,GSM296368,GSM296369/GSM296249,GSM296258,GSM296260	1			1		1	1	0	0	mbplot				GPL6923		
26115601	S. agalactiae, 30 degrees at late log phase  / S. agalactiae, 30 degrees at stationary phase	GSE11666	GSM296297,GSM296368,GSM296369/GSM296370,GSM296371,GSM296372	1			1		1	1	0	0	mbplot				GPL6923		
26117593	S. agalactiae, 30 degrees at late log phase / S. agalactiae, 40 degrees at late log phase	GSE11666	GSM296297,GSM296368,GSM296369/GSM296380,GSM296383,GSM296384	1			1		1	1	0	0	mbplot				GPL6923		
26121577	S. agalactiae, 30 degrees at stationary phase  / S. agalactiae, 40 degrees at stationary phase	GSE11666	GSM296370,GSM296371,GSM296372/GSM296386,GSM296388,GSM296389	1			1		1	1	0	0	mbplot				GPL6923		
26129545	S. agalactiae, 40 degrees at mid log phase / S. agalactiae, 40 degrees at stationary phase	GSE11666	GSM296373,GSM296375,GSM296378/GSM296386,GSM296388,GSM296389	1			1		1	1	0	0	mbplot				GPL6923		
26123569	S. agalactiae, 40 degrees at late log phase  / S. agalactiae, 40 degrees at mid log phase	GSE11666	GSM296380,GSM296383,GSM296384/GSM296373,GSM296375,GSM296378	1			1		1	1	0	0	mbplot				GPL6923		
26125561	S. agalactiae, 40 degrees at late log phase  / S. agalactiae, 40 degrees at stationary phase	GSE11666	GSM296380,GSM296383,GSM296384/GSM296386,GSM296388,GSM296389	1			1		1	1	0	0	mbplot				GPL6923		
26603371	Growth in blood after 30min in 37 degree / Growth in blood at time 0	GSE11705	GSM297236,GSM297245,GSM297249,GSM297254,GSM297258,GSM297268,GSM297306/GSM297233,GSM297244,GSM297253,GSM297257,GSM297267,GSM297304	1			1		1	1	0	0	maplot				GPL6923		
26601379	Growth in blood after 30min in 37 degree / Growth in blood after 90min in 37 degree	GSE11705	GSM297236,GSM297245,GSM297249,GSM297254,GSM297258,GSM297268,GSM297306/GSM297237,GSM297246,GSM297250,GSM297255,GSM297259,GSM297272,GSM297308	1			1		1	1	0	0	maplot				GPL6923		
26599387	Growth in blood after 30min in 37 degree / Growth in blood after 30min in 40 degree	GSE11705	GSM297236,GSM297245,GSM297249,GSM297254,GSM297258,GSM297268,GSM297306/GSM297239,GSM297247,GSM297251,GSM297256,GSM297266,GSM297299,GSM297309	1			1		1	1	0	0	maplot				GPL6923		
26609347	Growth in blood after 90min in 37 degree / Growth in blood at time 0	GSE11705	GSM297237,GSM297246,GSM297250,GSM297255,GSM297259,GSM297272,GSM297308/GSM297233,GSM297244,GSM297253,GSM297257,GSM297267,GSM297304	1			1		1	1	0	0	maplot				GPL6923		
26611339	Growth in blood after 90min in 37 degree / Growth in blood after 90min in 40 degree	GSE11705	GSM297237,GSM297246,GSM297250,GSM297255,GSM297259,GSM297272,GSM297308/GSM297242,GSM297248,GSM297252,GSM297261,GSM297265,GSM297301,GSM297310	1			1		1	1	0	0	maplot				GPL6923		
26607355	Growth in blood after 30min in 37 degree / Growth in blood at time 0	GSE11705	GSM297239,GSM297247,GSM297251,GSM297256,GSM297266,GSM297299,GSM297309/GSM297233,GSM297244,GSM297253,GSM297257,GSM297267,GSM297304	1			1		1	1	0	0	maplot				GPL6923		
26605363	Growth in blood after 30min in 40 degree / Growth in blood after 90min in 40 degree	GSE11705	GSM297239,GSM297247,GSM297251,GSM297256,GSM297266,GSM297299,GSM297309/GSM297242,GSM297248,GSM297252,GSM297261,GSM297265,GSM297301,GSM297310	1			1		1	1	0	0	maplot				GPL6923		
26613331	Growth in blood after 90min in 40 degree / Growth in blood at time 0	GSE11705	GSM297242,GSM297248,GSM297252,GSM297261,GSM297265,GSM297301,GSM297310/GSM297233,GSM297244,GSM297253,GSM297257,GSM297267,GSM297304	1			1		1	1	0	0	maplot				GPL6923		
26623107	S. mutans TW14(BrpA mutant) grown in BHI / S. mutans UA159 grown in BHI	GSE11773	GSM290393,GSM290395,GSM290515,GSM290517,GSM290622,GSM290624,GSM290642	2			1		0	0	0	0	mbplot				GPL4340		
26625053	S. mutans UA159 grown in BHI / S. mutans UA159 grown in BHI	GSE11773	GSM298016,GSM298017,GSM298018,GSM298037,GSM298038,GSM298040,GSM298042	2			1		0	0	0	0	mbplot				GPL4340		
23939674	sdiA overexpression / empty vector control	GSE11779	GSM298124/GSM341044	1			1		1	1	0	0	maplot				GPL3154	NC_000913	NC_000913
23951910	sdiA1E11 overexpression / empty vector control	GSE11779	GSM298125/GSM341044	1			1		1	1	0	0	mbplot				GPL3154	NC_000913	NC_000913
23964146	zinc limited chemostat / control	GSE11894	GSM300519,GSM300521,GSM300523	2	10		2		1	1	0	0	mbplot				GPL534		NC_000913
23968649	zinc limited chemostat / control (dye swap)	GSE11894	GSM300520,GSM300522,GSM300524	2	2		10		1	1	0	0	mbplot				GPL534		NC_000913
23973152	cadA / WT on DMEM	GSE11927	GSM301404/GSM301405	1			1		1	1	0	0	maplot				GPL3154	NC_002655	NC_002655
23982375	mazEF relBEF chpB yefM-yoeB dinJ-yafQ  / MG1655 WT biofilm cells on LB	GSE11932	GSM301486/GSM301485	1			1		1	1	0	0	maplot				GPL3154	NC_000913	NC_000913
23994611	15 min oxygen downshift / control	GSE12006	GSM303527/GSM303526	1			1		1	1	0	0	maplot				GPL3154	NC_000913	NC_000913
24006847	45 min oxygen downshift / control	GSE12006	GSM303528/GSM303526	1			1		1	1	0	0	maplot				GPL3154	NC_000913	NC_000913
24019083	75 min oxygen downshift / control	GSE12006	GSM303529/GSM303526	1			1		1	1	0	0	mbplot				GPL3154	NC_000913	NC_000913
26294397	Staphylococcus aureus 137/93A / Staphylococcus aureus SG511(sensitive strain)	GSE12016	GSM303658,GSM303659	2			1		0	0	0	0	mbplot				GPL5421		
27294832	RNA extracted from Saccharopolyspora erythraea WT after 24h of growth / RNA extracted from Saccharopolyspora erythraea WT after 48h of growth	GSE12017	GSM303660,GSM303661/GSM303662,GSM303663	1			1		1	1	0	0	maplot				GPL6051		
27262357	RNA extracted from Saccharopolyspora erythraea rif1 mutant after 24h of growth / RNA extracted from Saccharopolyspora erythraea WT after 24h of growth	GSE12017	GSM303664,GSM303665/GSM303660,GSM303661	1			1		1	1	0	0	maplot				GPL6051		
27255862	RNA extracted from Saccharopolyspora erythraea rif1 mutant after 24h of growth / RNA extracted from Saccharopolyspora erythraea rif1 mutant after 48h of growth	GSE12017	GSM303664,GSM303665/GSM303666,GSM303667	1			1		1	1	0	0	maplot				GPL6051		
27275347	RNA extracted from Saccharopolyspora erythraea rif1 mutant after 48h of growth / RNA extracted from Saccharopolyspora erythraea WT after 48h of growth	GSE12017	GSM303666,GSM303667/GSM303662,GSM303663	1			1		1	1	0	0	maplot				GPL6051		
27268852	RNA extracted from Saccharopolyspora erythraea rif1 mutant after 48h of growth / RNA extracted from Saccharopolyspora erythraea rif6 mutant after 48h of growth	GSE12017	GSM303666,GSM303667/GSM303668,GSM303669	1			1		1	1	0	0	maplot				GPL6051		
27288337	RNA extracted from Saccharopolyspora erythraea rif6 mutant after 48h of growth / RNA extracted from Saccharopolyspora erythraea WT after 48h of growth	GSE12017	GSM303668,GSM303669/GSM303662,GSM303663	1			1		1	1	0	0	maplot				GPL6051		
27281842	RNA extracted from Saccharopolyspora erythraea rif6 mutant after 48h of growth / RNA extracted from Saccharopolyspora erythraea rif6 mutant after 72h of growth	GSE12017	GSM303668,GSM303669/GSM303670,GSM303671	1			1		1	1	0	0	maplot				GPL6051		
26204314	Helicobacter hepaticus fliA mutant / Helicobacter hepaticus wild type bacteria	GSE12123	GSM305604,GSM305605,GSM305606,GSM305607,GSM305608,GSM305609	2			4		1	0	0	0	mbplot				GPL7051		
30319124	LB culture / BHI culture	GSE12143	GSM305909,GSM305910,GSM305911	2			1		0	0	0	0	mbplot				GPL6554		
30319239	MM culture / BHI culture	GSE12143	GSM305912,GSM305913,GSM305914	2			1		0	0	0	0	mbplot				GPL6554		
30319354	LB culture / MM culture	GSE12143	GSM305915,GSM305916,GSM305917	2			1		0	0	0	0	mbplot				GPL6554		
26157639	mutant strain EGD?prfApPrfA / wild-type EGD strain	GSE12145	GSM305921,GSM305922	2			1		0	0	0	0	mbplot				GPL6554		
26157984	mutant strain EGD?prfApPrfA* / wild-type EGD strain	GSE12145	GSM305923,GSM305924	2			1		0	0	0	0	mbplot				GPL6554		
26157524	mutant strain EGD?prfApPrfA / wild-type EGD strain	GSE12145	GSM305925,GSM305926	2			1		0	0	0	0	mbplot				GPL6554		
26157869	mutant strain EGD?prfApPrfA* / wild-type EGD strain	GSE12145	GSM305927,GSM305928	2			1		0	0	0	0	mbplot				GPL6554		
26157754	mutant strain EGD?prfApPrfA / wild-type EGD strain	GSE12145	GSM305929,GSM305930	2			1		0	0	0	0	mbplot				GPL6554		
26158099	mutant strain EGD?prfApPrfA* / wild-type EGD strain	GSE12145	GSM305931,GSM305932	2			1		0	0	0	0	mbplot				GPL6554		
30319469	EGD / EGD-e	GSE12146	GSM305934,GSM305935,GSM305936	2			1		0	0	0	0	mbplot				GPL7062		
24031319	sucrose / control on min glucose	GSE12190	GSM306858,GSM306859/GSM306856,GSM306857	1			1		1	1	0	0	mbplot				GPL3154	NC_000913	NC_000913
24043555	NaCl / control on min glucose	GSE12190	GSM306860,GSM306861/GSM306856,GSM306857	1			1		1	1	0	0	mbplot				GPL3154	NC_000913	NC_000913
26566889	Growth in blood after 30min in 37 degree / Growth in blood at time 0	GSE12201	GSM307024/GSM307022	1			1		1	1	0	0	maplot				GPL6923		
26576849	Growth in blood  after 30min at 37degree / Growth in blood after 90min at 37degree	GSE12201	GSM307024/GSM307025	1			1		1	1	0	0	maplot				GPL6923		
26574857	Growth in blood after 30min at 37degree / Growth in blood  after 30min at 40 degree	GSE12201	GSM307024/GSM307026	1			1		1	1	0	0	maplot				GPL6923		
26570873	Growth in blood after 90min at 37 degree / Growth in blood at time 0	GSE12201	GSM307025/GSM307022	1			1		1	1	0	0	maplot				GPL6923		
26580833	Growth in blood  after 90min at 37degree / Growth in blood after 90min at 40 degree	GSE12201	GSM307025/GSM307027	1			1		1	1	0	0	maplot				GPL6923		
26568881	Growth in blood after 30min at 40degree / Growth in blood at time 0	GSE12201	GSM307026/GSM307022	1			1		1	1	0	0	maplot				GPL6923		
26578841	Growth in blood  after 30min at 40 degree / Growth in blood after 90min at 40 degree	GSE12201	GSM307026/GSM307027	1			1		1	1	0	0	maplot				GPL6923		
26572865	Growth in blood after 90min at 40degree / Growth in blood at time 0	GSE12201	GSM307027/GSM307022	1			1		1	1	0	0	maplot				GPL6923		
26224192	S. aureus, Fusidic Acid Treated / S. aureus Control	GSE12210	GSM306855,GSM307133	2			1		0	0	0	0	mbplot				GPL7072		
26227379	S. aureus Control / S. aureus, Fusidic Acid Treated	GSE12210	GSM307131,GSM307132	2			1		0	0	0	0	mbplot				GPL7072		
26592785	S. agalactiae, 37 degrees at mid log phase  / S. agalactiae, 37 degrees at stationary phase	GSE12238	GSM307587,GSM307588,GSM307589/GSM307597,GSM307598,GSM307599	1			1		1	1	0	0	maplot				GPL6923		
26588801	S. agalactiae, 37 degrees at late log phase  / S. agalactiae, 37 degrees at mid log phase	GSE12238	GSM307590,GSM307592,GSM307593/GSM307587,GSM307588,GSM307589	1			1		1	1	0	0	maplot				GPL6923		
26590793	S. agalactiae, 37 degrees at late log phase  / S. agalactiae, 37 degrees at stationary phase	GSE12238	GSM307590,GSM307592,GSM307593/GSM307597,GSM307598,GSM307599	1			1		1	1	0	0	maplot				GPL6923		
26584817	S. agalactiae, 37 degrees at early stationary phase / S. agalactiae, 37 degrees at mid log phase	GSE12238	GSM307594,GSM307595,GSM307596/GSM307587,GSM307588,GSM307589	1			1		1	1	0	0	maplot				GPL6923		
26582825	S. agalactiae, 37 degrees at early stationary phase  / S. agalactiae, 37 degrees at late log phase	GSE12238	GSM307594,GSM307595,GSM307596/GSM307590,GSM307592,GSM307593	1			1		1	1	0	0	maplot				GPL6923		
26586809	S. agalactiae, 37 degrees at early stationary phase  / S. agalactiae, 37 degrees at stationary phase	GSE12238	GSM307594,GSM307595,GSM307596/GSM307597,GSM307598,GSM307599	1			1		1	1	0	0	maplot				GPL6923		
7193704	Mycobacterium tuberculosis Bif1 mutant / Mycobacterium tuberculosis H37Rv	GSE12302	GSM309315,GSM309351	2	4	5	2	3	1	1	0	0	mbplot				GPL4057		
24055791	5 min 1 ug/ml Cd pH 7 / 5 min 1 ug/ml Cd pH 5	GSE12373	GSM310447	2	2		3		1	1	0	0	maplot				GPL6540		NC_000913
24065318	5 min no Cd pH 7 / 5 min no Cd pH  5	GSE12373	GSM310606	2	2		3		1	1	0	0	maplot				GPL6540		NC_000913
24074845	15 min 1 ug/ml Cd pH 7 / 5 min 1 ug/ml Cd pH 5	GSE12373	GSM310609	2	2		3		1	1	0	0	mbplot				GPL6540		NC_000913
24084372	15 min no Cd pH 7 / 5 min no Cd pH 5	GSE12373	GSM310610	2	2		3		1	1	0	0	mbplot				GPL6540		NC_000913
24093899	5 min 1 ug/ml Cd pH 7 / 5 min 1 ug/ml Cd pH 5 (dye swap)	GSE12373	GSM310631	2	3		2		1	1	0	0	mbplot				GPL6540		NC_000913
24103426	5 min no Cd pH 7 / 5 min no Cd pH 5 (dye swap)	GSE12373	GSM310632	2	3		2		1	1	0	0	mbplot				GPL6540		NC_000913
24112953	15 min 1 ug/ml Cd pH 7 / 5 min 1 ug/ml Cd pH 5 (dye swap)	GSE12373	GSM310634	2	3		2		1	1	0	0	mbplot				GPL6540		NC_000913
24122480	15 min no Cd pH 7 / 5 min no Cd pH 5 (dye swap)	GSE12373	GSM310635	2	3		2		1	1	0	0	mbplot				GPL6540		NC_000913
8843450	Wt M.tb / Reference Pool	GSE12382	GSM297129,GSM297132,GSM297135	2			1		0	0	0	0	mbplot				GPL6719		
8829651	espR mutant M.tb / Reference Pool	GSE12382	GSM297130,GSM297133,GSM297136	2			1		0	0	0	0	mbplot				GPL6719		
8782392	Complemented espR mutant M.tb / Reference Pool	GSE12382	GSM297131,GSM297134,GSM297137	2			1		0	0	0	0	mbplot				GPL6719		
8808521	espR mutant M.tb complemented with N-terminal Flag-espR gene / Reference Pool	GSE12382	GSM310820,GSM310824	2			1		0	0	0	0	mbplot				GPL6719		
8847676	Reference Pool / WT M.tb Erdman strain	GSE12382	GSM310821,GSM310832,GSM310835	2			1		0	0	0	0	mbplot				GPL6719		
8790844	espR mutant M.tb / Reference Pool	GSE12382	GSM310822	2			1		0	0	0	0	mbplot				GPL6719		
8821199	espR mutant M.tb complemented with wild type espR gene / Reference Pool	GSE12382	GSM310823	2			1		0	0	0	0	mbplot				GPL6719		
8816973	espR mutant complemented with R8A espR gene (R- R8A) / Reference Pool	GSE12382	GSM310828	2			1		0	0	0	0	mbplot				GPL6719		
8812747	espR mutant complemented with R21A espR gene (R- R21A) / Reference Pool	GSE12382	GSM310829	2			1		0	0	0	0	mbplot				GPL6719		
8795070	espR mutant complemented with espR gene containing 10-aa C-terminal truncation (R- delta10) / Reference Pool	GSE12382	GSM310830	2			1		0	0	0	0	mbplot				GPL6719		
8799296	espR mutant complemented with espR gene containing 5-aa C-terminal truncation (R- delta5) / Reference Pool	GSE12382	GSM310831	2			1		0	0	0	0	mbplot				GPL6719		
8825425	Reference Pool / espR transposon mutant M.tb	GSE12382	GSM310833,GSM310836	2			1		0	0	0	0	mbplot				GPL6719		
8786618	Reference Pool / espR knockout M.tb	GSE12382	GSM310834,GSM310837	2			1		0	0	0	0	mbplot				GPL6719		
26101492	biofilm of 400 microns depth / biofilm of 100 microns depth	GSE12496	GSM314034,GSM314035,GSM314036	2			1		0	0	0	0	mbplot				GPL4745		
26097600	200 microns depth biofilm / 100 microns depth biofilm	GSE12496	GSM314037,GSM314041	2			1		0	0	0	0	mbplot				GPL4745		
26959798	Mutant bacteria of log-phase cultures grown at 30C / Mutant bacteria of stationary-phase cultures grown at 30C	GSE12535	GSM314301/GSM314302	1			1		1	1	0	0	mbplot				GPL7185		
26955736	Mutant bacteria of log-phase cultures grown at 30C / Wild-type bacteria of log-phase cultures grown at 30C	GSE12535	GSM314301/GSM314304	1			1		1	1	0	0	mbplot				GPL7185		
26963860	Wild-type bacteria of log-phase cultures grown at 30C / Wild-type bacteria of stationary-phase cultures grown at 30C	GSE12535	GSM314304/GSM314305	1			1		1	1	0	0	mbplot				GPL7185		
24132007	Generation 50 LB + 10% cranberry juice  / LB	GSE12554	GSM315527,GSM315528,GSM315529/GSM315524,GSM315525,GSM315526	1			2		1	1	0	0	mbplot				GPL3154	NC_000913	NC_000913
24144243	Generation 160 LB + 10% cranberry juice / LB	GSE12554	GSM315530,GSM315531,GSM315532/GSM315524,GSM315525,GSM315526	1			2		1	1	0	0	mbplot				GPL3154	NC_000913	NC_000913
24156479	Generation 210 LB + 10% cranberry juice / LB	GSE12554	GSM315533,GSM315534,GSM315535/GSM315524,GSM315525,GSM315526	1			2		1	1	0	0	mbplot				GPL3154	NC_000913	NC_000913
24168715	Generation 230 LB + 10% cranberry juice / LB	GSE12554	GSM315536,GSM315537,GSM315538/GSM315524,GSM315525,GSM315526	1			2		1	1	0	0	mbplot				GPL3154	NC_000913	NC_000913
26216570	Staphylococcus aureus Newman isogenic mutant ccpA-deficient / Staphylococcus aureus Newman at time 0	GSE12614	GSM315924,GSM315925	2			1		0	0	0	0	mbplot				GPL3931		
26220381	Staphylococcus aureus Newman isogenic mutant ccpA-deficient / Staphylococcus aureus Newman at time 30 and without glucose	GSE12614	GSM315926,GSM315927	2			1		0	0	0	0	mbplot				GPL3931		
30496080	Wt T0 / Wt T60	GSE12634	GSM317211,GSM317226	2			3		0	0	0	0	mbplot				GPL7235		
30490413	Wt T60  / recA T60	GSE12634	GSM317212,GSM317216	2			3		0	0	0	0	mbplot				GPL7235		
30507414	recA T60  / Wt T60	GSE12634	GSM317214,GSM317215	2			3		0	0	0	0	mbplot				GPL7235		
30513081	recA T60  / recA T0	GSE12634	GSM317217,GSM317223	2			3		0	0	0	0	mbplot				GPL7235		
30518748	recA T0 / Wt T0	GSE12634	GSM317218,GSM317221,GSM317222	2			3		0	0	0	0	mbplot				GPL7235		
30501747	Wt T0 / recA T0	GSE12634	GSM317219,GSM317220	2			3		0	0	0	0	mbplot				GPL7235		
10308183	time point zero / time point zero negative control	GSE12663	GSM317859,GSM317860,GSM317861/GSM317883,GSM317884,GSM317885,GSM317886	1			1		1	1	0	0	maplot				GPL7246		
10436214	time point zero / time point twenty-four negative control	GSE12663	GSM317859,GSM317860,GSM317861/GSM317887,GSM317888,GSM317889,GSM317890	1			1		1	1	0	0	maplot				GPL7246		
10538766	time point one / time point zero	GSE12663	GSM317862,GSM317863,GSM317864/GSM317859,GSM317860,GSM317861	1			1		1	1	0	0	maplot				GPL7246		
10321002	time point one  / time point zero negative control	GSE12663	GSM317862,GSM317863,GSM317864/GSM317883,GSM317884,GSM317885,GSM317886	1			1		1	1	0	0	maplot				GPL7246		
10449033	time point one / time point twenty-four negative control	GSE12663	GSM317862,GSM317863,GSM317864/GSM317887,GSM317888,GSM317889,GSM317890	1			1		1	1	0	0	maplot				GPL7246		
10551585	time point two / time point zero	GSE12663	GSM317865,GSM317866,GSM317867/GSM317859,GSM317860,GSM317861	1			1		1	1	0	0	maplot				GPL7246		
10333821	time point two / time point zero negative control	GSE12663	GSM317865,GSM317866,GSM317867/GSM317883,GSM317884,GSM317885,GSM317886	1			1		1	1	0	0	maplot				GPL7246		
10461852	time point two / time point twenty-four negative control	GSE12663	GSM317865,GSM317866,GSM317867/GSM317887,GSM317888,GSM317889,GSM317890	1			1		1	1	0	0	maplot				GPL7246		
10564404	time point four / time point zero	GSE12663	GSM317868,GSM317869,GSM317870/GSM317859,GSM317860,GSM317861	1			1		1	1	0	0	maplot				GPL7246		
10346640	time point four / time point zero negative control	GSE12663	GSM317868,GSM317869,GSM317870/GSM317883,GSM317884,GSM317885,GSM317886	1			1		1	1	0	0	maplot				GPL7246		
10474671	time point four  / time point twenty-four negative control	GSE12663	GSM317868,GSM317869,GSM317870/GSM317887,GSM317888,GSM317889,GSM317890	1			1		1	1	0	0	maplot				GPL7246		
10577223	time point eight / time point zero	GSE12663	GSM317871,GSM317872,GSM317873/GSM317859,GSM317860,GSM317861	1			1		1	1	0	0	maplot				GPL7246		
10363622	time point eight / time point zero negative control	GSE12663	GSM317871,GSM317872,GSM317873/GSM317883,GSM317884,GSM317885,GSM317886	1			1		1	1	0	0	maplot				GPL7246		
10487490	time point eight  / time point twenty-four negative control	GSE12663	GSM317871,GSM317872,GSM317873/GSM317887,GSM317888,GSM317889,GSM317890	1			1		1	1	0	0	maplot				GPL7246		
10590042	time point twelve / time point zero	GSE12663	GSM317874,GSM317875,GSM317876/GSM317859,GSM317860,GSM317861	1			1		1	1	0	0	maplot				GPL7246		
10379289	time point twelve / time point zero negative control	GSE12663	GSM317874,GSM317875,GSM317876/GSM317883,GSM317884,GSM317885,GSM317886	1			1		1	1	0	0	maplot				GPL7246		
10500309	time point twelve  / time point twenty-four negative control	GSE12663	GSM317874,GSM317875,GSM317876/GSM317887,GSM317888,GSM317889,GSM317890	1			1		1	1	0	0	maplot				GPL7246		
10602861	time point sixteen / time point zero	GSE12663	GSM317877,GSM317878,GSM317879/GSM317859,GSM317860,GSM317861	1			1		1	1	0	0	maplot				GPL7246		
10393590	time point sixteen / time point zero negative control	GSE12663	GSM317877,GSM317878,GSM317879/GSM317883,GSM317884,GSM317885,GSM317886	1			1		1	1	0	0	maplot				GPL7246		
10513128	time point sixteen / time point twenty-four negative control	GSE12663	GSM317877,GSM317878,GSM317879/GSM317887,GSM317888,GSM317889,GSM317890	1			1		1	1	0	0	maplot				GPL7246		
10615680	time point twenty-four  / time point zero	GSE12663	GSM317880,GSM317881,GSM317882/GSM317859,GSM317860,GSM317861	1			1		1	1	0	0	maplot				GPL7246		
10410739	time point twenty-four / time point zero negative control	GSE12663	GSM317880,GSM317881,GSM317882/GSM317883,GSM317884,GSM317885,GSM317886	1			1		1	1	0	0	maplot				GPL7246		
10525947	time point twenty-four  / time point twenty-four negative control	GSE12663	GSM317880,GSM317881,GSM317882/GSM317887,GSM317888,GSM317889,GSM317890	1			1		1	1	0	0	maplot				GPL7246		
10295364	twenty-four hours negative control / time point zero hour negative control	GSE12663	GSM317887,GSM317888,GSM317889,GSM317890/GSM317883,GSM317884,GSM317885,GSM317886	1			1		1	1	0	0	maplot				GPL7246		
24180951	yjgK / WT control biofilm	GSE12701	GSM318715/GSM318714	1			1		1	1	0	0	maplot				GPL3154	NC_000913	NC_000913
30344803	L. monocytogenes EGDe wild without iron / L. monocytogenes EGDe wild with iron	GSE12735	GSM318610,GSM318611	2			1		0	0	0	0	mbplot				GPL7073		
30339591	L. monocytogenes Fur mutant without iron / L. monocytogenes Fur mutant with iron	GSE12735	GSM318612,GSM318617	2			1		0	0	0	0	mbplot				GPL7073		
30349308	L. monocytogenes EGDe fur mutant with iron / L. monocytogenes EGDe wild strain with iron	GSE12735	GSM318613,GSM318614	2			1		0	0	0	0	mbplot				GPL7073		
30353908	L. monocytogenes EGDe fur mutant without iron / L. monocytogenes wild type without iron	GSE12735	GSM318615,GSM318616	2			1		0	0	0	0	mbplot				GPL7073		
24193187	5FU / control biofilm	GSE12750	GSM319952,GSM356795/GSM319951,GSM356794	1			2		1	1	0	0	mbplot				GPL3154	NC_000913	NC_000913
24205423	WT stationary phase / WT exponential phase	GSE12797	GSM320946,GSM320947,GSM320948/GSM320945,GSM321242,GSM321244	1			1		0	0	0	0	mbplot				GPL199	NC_000913	NC_000913
24210026	rpoS / WT M63 glucose exponential	GSE12797	GSM320949,GSM320950,GSM321238/GSM320945,GSM321242,GSM321244	1			1		0	0	0	0	mbplot				GPL199	NC_000913	NC_000913
24214629	rpoS / WT M63 glucose stationary	GSE12797	GSM321239,GSM321240,GSM321241/GSM320946,GSM320947,GSM320948	1			1		0	0	0	0	mbplot				GPL199	NC_000913	NC_000913
24219232	qseE deletion mutant / wild type	GSE12831	GSM322121/GSM322124	1			1		1	0	0	0	mbplot				GPL3154	NC_002655	NC_002655
24228455	qseF deletion mutant / wild type	GSE12831	GSM322122/GSM322124	1			1		1	0	0	0	mbplot				GPL3154	NC_002655	NC_002655
24237678	qseG deletion mutant / wild type	GSE12831	GSM322123/GSM322124	1			1		1	0	0	0	mbplot				GPL3154	NC_002655	NC_002655
7486726	TS133, virR/virS mutant, 1.5 h from strart of culture / strain 13, wild type, 1.5 h from strart of culture	GSE12833	GSM322162	2	3		2		1	1	0	0	mbplot				GPL7332		
7490720	TS133, virR/virS mutant, 2 h from strart of culture / strain 13, wild type, 2 h from strart of culture	GSE12833	GSM322163	2	3		2		1	1	0	0	mbplot				GPL7332		
7497022	TS133, virR/virS mutant, 2.5 h from strart of culture / strain 13, wild type, 2.5 h from strart of culture	GSE12833	GSM322164	2	3		2		1	1	0	0	mbplot				GPL7332		
7501528	TS140, VR-RNA mutant, 1.5 h from strart of culture / strain 13, wild type, 1.5 h from strart of culture	GSE12833	GSM322165	2	3		2		1	1	0	0	mbplot				GPL7332		
7507318	TS140, VR-RNA mutant, 2 h from strart of culture / strain 13, wild type, 2 h from strart of culture	GSE12833	GSM322166	2	3		2		1	1	0	0	mbplot				GPL7332		
7509979	TS140, VR-RNA mutant, 2.5 h from strart of culture / strain 13, wild type, 2.5 h from strart of culture	GSE12833	GSM322167	2	3		2		1	1	0	0	mbplot				GPL7332		
7704532	RNA_14028s(delpreA)pBAD18 / RNA_14028s(wt)pBAD18preA	GSE12866	GSM322704,GSM322705,GSM322706	2	3	4	15	16	1	1	0	0	mbplot				GPL3788		
7713310	RNA_14028s(delpreA)pBAD18 / RNA_14028s(wt)pBAD18preA	GSE12866	GSM322707,GSM322708,GSM322709	2	15	16	3	4	1	1	0	0	mbplot				GPL3788		
7725734	RNA_14028s(delpreAB)pBAD18 / RNA_14028s(delpreAB)pBAD18preA	GSE12866	GSM322710,GSM322711,GSM322712	2	15	16	3	4	1	1	0	0	mbplot				GPL3788		
7730866	RNA_14028s(delpreAB)pBAD18 / RNA_14028s(delpreAB)pBAD18preA	GSE12866	GSM322713,GSM322714,GSM322715	2	3	4	15	16	1	1	0	0	mbplot				GPL3788		
26209230	Wild type Helicobacter pylori-pH7.4 / HP0244-deficient muant-pH7.4 tetete	GSE12900	GSM323449,GSM323450,GSM323451	2			1		0	0	0	0	mbplot				GPL7362		
26207704	Wild type Helicobacter pylori-pH4.5 / HP0244-deficient muant-pH4.5	GSE12900	GSM323452,GSM323453,GSM323454	2			1		0	0	0	0	mbplot				GPL7362		
26206178	Wild type Helicobacter pylori-pH2.5 / HP0244-deficient muant-pH2.5	GSE12900	GSM323455,GSM323456,GSM323457	2			1		0	0	0	0	mbplot				GPL7362		
24246901	20 mM acetate / 20 mM NaCl	GSE12903	GSM323570,GSM323571	2			2		1	0	0	0	mbplot				GPL6228		NC_002695
24252353	20 mM propionate / 20 mM NaCl	GSE12903	GSM323572,GSM323573	2			2		1	0	0	0	mbplot				GPL6228		NC_002695
24257805	20 mM butyrate / 20 mM NaCl	GSE12903	GSM323574,GSM323575	2			2		1	0	0	0	mbplot				GPL6228		NC_002695
26263010	ISP794_48_10 min / ISP794_37_10 min	GSE12920	GSM324105,GSM324106,GSM324107	2			1		1	0	1	0	mbplot				GPL3931		
26259199	ISP794_43_10 min / ISP794_37_10 min	GSE12920	GSM324108,GSM324109,GSM324110	2			1		1	0	1	0	mbplot				GPL3931		
24263257	30 uM CO-RMs 15 min / aerobic control	GSE13048	GSM322872,GSM322939,GSM322940,GSM322942	2	2		10		1	1	0	0	mbplot				GPL534		NC_000913
24267760	30 uM CO-RMs 15 min / aerobic control (dye swap)	GSE13048	GSM322873,GSM322937,GSM322938,GSM322941	2	10		2		1	1	0	0	mbplot				GPL534		NC_000913
24272263	100 uM CO-RMs 15 min / anaerobic control	GSE13048	GSM322943,GSM322945,GSM322947,GSM322949	2	2		10		1	1	0	0	mbplot				GPL534		NC_000913
24276766	100 uM CO-RMs 15 min / anaerobic control (dye swap)	GSE13048	GSM322944,GSM322946,GSM322948,GSM322950	2	10		2		1	1	0	0	mbplot				GPL534		NC_000913
12514462	Listeria monocytogenes EGDe mouse spleen 24H post infection / Listeria monocytogenes EGDe in BHI in exponential growth phase	GSE13057	GSM327186,GSM327193/GSM327184,GSM327185	1			2		1	1	0	0	maplot				GPL7248		
12522804	Listeria monocytogenes EGDe from infected mouse spleen 48H post infection / Listeria monocytogenes EGDe in BHI in exponential growth phase	GSE13057	GSM327194,GSM327195/GSM327184,GSM327185	1			2		1	1	0	0	maplot				GPL7248		
12529305	Listeria monocytogenes EGDe from infected mouse spleen 72H post infection / Listeria monocytogenes EGDe in BHI in exponential growth phase	GSE13057	GSM327196,GSM327197/GSM327184,GSM327185	1			2		1	1	0	0	maplot				GPL7248		
12537871	Listeria monocytogenes EGDe from infected mouse spleen 72H post infection / Listeria monocytogenes EGDe from infected mouse spleen 24H post infection	GSE13057	GSM327196,GSM327197/GSM327186,GSM327193	1			2		1	1	0	0	maplot				GPL7248		
12545462	Listeria monocytogenes EGDe from infected mouse spleen 72H post infection / Listeria monocytogenes EGDe from infected mouse spleen 48H post infection	GSE13057	GSM327196,GSM327197/GSM327194,GSM327195	1			2		1	1	0	0	maplot				GPL7248		
24281269	gadE exponential phase / gadE stationary phase	GSE13132	GSM328772,GSM328773	2	3		2		0	0	0	0	mbplot				GPL7445		NC_002695
24291531	gadE exponential phase / gadE stationary phase (dye swap)	GSE13132	GSM328774,GSM328775,GSM328776	2	2		3		0	0	0	0	mbplot				GPL7445		NC_002695
24301793	gadE exponential phase / WT exponential phase	GSE13132	GSM328777,GSM328779,GSM328782	2	2		3		0	0	0	0	mbplot				GPL7445		NC_002695
24312055	gadE exponential phase / WT exponential phase (dye swap)	GSE13132	GSM328778,GSM328781	2	3		2		0	0	0	0	mbplot				GPL7445		NC_002695
24322317	gadE stationary phase / WT stationary phase	GSE13132	GSM328783,GSM328785,GSM328786	2	3		2		0	0	0	0	mbplot				GPL7445		NC_002695
24332579	gadE stationary phase / WT stationary phase (dye swap)	GSE13132	GSM328784,GSM328787	2	2		3		0	0	0	0	mbplot				GPL7445		NC_002695
24342841	WT exponential phase  / WT stationary phase	GSE13132	GSM328788,GSM328792	2	2		3		0	0	0	0	mbplot				GPL7445		NC_002695
24353103	WT exponential phase  / WT stationary phase (dye swap)	GSE13132	GSM328789,GSM328790,GSM328791	2	3		2		0	0	0	0	mbplot				GPL7445		NC_002695
8093900	Null glnR_18h / wt_18h	GSE13246	GSM334269,GSM334275/GSM334270,GSM334276	1			1		1	0	0	0	maplot				GPL7477		
8089933	Null glnR_ 48h/ wt_48h	GSE13246	GSM334271,GSM334273/GSM334272,GSM334274	1			1		1	0	0	0	maplot				GPL7477		
26597082	Streptococcus agalactiae COH1, grown in chemically defined medium / Streptococcus agalactiae DS101(mtaR insertional mutant), grown in chemically defined medium	GSE13325	GSM336279,GSM336331,GSM336339/GSM336309,GSM336332,GSM336340	1			1		1	1	0	0	maplot				GPL7515		
24363365	attachment stage biofilm / colony stage biofilm	GSE13418	GSM338541,GSM338542,GSM338543/GSM338544,GSM338545,GSM338546	1			1		1	0	0	0	mbplot			1	GPL199	NC_000913	NC_000913
24367968	attachment stage biofilm / maturation stage biofilm	GSE13418	GSM338541,GSM338542,GSM338543/GSM338550,GSM338551,GSM338552	1			1		1	0	0	0	maplot			2	GPL199	NC_000913	NC_000913
24372571	attachment stage biofilm /planktonic exponential phase	GSE13418	GSM338541,GSM338542,GSM338543/GSM338547,GSM338548,GSM338549	1			1		1	0	0	0	mbplot			3	GPL199	NC_000913	NC_000913
24377174	colony stage biofilm /planktonic exponential phase	GSE13418	GSM338544,GSM338545,GSM338546/GSM338547,GSM338548,GSM338549	1			1		1	0	0	0	mbplot			4	GPL199	NC_000913	NC_000913
24381777	maturation stage biofilm /planktonic exponential phase	GSE13418	GSM338550,GSM338551,GSM338552/GSM338547,GSM338548,GSM338549	1			1		1	0	0	0	mbplot			5	GPL199	NC_000913	NC_000913
24386380	planktonic exponential phase  / planktonic stationary phase	GSE13418	GSM338547,GSM338548,GSM338549/GSM338553,GSM338554,GSM338555	1			1		1	0	0	0	maplot			6	GPL199	NC_000913	NC_000913
24390983	wildtype 1% isobutanol / wildtype	GSE13444	GSM336455,GSM336456,GSM336466,GSM336467,GSM336468,GSM336469,GSM336473,GSM336474,GSM336495,GSM336496	2	4	5	2	3	1	1	0	0	maplot			1	GPL5113		NC_000913
24395505	wildtype 1% butanol / wildtype	GSE13444	GSM336470,GSM336471,GSM336477,GSM336492,GSM336508,GSM336509,GSM336510,GSM336511	2	4	5	2	3	1	1	0	0	maplot			2	GPL5113		NC_000913
24400027	wildtype 3% ethanol / wildtype	GSE13444	GSM336488,GSM336489,GSM336493,GSM336494,GSM336497,GSM336498,GSM336505,GSM336506	2	4	5	2	3	1	1	0	0	maplot			3	GPL5113		NC_000913
24404549	ihfA 1% isobutanol / ihfA	GSE13444	GSM336062,GSM336453,GSM336454,GSM336478,GSM336501,GSM336503,GSM336504,GSM336507	2	4	5	2	3	1	1	0	0	maplot			4	GPL5113		NC_000913
24409071	fur 1% isobutanol / fur	GSE13444	GSM336451,GSM336452,GSM336457,GSM336458,GSM336459,GSM336460,GSM336483,GSM336502	2	4	5	2	3	1	1	0	0	maplot			5	GPL5113		NC_000913
24413593	phoB 1% isobutanol / phoB	GSE13444	GSM336461,GSM336462,GSM336472,GSM336482,GSM336484,GSM336485,GSM336486,GSM336487	2	4	5	2	3	1	1	0	0	maplot			6	GPL5113		NC_000913
24418115	arcA 1% isobutanol / arcA	GSE13444	GSM336475,GSM336476,GSM336479,GSM336480,GSM336490,GSM336491,GSM336499,GSM336500	2	4	5	2	3	1	1	0	0	maplot			7	GPL5113		NC_000913
24422637	ubiE1% isobutanol / ubiE	GSE13444	GSM466909,GSM466910,GSM466911,GSM466912	2	4	5	2	3	1	1	0	0	maplot			8	GPL5113		NC_000913
19128322	D39 psaR mutant / D39 wild type	GSE13505	GSM339551,GSM340483,GSM340484	2			1		0	0	0	0	mbplot				GPL6268		
19133817	TIGR4 psaR mutant / TIGR4 wild type	GSE13505	GSM340485,GSM340486,GSM340487	2			1		0	0	0	0	mbplot				GPL6268		
24427159	sdiA deletion mutant / WT	GSE13562	GSM341493/GSM322124	1			1		1	0	0	0	mbplot				GPL3154	NC_002655	NC_002655
24436382	sdiA deletion mutant   AHL / WT   AHL	GSE13562	GSM341494/GSM341492	1			1		1	0	0	0	mbplot				GPL3154	NC_002655	NC_002655
24445605	biofilm outside / biofilm inside	GSE13589	GSM341914,GSM341915,GSM341916/GSM341911,GSM341912,GSM341913	1			1		1	0	0	0	mbplot			1	GPL3154	NC_000913	NC_000913
24457841	Planktonic exponential phase  / Planktonic stationary phase	GSE13589	GSM341917,GSM341918,GSM341919/GSM341920,GSM341921,GSM341922	1			1		1	0	0	0	mbplot			2	GPL3154	NC_000913	NC_000913
24470077	biofilm inside  / Planktonic exponential phase	GSE13589	GSM341911,GSM341912,GSM341913/GSM341917,GSM341918,GSM341919	1			1		1	0	0	0	mbplot			3	GPL3154	NC_000913	NC_000913
24482313	biofilm outside / Planktonic exponential phase	GSE13589	GSM341914,GSM341915,GSM341916/GSM341917,GSM341918,GSM341919	1			1		1	1	0	0	mbplot			4	GPL3154	NC_000913	NC_000913
6714955	Brucella melitensis 16M, logarithmic phase of growth with exogenous C12-HSL added. / Brucella melitensis 16M, logarithmic phase of growth.	GSE13634	GSM341250,GSM341251,GSM341252/GSM341247,GSM341248,GSM341249	1			1		1	1	0	0	maplot				GPL7612		
6718183	Brucella melitensis 16M?vjbR, logarithmic phase of growth. / Brucella melitensis 16M, logarithmic phase of growth.	GSE13634	GSM341253,GSM341254,GSM341255/GSM341247,GSM341248,GSM341249	1			1		1	1	0	0	maplot				GPL7612		
6731095	Brucella melitensis 16M, stationary phase of growth with exogenous C12-HSL added. / Brucella melitensis 16M, stationary phase of growth.	GSE13634	GSM341259,GSM341260,GSM341261/GSM341256,GSM341257,GSM341258	1			1		1	1	0	0	maplot				GPL7612		
6727867	Brucella melitensis 16M?vjbR, stationary phase of growth. / Brucella melitensis 16M, stationary phase of growth.	GSE13634	GSM341262,GSM341263,GSM341264/GSM341256,GSM341257,GSM341258	1			1		1	1	0	0	maplot				GPL7612		
6721411	Brucella melitensis 16M?vjbR, logarithmic phase of growth with exogenous C12-HSL added. / Brucella melitensis 16M?vjbR, logarithmic phase of growth.	GSE13634	GSM343377,GSM343378,GSM343379/GSM343374,GSM343375,GSM343376	1			1		1	1	0	0	maplot				GPL7612		
6724639	Brucella melitensis 16M?vjbR, stationary phase of growth with exogenous C12-HSL added. / Brucella melitensis 16M?vjbR, stationary phase of growth.	GSE13634	GSM343383,GSM343384,GSM343385/GSM343380,GSM343381,GSM343382	1			1		1	1	0	0	maplot				GPL7612		
10628499	Brucella melitensis 16M?mucR, late logarithmic phase of growth. / Brucella melitensis 16M, late logarithmic phase of growth.	GSE13647	GSM343502,GSM343503,GSM343504/GSM343499,GSM343500,GSM343501	1			1		1	1	0	0	mbplot				GPL7612		
10918046	GAS strain 5448R-, in vivo derived 24h / GAS strain 5448, in vivo derived 24h	GSE13656	GSM343581,GSM343582,GSM343583/GSM343577,GSM343578,GSM343579,GSM343580	1			1		0	1	0	0	maplot				GPL7661		
24494549	rpoS- / WT	GSE13666	GSM343773,GSM343774/GSM343771,GSM343772	1			1		0	0	0	0	mbplot				GPL7672	NC_000913	NC_000913
24498879	evolved rpoS+ (DMS1735) / WT	GSE13666	GSM343775,GSM343776/GSM343771,GSM343772	1			1		0	0	0	0	mbplot				GPL7672	NC_000913	NC_000913
24503209	evolved rpoS+ (DMS1737) / WT	GSE13666	GSM343777,GSM343778/GSM343771,GSM343772	1			1		0	0	0	0	mbplot				GPL7672	NC_000913	NC_000913
24507539	evolved rpoS+ (DMS1739) / WT	GSE13666	GSM343779,GSM343780/GSM343771,GSM343772	1			1		0	0	0	0	mbplot				GPL7672	NC_000913	NC_000913
24511869	evolved rpoS+ (DMS1741) / WT	GSE13666	GSM343781,GSM343782/GSM343771,GSM343772	1			1		0	0	0	0	mbplot				GPL7672	NC_000913	NC_000913
24516199	evolved rpoS+ (DMS1743) / WT	GSE13666	GSM343783,GSM343784/GSM343771,GSM343772	1			1		0	0	0	0	mbplot				GPL7672	NC_000913	NC_000913
24520529	evolved rpoS- (DMS1745) / rpoS- (DMS1688)	GSE13666	GSM343785,GSM343786/GSM343773,GSM343774	1			1		0	0	0	0	mbplot				GPL7672	NC_000913	NC_000913
24524859	evolved rpoS- (DMS1747) / rpoS- (DMS1688)	GSE13666	GSM343787,GSM343788/GSM343773,GSM343774	1			1		0	0	0	0	mbplot				GPL7672	NC_000913	NC_000913
24529189	evolved rpoS- (DMS1749) / rpoS- (DMS1688)	GSE13666	GSM343789,GSM343790/GSM343773,GSM343774	1			1		0	0	0	0	mbplot				GPL7672	NC_000913	NC_000913
24533519	evolved rpoS- (DMS1751) / rpoS- (DMS1688)	GSE13666	GSM343791,GSM343792/GSM343773,GSM343774	1			1		0	0	0	0	mbplot				GPL7672	NC_000913	NC_000913
24537849	evolved rpoS- (DMS1753) / rpoS- (DMS1688)	GSE13666	GSM343793,GSM343794/GSM343773,GSM343774	1			1		0	0	0	0	mbplot				GPL7672	NC_000913	NC_000913
24542179	TOM-Green/IsoILR1/GSHI, cis-DCE / non-cloned genes, cis-DCE	GSE13698	GSM344439,GSM365251/GSM344440,GSM365252	1			1		1	1	0	0	mbplot				GPL3154	NC_000913	NC_000913
24554415	TOM-Green/EchA F108L/I219L/C248I, cis-DCE / TOM-Green, cis-DCE	GSE13698	GSM344441/GSM344442	1			1		1	1	0	0	mbplot				GPL199	NC_000913	NC_000913
29860903	BW25113, H2O2 / BW25113, water (negative control)	GSE13698	GSM344444/GSM344443	1			1		1	1	0	0	mbplot				GPL3154		
24559018	BW25113, H2O2 / BW25113, water	GSE13698	GSM344444/GSM344443	1			1		1	0	0	0	mbplot				GPL3154	NC_000913	NC_000913
24571254	BW25113 ygiW, H2O2 / BW25113 ygiW, water	GSE13698	GSM344447/GSM344445	1			1		1	0	0	0	mbplot				GPL3154	NC_000913	NC_000913
24583490	BW25113 ychH, H2O2 / BW25113 ychH, water	GSE13698	GSM344448/GSM344446	1			1		1	0	0	0	mbplot				GPL3154	NC_000913	NC_000913
8299521	recombinant strain TB294-pSigA / strain TB294-pCV	GSE13780	GSM346759,GSM346785,GSM346811,GSM346812	2			7		0	0	0	0	mbplot				GPL4057		
24595726	UV irradiation (50 J/m2) / unirradiated	GSE13829	GSM347952,GSM347953,GSM347954,GSM347955,GSM347956/GSM347947,GSM347948,GSM347949,GSM347950,GSM347951	1			1		0	0	0	0	mbplot				GPL7714	NC_000913	NC_000913
24600191	FhlA133 (mutated) / FhlA (control)	GSE13902	GSM350102/GSM350095	1			1		1	0	0	0	mbplot				GPL3154	NC_000913	NC_000913
8495839	M. tuberculosis, grown in Tween with Cholesterol added, 3hrs / M. tuberculosis, grown in Tween, 3hrs	GSE13978	GSM350580,GSM351164,GSM351165	2			7		0	0	0	0	mbplot				GPL4057		
8491931	M. tuberculosis, grown in Tween with Cholesterol added, 24hrs / M. tuberculosis, grown in Tween, 24hrs	GSE13978	GSM351166,GSM351167,GSM351168	2			7		0	0	0	0	mbplot				GPL4057		
8488023	M. tuberculosis, CDC1551 kstR mutant (162), grown in Tween / M. tuberculosis, CDC1551 (146), grown in Tween	GSE13978	GSM351193,GSM351195,GSM351202	2			7		0	0	0	0	mbplot				GPL4057		
8484115	M. tuberculosis, CDC1551 kstR mutant (162), grown in Tween   Cholesterol / M. tuberculosis, CDC1551 (146), grown in Tween   Cholesterol	GSE13978	GSM351208,GSM351277,GSM351278	2			7		0	0	0	0	mbplot				GPL4057		
24612427	CORM-2 treated_anaerobic / anaerobic control	GSE13982	GSM351281,GSM351294/GSM351280,GSM351282	1			1		1	1	0	0	maplot				GPL3154	NC_000913	NC_000913
24624663	CORM-2 treated_aerobic / aerobic control	GSE13982	GSM351296,GSM351304/GSM351295,GSM351297	1			1		1	1	0	0	maplot				GPL3154	NC_000913	NC_000913
9884227	MTb-relE1 over express- 6 hr / MTb-relE1 - 6 hr - control(not overexpress relE1)	GSE13998	GSM351644,GSM351653,GSM351658,GSM351675	2			1		0	0	0	0	mbplot				GPL1343		
9891520	MTb-relE2 -over express relE2  6 hr / MTb-relE2 - 6 hr - control(not over express relE2)	GSE13998	GSM351645,GSM351654,GSM351673	2			1		0	0	0	0	mbplot				GPL1343		
9898813	MTb-relE3 - over express relE3 6 hr / MTb-relE3 - 6 hr - control(no over express relE3)	GSE13998	GSM351646,GSM351655,GSM351660,GSM351671	2			1		0	0	0	0	mbplot				GPL1343		
9889089	MTb-relE2 -over express relE2 24 hr / MTb-relE2 - 24 hr - control(not over express relE2)	GSE13998	GSM351647,GSM351659,GSM351672	2			1		0	0	0	0	mbplot				GPL1343		
9896382	MTb-relE3 over express relE3 - 24 hr / MTb-relE3 - 24 hr - control(not over express relE3)	GSE13998	GSM351648,GSM351670	2			1		0	0	0	0	mbplot				GPL1343		
9881796	MTb-relE1 over express relE1 - 24 hr / MTb-relE1 - 24 hr - control(no overexpress)	GSE13998	GSM351649,GSM351674	2			1		0	0	0	0	mbplot				GPL1343		
9886658	MTb-relE1 -over express relE1- 72 hr / MTb-relE1 - 72 hr - control(not overexpress relE1)	GSE13998	GSM351650,GSM351661,GSM351664,GSM351667	2			1		0	0	0	0	mbplot				GPL1343		
9893951	MTb-relE2 -over express relE2 72 hr / MTb-relE2 - 72 hr - control(not overexpress relE2)	GSE13998	GSM351651,GSM351656,GSM351662,GSM351665,GSM351668	2			1		0	0	0	0	mbplot				GPL1343		
6805688	Mycobacterium tuberculosis exposed to WLS for 30 min / Mycobacterium tuberculosis exposed to PBS for 30 min (control)	GSE14005	GSM349959	2	3		2		1	1	0	0	maplot			1	GPL5754		
6809951	Mycobacterium tuberculosis exposed to coated WLS for 2h / Mycobacterium tuberculosis exposed to PBS for 2h (control)	GSE14005	GSM349122	2	3		2		1	1	0	0	maplot			2	GPL5754		
6818122	Mycobacterium tuberculosis exposed to CLSE 30 min / Mycobacterium tuberculosis exposed to PBS 30 min (control)	GSE14005	GSM350870	2	3		2		1	1	0	0	maplot			3	GPL5754		
6826189	Mycobacterium tuberculosis exposed to CLSE 2h / Mycobacterium tuberculosis exposed to PBS 2h (control)	GSE14005	GSM350081	2	3		2		1	1	0	0	maplot			4	GPL5754		
6834464	Mycobacterium tuberculosis exposed to PPL 30 min / Mycobacterium tuberculosis exposed to PBS 30 min (control)	GSE14005	GSM351533	2	3		2		1	1	0	0	maplot			5	GPL5754		
6838727	Myobacterium tuberculosis exposed to PPL 2h / Mycobacterium tuberculosis exposed to PBS 2h (control)	GSE14005	GSM351507	2	3		2		1	1	0	0	maplot			6	GPL5754		
6850806	Mycobacterium tuberculosis exposed to SP-A 2h / Mycobacterium tuberculosis exposed to PBS 2h (control)	GSE14005	GSM351689	2	3		2		1	1	0	0	maplot			7	GPL5754		
6855069	Mycobacterium tuberculosis exposed to uncoated SP-A 2h / Mycobacterium tuberculosis exposed to PBS 2h (control)	GSE14005	GSM351699	2	3		2		1	1	0	0	maplot			8	GPL5754		
24636899	BW25113 ompA/pCA24N ompA  /  BW25113 ompA/pCA24N control	GSE14064	GSM352904/GSM352903	1			1		1	1	0	0	maplot				GPL3154	NC_000913	NC_000913
24649135	ompA / wt (polystyrene biofilm)	GSE14064	GSM352905,GSM414728/GSM352906,GSM414725	1			1		1	1	0	0	maplot				GPL3154	NC_000913	NC_000913
24661371	ompA / wt (glasswool biofilm)	GSE14064	GSM352907/GSM352909	1			1		1	1	0	0	maplot				GPL199	NC_000913	NC_000913
24665974	UA15 stress / unstressed	GSE14069	GSM352908	2			2		0	0	0	0	mbplot				GPL7001		NC_002655
24672551	UA30 stress / unstressed	GSE14069	GSM352910	2			2		0	0	0	0	mbplot				GPL7001		NC_002655
24679128	AA30 stress / unstressed	GSE14069	GSM352911	2			2		0	0	0	0	mbplot				GPL7001		NC_002655
24685705	BW25113-mqsR / control	GSE14203	GSM355060/GSM355059	1			1		1	1	0	0	mbplot			1	GPL3154	NC_000913	NC_000913
24697941	BW25113/pCA24N-mqsR / control (IPTG)	GSE14203	GSM355062/GSM355061	1			1		1	1	0	0	mbplot			2	GPL3154	NC_000913	NC_000913
24710177	BW25113/pCA24N-mqsR / control (IPTG for 15 min)	GSE14203	GSM355064/GSM355063	1			1		1	1	0	0	mbplot			3	GPL3154	NC_000913	NC_000913
24722413	BW25113/pCA24N-mqsR / control (DNA, IPTG)	GSE14203	GSM355066/GSM355065	1			1		1	1	0	0	mbplot			4	GPL199	NC_000913	NC_000913
24727016	BW25113/pBAD-mqsA / control (DNA, IPTG)	GSE14203	GSM355068/GSM355067	1			1		1	1	0	0	mbplot			5	GPL199	NC_000913	NC_000913
24731619	minimal media / Penassay broth	GSE14238	GSM356731,GSM356736,GSM356739,GSM356742/GSM356732,GSM356734,GSM356737,GSM356738,GSM356740	1			1		1	0	0	0	mbplot			1	GPL3154	NC_002655	NC_002655
24740842	minimal media in 5% CO2 / Penassay broth	GSE14238	GSM356744,GSM356745,GSM356746,GSM356747/GSM356732,GSM356734,GSM356737,GSM356738,GSM356740	1			1		1	0	0	0	mbplot			2	GPL3154	NC_002655	NC_002655
24750065	Hep-2 cells / Penassay broth	GSE14238	GSM356730,GSM356733,GSM356735,GSM356741,GSM356743/GSM356732,GSM356734,GSM356737,GSM356738,GSM356740	1			1		1	0	0	0	mbplot			3	GPL3154	NC_002655	NC_002655
26594777	Streptococcus agalactiae CiaR, grown in THB / Streptococcus agalactiae COH1, grown in THB	GSE14259	GSM340899,GSM340900/GSM340871,GSM340898	1			1		1	1	0	0	maplot				GPL7515		
10951510	TIGR4 in ThyB / TIGR4 in Mn	GSE14324	GSM358101,GSM358229,GSM358231	2			1		0	0	0	0	mbplot				GPL8038		
10951395	TIGR4 Mn / mntE in Mn	GSE14324	GSM358241,GSM358242,GSM358244	2			1		0	0	0	0	mbplot				GPL8038		
10933503	7 hour treatment of Sa strain LUG776 / 7 hour treatment of Sa strain RN6390	GSE14394	GSM359818,GSM359819,GSM359820/GSM359815,GSM359816,GSM359817	1			1		1	1	0	0	maplot				GPL8069		
10925835	7 hour treatment of Sa strain LUG776  / 7 hour treatment of Sa strain LUG855	GSE14394	GSM359818,GSM359819,GSM359820/GSM359821,GSM359822,GSM359823	1			1		1	1	0	0	maplot				GPL8069		
10928391	7 hour treatment of Sa strain LUG776 / 7 hour treatment of Sa strain LUG855R	GSE14394	GSM359818,GSM359819,GSM359820/GSM359824,GSM359825,GSM359826	1			1		1	1	0	0	maplot				GPL8069		
10930947	7 hour treatment of Sa strain LUG776  / 7 hour treatment of Sa strain LUG862	GSE14394	GSM359818,GSM359819,GSM359820/GSM359827,GSM359828,GSM359829	1			1		1	1	0	0	maplot				GPL8069		
10941171	7 hour treatment of Sa strain LUG855  / 7 hour treatment of Sa strain RN6390	GSE14394	GSM359821,GSM359822,GSM359823/GSM359815,GSM359816,GSM359817	1			1		1	1	0	0	maplot				GPL8069		
10936059	7 hour treatment of Sa strain LUG855 / 7 hour treatment of Sa strain LUG855R	GSE14394	GSM359821,GSM359822,GSM359823/GSM359824,GSM359825,GSM359826	1			1		1	1	0	0	maplot				GPL8069		
10938615	7 hour treatment of Sa strain LUG855 / 7 hour treatment of Sa strain LUG862	GSE14394	GSM359821,GSM359822,GSM359823/GSM359827,GSM359828,GSM359829	1			1		1	1	0	0	maplot				GPL8069		
10946283	7 hour treatment of Sa strain LUG855R  / 7 hour treatment of Sa strain RN6390	GSE14394	GSM359824,GSM359825,GSM359826/GSM359815,GSM359816,GSM359817	1			1		1	1	0	0	maplot				GPL8069		
10943727	7 hour treatment of Sa strain LUG855R / 7 hour treatment of Sa strain LUG862	GSE14394	GSM359824,GSM359825,GSM359826/GSM359827,GSM359828,GSM359829	1			1		1	1	0	0	maplot				GPL8069		
10948839	7 hour treatment of Sa strain LUG862  / 7 hour treatment of Sa strain RN6390	GSE14394	GSM359827,GSM359828,GSM359829/GSM359815,GSM359816,GSM359817	1			1		1	1	0	0	maplot				GPL8069		
26131537	late log phase / mid log phase	GSE14456	GSM361245,GSM361246,GSM361247/GSM361236,GSM361237,GSM361238	1			1		1	0	0	0	mbplot				GPL6923		
24759288	CP4-57-deficient  / wild type	GSE14472	GSM361556/GSM361555	1			1		1	0	0	0	mbplot				GPL3154	NC_000913	NC_000913
29806703	Hp mut5_8 /Hp wtG27	GSE14752	GSM368456,GSM368457	2			3		1	0	1	0	mbplot				GPL3476		
7388127	24 hour phosphate-starved culture/Log phase culture	GSE14840	GSM371007,GSM371278,GSM371280	2	4	5	2	5	1	1	0	0	maplot	ch2/ch1	24		GPL8189		
7396206	72 hour phosphate-starved culture/Log phase culture	GSE14840	GSM371282,GSM371284,GSM371285	2	4	5	2	5	1	1	0	0	maplot	ch2/ch1	72		GPL8189		
6734323	Mycobacterium bovis BCG_Peracetic acid 10 min / Mycobacterium bovis BCG_no treatment	GSE15023	GSM375592,GSM375593,GSM375594/GSM375589,GSM375590,GSM375591	1			1		1	1	0	0	maplot				GPL7549		
6738268	Mycobacterium bovis BCG_Peracetic acid 20 min / Mycobacterium bovis BCG_no treatment	GSE15023	GSM375595,GSM375596,GSM375597/GSM375589,GSM375590,GSM375591	1			1		1	1	0	0	maplot				GPL7549		
9614765	Enteriditis 104 cipR LB log / Enteriditis 104 wt LB log	GSE15024	GSM374059,GSM374060,GSM374061	2	3	4	15	16	1	1	0	0	mbplot				GPL8183		
29841720	Enteriditis 5408 cipR LB log / Enteriditis 5408 wt LB log	GSE15024	GSM374062,GSM374063,GSM374064	2	3	4	15	16	1	1	0	0	mbplot				GPL8183		
9628503	Enteriditis 104 cipR LB log / Enteriditis 104 wt LB log	GSE15024	GSM375759,GSM375760,GSM375761	2	3	4	15	16	1	1	0	0	mbplot				GPL8183		
9643105	Enteriditis 5408 cipR LB log / Enteriditis 5408 wt LB log	GSE15024	GSM375762,GSM375763,GSM375764	2	3	4	15	16	1	1	0	0	mbplot				GPL8183		
24771524	kdpE / wt	GSE15050	GSM375833/GSM322124	1			1		1	1	0	0	maplot			1	GPL3154	NC_002655	NC_002655
24780747	qseB / wt	GSE15050	GSM375836/GSM322124	1			1		1	1	0	0	mbplot			2	GPL3154	NC_002655	NC_002655
24791931	qseF / wt	GSE15050	GSM322122/GSM322124	1			1		1	1	0	0	mbplot			3	GPL3154	NC_002655	NC_002655
24801154	qseC / wt	GSE15050	GSM375837/GSM322124	1			1		1	1	0	0	maplot			4	GPL3154	NC_002655	NC_002655
24810377	qseC / wt (Al3)	GSE15050	GSM375838/GSM375831	1			1		1	1	0	0	mbplot			5	GPL3154	NC_002655	NC_002655
24819600	qseC / wt (epinephrine)	GSE15050	GSM375839/GSM375832	1			1		1	1	0	0	mbplot			6	GPL3154	NC_002655	NC_002655
24828823	qseC / wt (LB)	GSE15050	GSM375840/GSM375834	1			1		1	1	0	0	mbplot			7	GPL3154	NC_002655	NC_002655
24838046	triclosan / control	GSE15059	GSM376029,GSM376033,GSM376035	2	1	3	5	7	1	1	0	0	maplot				GPL3051		NC_000913
10885412	Staphylococcus aureus exponential growth phase at 14N medium / Staphylococcus aureus exponential growth phase at 15N medium	GSE15060	GSM376041/GSM376042	1			5		1	0	0	0	maplot				GPL7137		
10885332	Staphylococcus aureus exponential growth phase at 14N medium / Staphylococcus aureus stationary phase at 14N medium	GSE15060	GSM376041/GSM376043	1			5		1	0	0	0	maplot				GPL7137		
10885572	Staphylococcus aureus exponential growth phase at 15N medium/ Staphylococcus aureus stationary phase at 15N medium	GSE15060	GSM376042/GSM376044	1			5		1	0	0	0	maplot				GPL7137		
10885492	Staphylococcus aureus stationary phase at 14N medium/ Staphylococcus aureus stationary phase at 15N medium	GSE15060	GSM376043/GSM376044	1			5		1	0	0	0	maplot				GPL7137		
26839393	pH 5.5 / pH 7.5	GSE15125	GSM377978,GSM377979,GSM377980	2			1		0	0	0	0	mbplot				GPL8255		
26879942	M1-SDHHBtail mutant / M1-SF370 wild-type	GSE15231	GSM380310,GSM380320,GSM380321,GSM380322,GSM380331,GSM380332,GSM380333,GSM380334	2			1		0	0	0	0	mbplot				GPL8290		
24848560	3 mM ASN / control	GSE15319	GSM384837,GSM384838/GSM384835,GSM384836	1			1		0	0	0	0	maplot				GPL3154	NC_004431	NC_004431
26289721	Staphylococcus aureus NCTC 8325 delta pknB / Staphylococcus aureus NCTC 8325	GSE15346	GSM385365,GSM385367,GSM385368	2			1		0	0	0	0	mbplot				GPL5429		
26292059	Staphylococcus aureus NCTC 8325 / Staphylococcus aureus NCTC 8325 delta pknB	GSE15346	GSM385381,GSM385382	2			1		0	0	0	0	mbplot				GPL5429		
24861461	wt GraL / wt control (short term)	GSE15406	GSM386644,GSM386645,GSM386646/GSM386647,GSM386648,GSM386649	1			1		1	0	0	0	mbplot				GPL3154	NC_000913	NC_000913
24873697	ppGpp0 GraL / ppGpp0 control (short term)	GSE15406	GSM386650,GSM386651,GSM386652/GSM386653,GSM386654,GSM386655	1			1		1	0	0	0	mbplot				GPL3154	NC_000913	NC_000913
24887879	wt GraL / wt control (long term)	GSE15406	GSM386656,GSM386657,GSM386658/GSM386659,GSM386660,GSM386661	1			1		1	0	0	0	mbplot				GPL3154	NC_000913	NC_000913
24903699	ppGpp0 GraL / ppGpp0 control (long term)	GSE15406	GSM386662,GSM386663,GSM386664/GSM386665,GSM386666,GSM386667	1			1		1	0	0	0	mbplot				GPL3154	NC_000913	NC_000913
24916243	adenosine	GSE15409	GSM386765	2			1		0	0	0	0	mbplot				GPL3503		NC_000913
24920738	alanine	GSE15409	GSM386766	2			1		0	0	0	0	mbplot				GPL3503		NC_000913
24925233	arginine	GSE15409	GSM386767	2			1		0	0	0	0	mbplot				GPL3503		NC_000913
24929728	aspartate	GSE15409	GSM386768	2			1		0	0	0	0	mbplot				GPL3503		NC_000913
24934223	cysteine	GSE15409	GSM386769	2			1		0	0	0	0	mbplot				GPL3503		NC_000913
24938718	cytidine	GSE15409	GSM386770	2			1		0	0	0	0	mbplot				GPL3503		NC_000913
24943213	glutamate	GSE15409	GSM386771	2			1		0	0	0	0	mbplot				GPL3503		NC_000913
24947708	glutamine	GSE15409	GSM386772	2			1		0	0	0	0	mbplot				GPL3503		NC_000913
24954149	glycine	GSE15409	GSM386773	2			1		0	0	0	0	mbplot				GPL3503		NC_000913
24958644	guanosine	GSE15409	GSM386774	2			1		0	0	0	0	mbplot				GPL3503		NC_000913
24963139	histidine	GSE15409	GSM386775	2			1		0	0	0	0	mbplot				GPL3503		NC_000913
24967634	isoleucine	GSE15409	GSM386776	2			1		0	0	0	0	mbplot				GPL3503		NC_000913
24972129	lysine	GSE15409	GSM386777	2			1		0	0	0	0	mbplot				GPL3503		NC_000913
24976624	methionine	GSE15409	GSM386778	2			1		0	0	0	0	mbplot				GPL3503		NC_000913
24981119	phenylalanine	GSE15409	GSM386779	2			1		0	0	0	0	mbplot				GPL3503		NC_000913
24987560	proline	GSE15409	GSM386780	2			1		0	0	0	0	mbplot				GPL3503		NC_000913
24992055	serine	GSE15409	GSM386781	2			1		0	0	0	0	mbplot				GPL3503		NC_000913
24996550	threonine	GSE15409	GSM386782	2			1		0	0	0	0	mbplot				GPL3503		NC_000913
25001045	thymidine	GSE15409	GSM386783	2			1		0	0	0	0	mbplot				GPL3503		NC_000913
25007486	tryptophan	GSE15409	GSM386784	2			1		0	0	0	0	mbplot				GPL3503		NC_000913
25011981	uridine	GSE15409	GSM386785	2			1		0	0	0	0	mbplot				GPL3503		NC_000913
25016476	valine	GSE15409	GSM386786	2			1		0	0	0	0	mbplot				GPL3503		NC_000913
25022928	del27 / WT	GSE15500	GSM388696,GSM388697,GSM388698/GSM388713,GSM388714,GSM388715	1			1		1	1	0	0	mbplot				GPL3154	NC_000913	NC_000913
25032473	eBOP42 / WT	GSE15500	GSM388700,GSM388701,GSM388702/GSM388713,GSM388714,GSM388715	1			1		1	1	0	0	mbplot				GPL3154	NC_000913	NC_000913
25040083	eBOP43 / WT	GSE15500	GSM388704,GSM388705,GSM388712/GSM388713,GSM388714,GSM388715	1			1		1	1	0	0	mbplot				GPL3154	NC_000913	NC_000913
30073621	TEST - Escherichia coli cells with 30 min incubation in chlorine / Escherichia coli cells with 30 min incubation in BHI broth	GSE15533	GSM389279,GSM389285/GSM389283,GSM389289	1			1		1	0	0	0	mbplot				GPL3154		
30261426	Sakai chlorine / control	GSE15533	GSM389279,GSM389285/GSM389283,GSM389289	1			1		1	0	0	0	mbplot				GPL3154		
30242316	TW chlorine / control	GSE15533	GSM389279,GSM389285/GSM389283,GSM389289	1			1		1	0	0	0	mbplot				GPL3154		
30223206	Sakai H2O2 / control	GSE15533	GSM389279,GSM389285/GSM389283,GSM389289	1			1		1	0	0	0	mbplot				GPL3154		
30204096	TW H2O2 / control	GSE15533	GSM389279,GSM389285/GSM389283,GSM389289	1			1		1	0	0	0	mbplot				GPL3154	NC_002695	NC_002695
25101917	heat shock 45 degrees 10 min / WT log phase	GSE15534	GSM389297,GSM389298,GSM389299/GSM389294,GSM389295,GSM389296	1			1		0	1	0	0	mbplot				GPL8387	NC_000913	NC_000913
25106411	stationary phase / log phase	GSE15534	GSM389300,GSM389301,GSM389302,GSM389303,GSM389304/GSM389294,GSM389295,GSM389296	1			1		0	1	0	0	mbplot				GPL8387	NC_000913	NC_000913
25110905	WT nitrogen-limited medium log phase / WT complete medium log phase	GSE15534	GSM389305,GSM389306,GSM389307/GSM389294,GSM389295,GSM389296	1			1		0	1	0	0	mbplot				GPL8387	NC_000913	NC_000913
26876020	M1-CdhA(-)mutant / M1-SF370 wild-type	GSE15546	GSM388703,GSM388717,GSM388718,GSM388719,GSM388732,GSM388733,GSM388734,GSM388735,GSM388736,GSM388737,GSM388738	2			1		0	0	0	0	mbplot				GPL8290		
26559219	Yersinia pestis hfq mutant, 37 C 3hr / Yersinia pestis strain 201, 37 C 3hr	GSE15579	GSM389795	2			1		0	0	0	0	mbplot				GPL5937		
18539954	M1-CdhA55(-) mutant /M1-SF370 wild type	GSE15598	GSM389993,GSM389994,GSM389995,GSM390054,GSM390055,GSM390056,GSM390057	2			1		0	0	0	0	mbplot				GPL8290		
6903000	M. tuberculosis at log phase / M. tuberculosis delta-sigmaH mutant at log phase	GSE15608	GSM390294,GSM390295	2			1		0	0	0	0	mbplot				GPL8382		
6898412	M. tuberculosis at log phase   1 hr diamide 10 mM, then washed away / M. tuberculosis delta-sigmaH mutant at log phase   1 hr diamide 10 mM, then washed away	GSE15608	GSM390296,GSM390297	2			1		0	0	0	0	mbplot				GPL8382		
6907588	M. tuberculosis at log phase   1 hr diamide 10 mM, then washed away   30 min / M. tuberculosis delta-sigmaH mutant at log phase   1 hr diamide 10 mM, then washed away   30 min	GSE15608	GSM390298,GSM390299	2			1		0	0	0	0	mbplot				GPL8382		
6912176	M. tuberculosis at log phase   1 hr diamide 10 mM, then washed away   60 min / M. tuberculosis delta-sigmaH mutant at log phase   1 hr diamide 10 mM, then washed away   60 min	GSE15608	GSM390300,GSM390301	2			1		0	0	0	0	mbplot				GPL8382		
6916764	M. tuberculosis at log phase   1 hr diamide 10 mM, then washed away   90 min / M. tuberculosis delta-sigmaH mutant at log phase   1 hr diamide 10 mM, then washed away   90 min	GSE15608	GSM390302,GSM390303	2			1		0	0	0	0	mbplot				GPL8382		
6921352	M. tuberculosis at log phase   1 hr diamide 10 mM, then washed away   120 min / M. tuberculosis delta-sigmaH mutant at log phase   1 hr diamide 10 mM, then washed away   120 min	GSE15608	GSM390304,GSM390305	2			1		0	0	0	0	mbplot				GPL8382		
10698314	S. Typhi Ty2 wild-type low salt / S. Typhi Ty2 rcsB mutant low salt	GSE15752	GSM395580,GSM395581	2			1		0	0	0	0	mbplot				GPL8446		
25115399	bovine-biased-1 / clinical-1	GSE15783	GSM396277	2	2		3		0	0	0	0	maplot				GPL7445		NC_002655
25120852	bovine-biased-2 / clinical-1	GSE15783	GSM396278	2	3		2		0	0	0	0	maplot				GPL7445		NC_002655
25126305	bovine-biased-3 / clinical-1	GSE15783	GSM396279	2	3		2		0	0	0	0	maplot				GPL7445		NC_002655
25131758	bovine-biased-4 / clinical-1	GSE15783	GSM396300	2	2		3		0	0	0	0	maplot				GPL7445		NC_002655
25137211	bovine-biased-1 / clinical-2	GSE15783	GSM396301	2	3		2		0	0	0	0	maplot				GPL7445		NC_002655
25142664	bovine-biased-2 / clinical-2	GSE15783	GSM396302	2	3		2		0	0	0	0	maplot				GPL7445		NC_002655
25148117	bovine-biased-3 / clinical-2	GSE15783	GSM396303	2	2		3		0	0	0	0	maplot				GPL7445		NC_002655
25153570	bovine-biased-4 / clinical-2	GSE15783	GSM396304	2	2		3		0	0	0	0	maplot				GPL7445		NC_002655
25159023	bovine-biased-1 / clinical-3	GSE15783	GSM396305	2	2		3		0	0	0	0	maplot				GPL7445		NC_002655
25164476	bovine-biased-2 / clinical-3	GSE15783	GSM396306	2	2		3		0	0	0	0	maplot				GPL7445		NC_002655
25169929	bovine-biased-3 / clinical-3	GSE15783	GSM396307	2	3		2		0	0	0	0	maplot				GPL7445		NC_002655
25175382	bovine-biased-4 / clinical-3	GSE15783	GSM396308	2	3		2		0	0	0	0	maplot				GPL7445		NC_002655
25180835	bovine-biased-1 / clinical-4	GSE15783	GSM396351	2	3		2		0	0	0	0	maplot				GPL7445		NC_002655
25186288	bovine-biased-2 / clinical-4	GSE15783	GSM396352	2	2		3		0	0	0	0	maplot				GPL7445		NC_002655
25191741	bovine-biased-3 / clinical-4	GSE15783	GSM396354	2	2		3		0	0	0	0	maplot				GPL7445		NC_002655
25199140	bovine-biased-4 / clinical-4	GSE15783	GSM396355	2	3		2		0	0	0	0	maplot				GPL7445		NC_002655
12222259	Total RNA from Staphylococcus aureus Newman incubated with Dermaseptin / Total RNA from Staphylococcus aureus Newman untreated	GSE15800	GSM396538,GSM396539,GSM396540	2			1		0	0	0	0	mbplot				GPL3931		
12211978	Total RNA from Staphylococcus aureus Newman incubated with cathelicidin LL-37 / Total RNA from Staphylococcus aureus Newman untreated	GSE15800	GSM396541,GSM396542,GSM396543	2			1		0	0	0	0	mbplot				GPL3931		
12237106	Total RNA from Staphylococcus aureus Newman incubated with Ovispirin-1 / Total RNA from Staphylococcus aureus Newman untreated	GSE15800	GSM396544,GSM396545,GSM396546	2			1		0	0	0	0	mbplot				GPL3931		
12249071	Total RNA from Staphylococcus aureus Newman incubated with Temporin-L / Total RNA from Staphylococcus aureus Newman untreated	GSE15800	GSM396547,GSM396548,GSM396549	2			1		0	0	0	0	mbplot				GPL3931		
9827582	Wild type Salmonella harbouring pTrc99A(-LacI) / Wild type Salmonella	GSE15950	GSM399982	2	4	5	2	3	1	1	0	0	mbplot				GPL8520		
9836332	Wild type Salmonella harbouring pTrc99A(-LacI) / Wild type Salmonella	GSE15950	GSM400077	2	2	3	4	5	1	1	0	0	mbplot				GPL8520		
9831957	Wild type Salmonella harbouring pTrc99A( LacI) / Wild type Salmonella	GSE15950	GSM400078	2	4	5	2	3	1	1	0	0	mbplot				GPL8520		
9840707	Wild type Salmonella harbouring pTrc99A( LacI) / Wild type Salmonella	GSE15950	GSM400079	2	2	3	4	5	1	1	0	0	mbplot				GPL8520		
8883622	Strain: H37Rv wild type; Treatment: 5mM Diamide for 60 min / Strain: H37Rv wild type; Treatment: Control	GSE15976	GSM400321,GSM400323,GSM400334,GSM400335,GSM400339,GSM400356	2			26		0	0	0	0	mbplot				GPL8523		
8879714	Strain: H37Rv wild type; Treatment: 0.05% SDS for 60 min / Strain: H37Rv wild type; Treatment: Control	GSE15976	GSM400322,GSM400328,GSM400333,GSM400341,GSM400351,GSM400354	2			26		0	0	0	0	mbplot				GPL8523		
8887530	Strain: H37Rv sigB null mutant; Treatment: No Treatment / Strain: H37Rv wild type; Treatment: No Treatment	GSE15976	GSM400324,GSM400329,GSM400330,GSM400342,GSM400345,GSM400347	2			26		0	0	0	0	mbplot				GPL8523		
8891438	Strain: H37Rv wild type; Treatment: No Treatment / Strain: H37Rv wild type; Treatment: No Treatment	GSE15976	GSM400325,GSM400331,GSM400336,GSM400340,GSM400348,GSM400350	2			26		0	0	0	0	mbplot				GPL8523		
8871898	Strain: H37Rv sigB null mutant; Treatment: 0.05% SDS for 60 min / Strain: H37Rv sigB null mutant; Treatment: Control	GSE15976	GSM400326,GSM400332,GSM400343,GSM400352,GSM400353,GSM400355	2			26		0	0	0	0	mbplot				GPL8523		
8875806	Strain: H37Rv sigB null mutant; Treatment: 5mM Diamide for 60 min / Strain: H37Rv sigB null mutant; Treatment: Control	GSE15976	GSM400327,GSM400337,GSM400338,GSM400344,GSM400346,GSM400349	2			26		0	0	0	0	mbplot				GPL8523		
10836521	mssa time 3hour/mssa time 1hour	GSE16488	GSM414189,GSM414192,GSM414346,GSM414351,GSM414368/GSM414196,GSM414202,GSM414352,GSM414357,GSM414362	1			5		0	0	0	0	maplot				GPL8646		
10849366	mssa time 4 hour/mssa time 2 hour	GSE16488	GSM414189,GSM414192,GSM414346,GSM414351,GSM414368/GSM414271,GSM414347,GSM414354,GSM414359,GSM414364	1			5		0	0	0	0	maplot				GPL8646		
10859642	mssa time 4 hour/mssa time 3 hour	GSE16488	GSM414189,GSM414192,GSM414346,GSM414351,GSM414368/GSM414272,GSM414349,GSM414355,GSM414361,GSM414366	1			5		0	0	0	0	maplot				GPL8646		
10872487	mssa time 6 hour/mssa time 4 hour	GSE16488	GSM414193,GSM414199,GSM414348,GSM414360,GSM414365/GSM414189,GSM414192,GSM414346,GSM414351,GSM414368	1			5		0	0	0	0	maplot				GPL8646		
10841659	mssa time 4hour/mssa time 1hour	GSE16488	GSM414193,GSM414199,GSM414348,GSM414360,GSM414365/GSM414196,GSM414202,GSM414352,GSM414357,GSM414362	1			5		0	0	0	0	maplot				GPL8646		
10877625	mssa time 6 hour/mssa time 5 hour	GSE16488	GSM414193,GSM414199,GSM414348,GSM414360,GSM414365/GSM414197,GSM414270,GSM414353,GSM414358,GSM414363	1			5		0	0	0	0	maplot				GPL8646		
10854504	mssa time 6 hour/mssa time 2 hour	GSE16488	GSM414193,GSM414199,GSM414348,GSM414360,GSM414365/GSM414271,GSM414347,GSM414354,GSM414359,GSM414364	1			5		0	0	0	0	maplot				GPL8646		
10864780	mssa time 6 hour/mssa time 3 hour	GSE16488	GSM414193,GSM414199,GSM414348,GSM414360,GSM414365/GSM414272,GSM414349,GSM414355,GSM414361,GSM414366	1			5		0	0	0	0	maplot				GPL8646		
10869918	mssa time 5 hour/mssa time 4 hour	GSE16488	GSM414197,GSM414270,GSM414353,GSM414358,GSM414363/GSM414189,GSM414192,GSM414346,GSM414351,GSM414368	1			5		0	0	0	0	maplot				GPL8646		
10839090	mssa time2hour / mssa time1hour	GSE16488	GSM414197,GSM414270,GSM414353,GSM414358,GSM414363/GSM414196,GSM414202,GSM414352,GSM414357,GSM414362	1			5		0	0	0	0	maplot				GPL8646		
10851935	mssa time 5 hour/mssa time 2 hour	GSE16488	GSM414197,GSM414270,GSM414353,GSM414358,GSM414363/GSM414271,GSM414347,GSM414354,GSM414359,GSM414364	1			5		0	0	0	0	maplot				GPL8646		
10862211	mssa time 5 hour/mssa time 3 hour	GSE16488	GSM414197,GSM414270,GSM414353,GSM414358,GSM414363/GSM414272,GSM414349,GSM414355,GSM414361,GSM414366	1			5		0	0	0	0	maplot				GPL8646		
10875056	mssa time 9 hour/mssa time 4 hour	GSE16488	GSM414200,GSM414273,GSM414350,GSM414356,GSM414367/GSM414189,GSM414192,GSM414346,GSM414351,GSM414368	1			5		0	0	0	0	maplot				GPL8646		
10882763	mssa time 9 hour/mssa time 6 hour	GSE16488	GSM414200,GSM414273,GSM414350,GSM414356,GSM414367/GSM414193,GSM414199,GSM414348,GSM414360,GSM414365	1			5		0	0	0	0	maplot				GPL8646		
10844228	mssa time 9hour/mssa time 1hour	GSE16488	GSM414200,GSM414273,GSM414350,GSM414356,GSM414367/GSM414196,GSM414202,GSM414352,GSM414357,GSM414362	1			5		0	0	0	0	maplot				GPL8646		
10880194	mssa time 9 hour/mssa time 5 hour	GSE16488	GSM414200,GSM414273,GSM414350,GSM414356,GSM414367/GSM414197,GSM414270,GSM414353,GSM414358,GSM414363	1			5		0	0	0	0	maplot				GPL8646		
10857073	mssa time 9 hour/mssa time 2 hour	GSE16488	GSM414200,GSM414273,GSM414350,GSM414356,GSM414367/GSM414271,GSM414347,GSM414354,GSM414359,GSM414364	1			5		0	0	0	0	maplot				GPL8646		
10867349	mssa time 9 hour/mssa time 3 hour	GSE16488	GSM414200,GSM414273,GSM414350,GSM414356,GSM414367/GSM414272,GSM414349,GSM414355,GSM414361,GSM414366	1			5		0	0	0	0	maplot				GPL8646		
10831383	mssa time 6 hour/mssa time 1hour	GSE16488	GSM414271,GSM414347,GSM414354,GSM414359,GSM414364/GSM414196,GSM414202,GSM414352,GSM414357,GSM414362	1			5		0	0	0	0	maplot				GPL8646		
10833952	mssa time 5 hour/mssa time 1hour	GSE16488	GSM414272,GSM414349,GSM414355,GSM414361,GSM414366/GSM414196,GSM414202,GSM414352,GSM414357,GSM414362	1			5		0	0	0	0	maplot				GPL8646		
10846797	mssa time 3hour/mssa time 2hour	GSE16488	GSM414272,GSM414349,GSM414355,GSM414361,GSM414366/GSM414271,GSM414347,GSM414354,GSM414359,GSM414364	1			5		0	0	0	0	maplot				GPL8646		
26948904	samples with AMP (LL37)/ samples without AMP in 15min	GSE16491	GSM414380	2			1		0	0	0	0	mbplot				GPL9459		
26950611	samples with AMP(LL37) / samples without AMP in 30min	GSE16491	GSM414389	2			1		0	0	0	0	mbplot				GPL9459		
26954029	samples with AMP (nisin)/ samples without AMP in 30min	GSE16491	GSM414390	2			1		0	0	0	0	mbplot				GPL9459		
26952320	samples with AMP(nisin) / samples without AMP in 15 min	GSE16491	GSM414391	2			1		0	0	0	0	mbplot				GPL9459		
26945490	samples with AMP(with bacitracin) / samples without AMP 15min	GSE16491	GSM414394	2			1		0	0	0	0	mbplot				GPL9459		
26947197	samples with AMP(bacitracin) / samples without AMP in 30min	GSE16491	GSM414397	2			1		0	0	0	0	mbplot				GPL9459		
10719326	overexpress MicC with pBAD_MicC / control pBAD vector	GSE16540	GSM415411,GSM415412,GSM415413/GSM415384,GSM415385,GSM415398	1			2		1	1	0	0	maplot				GPL5780		
25204593	ada vs. wildtype	GSE16565	GSM417049	2			1		0	0	0	0	mbplot				GPL5475		NC_000913
25211043	wt + MMS  / wt - MMS ( .5 h )	GSE16565	GSM417435	2			1		0	0	0	0	mbplot				GPL5475		NC_000913
25215534	wt + MMS / wt - MMS ( 1.5 h )	GSE16565	GSM417436	2			1		0	0	0	0	mbplot				GPL5475		NC_000913
25221971	wt + MMS / wt - MMS ( 3.9 h )	GSE16565	GSM417437	2			1		0	0	0	0	mbplot				GPL5475		NC_000913
25226462	ada + MMS / ada - MMS ( .5 h )	GSE16565	GSM417438	2			1		0	0	0	0	mbplot				GPL5475		NC_000913
25230953	ada + MMS / ada - MMS ( 1.5 h )	GSE16565	GSM417439	2			1		0	0	0	0	mbplot				GPL5475		NC_000913
25235444	ada + MMS / ada - MMS ( 3.9 h )	GSE16565	GSM417440	2			1		0	0	0	0	mbplot				GPL5475		NC_000913
10237797	M. tuberculosis culture at 0h, untreated / M. tuberculosis culture at 0h, untreated	GSE16626	GSM417441,GSM417442	2			1		0	0	0	0	mbplot				GPL8559		
10240363	M. tuberculosis culture at 1h, treated with 1XMIC / M. tuberculosis culture at 1h, untreated	GSE16626	GSM417443,GSM417444	2			1		0	0	0	0	mbplot				GPL8559		
10242929	M. tuberculosis culture at 1h, treated with 4XMIC / M. tuberculosis culture at 1h, untreated	GSE16626	GSM417445,GSM417446	2			1		0	0	0	0	mbplot				GPL8559		
10245495	M. tuberculosis culture at 2h, treated with 1XMIC / M. tuberculosis culture at 2h, untreated	GSE16626	GSM417447,GSM417448	2			1		0	0	0	0	mbplot				GPL8559		
10248061	M. tuberculosis culture at 2h, treated with 4XMIC / M. tuberculosis culture at 2h, untreated	GSE16626	GSM417449,GSM417450	2			1		0	0	0	0	mbplot				GPL8559		
10250627	M. tuberculosis culture at 4h, treated with 1XMIC / M. tuberculosis culture at 4h, untreated	GSE16626	GSM417451,GSM417452	2			1		0	0	0	0	mbplot				GPL8559		
10253193	M. tuberculosis culture at 4h, treated with 4XMIC / M. tuberculosis culture at 4h, untreated	GSE16626	GSM417453,GSM417454	2			1		0	0	0	0	mbplot				GPL8559		
10255759	M. tuberculosis culture at 6h, treated with 1XMIC / M. tuberculosis culture at 6h, untreated	GSE16626	GSM417455,GSM417456	2			1		0	0	0	0	mbplot				GPL8559		
10258325	M. tuberculosis culture at 6h, treated with 4XMIC / M. tuberculosis culture at 6h, untreated	GSE16626	GSM417457,GSM417458	2			1		0	0	0	0	mbplot				GPL8559		
25239935	Inside Acanthamoeba / Outside Control	GSE16762	GSM420170,GSM420171,GSM420175,GSM420176,GSM420177,GSM420178,GSM420180,GSM420181,GSM420182	2			4		0	0	0	0	mbplot				GPL6272		NC_002655
8115319	knockoutdosS, anaerobic dormancy model day 6 / wild type, anaerobic dormancy model day 6	GSE16811	GSM422038,GSM422039,GSM422040	2			1		0	0	0	0	mbplot				GPL8768		
8150223	knock out dosT, anaerobic dormancy model day 6 / wild type, anaerobic dormancy model day 6	GSE16811	GSM422041,GSM422042,GSM422043	2			1		0	0	0	0	mbplot				GPL8768		
8132771	knockout bothdosS/T, anaerobic dormancy model day 6 / wild type, anaerobic dormancy model day 6	GSE16811	GSM422044,GSM422045,GSM422046	2			1		0	0	0	0	mbplot				GPL8768		
8119682	knockout both dosS/T pDosT, anaerobic dormancy model day 6 / wild type, anaerobic dormancy model day 6	GSE16811	GSM422047,GSM422048,GSM422049	2			1		0	0	0	0	mbplot				GPL8768		
8141497	knockout dosT, 4 hours gaspak treatment / wild type, 4 hours gaspak treatment	GSE16811	GSM422050,GSM422051,GSM422052	2			1		0	0	0	0	mbplot				GPL8768		
8106593	knockoutdosS-4 hours gaspak treatment / wild type-4 hours gaspak treatment	GSE16811	GSM422053,GSM422054	2			1		0	0	0	0	mbplot				GPL8768		
8128408	knockout both dosS/T, 4 hours gaspak treatment / wild type, 4 hours gaspak treatment	GSE16811	GSM422055,GSM422056,GSM422057	2			1		0	0	0	0	mbplot				GPL8768		
8137134	knockoutdosT, 24 hours gaspak treatment / wild type, 24 hours gaspak treatment	GSE16811	GSM422058,GSM422059,GSM422060	2			1		0	0	0	0	mbplot				GPL8768		
8102230	knockoutdosS-24 hours gaspak treatment / wild type-24 hours gaspak treatment	GSE16811	GSM422061,GSM422062,GSM422063	2			1		0	0	0	0	mbplot				GPL8768		
8124045	knockout bothdosS/T, 24 hours gaspak treatment / wild type, 24 hours gaspak treatment	GSE16811	GSM422064,GSM422065,GSM422066	2			1		0	0	0	0	mbplot				GPL8768		
8110956	knockoutdosS,log phase1 hour  with the addition of a nitric oxide donor / wild type, log phase 1 hour with the addition of a nitric oxide donor	GSE16811	GSM422067,GSM422068,GSM422069,GSM422070	2			1		0	0	0	0	mbplot				GPL8768		
8145860	knockout dosT, log lphase 1hour with the addition of a nitric oxide donor  / wild type, log phase 1hour with the addition of a nitric oxide donor	GSE16811	GSM422071,GSM422072,GSM422073	2			1		0	0	0	0	mbplot				GPL8768		
30424591	untreated / treated with CMPD	GSE16887	GSM423310	2			1		0	0	0	0	mbplot				GPL5029		
29676694	Streptomyces avermitilis 8165aveI deletion mutant day 5/ Streptomyces avermitilis NRRL8165  day 5	GSE16892	GSM423350/GSM423349	1			1		1	1	0	0	maplot				GPL8780		
29669048	Streptomyces avermitilis 8165aveI deletion mutant day 10/ Streptomyces avermitilis NRRL8165  day 10	GSE16892	GSM423350/GSM423352	1			1		1	1	0	0	maplot				GPL8780		
29684340	Streptomyces avermitilis 8165aveI deletion mutant day 7/ Streptomyces avermitilis NRRL8165 day 7	GSE16892	GSM423352/GSM423351	1			1		1	1	0	0	maplot				GPL8780		
29073678	Streptomyces avermitilis 8165aveI deletion mutant day 10/ Streptomyces avermitilis 8165 aveI deletion mutant day 7	GSE16892	GSM423354/GSM423350	1			1		1	1	0	0	maplot				GPL8780		
29653756	Streptomyces avermitilis 8165aveI deletion mutant day 10/ Streptomyces avermitilis 8165 aveI deletion mutant day 5	GSE16892	GSM423354/GSM423352	1			1		1	1	0	0	maplot				GPL8780		
29661402	Streptomyces avermitilis 8165aveI deletion mutant day 5/ Streptomyces avermitilis 8165 aveI deletion mutant day 7	GSE16892	GSM423354/GSM423353	1			1		1	1	0	0	maplot				GPL8780		
25245343	0 min, butanol / unstressed	GSE16973	GSM424867,GSM424868,GSM424869	2			1		0	0	0	0	mbplot				GPL8811		NC_000913
25249848	30 min, butanol / unstressed	GSE16973	GSM424870,GSM424871,GSM424872	2			1		0	0	0	0	mbplot				GPL8811		NC_000913
25254353	80 min, butanol / unstressed	GSE16973	GSM424873,GSM424874,GSM424875	2			1		0	0	0	0	mbplot				GPL8811		NC_000913
25258858	195 min, butanol / unstressed	GSE16973	GSM424876,GSM424877,GSM424878	2			1		0	0	0	0	mbplot				GPL8811		NC_000913
25263363	FRIK966 / EDL933 rep 1, 3	GSE17070	GSM427056,GSM427076	2	17	22	5	10	1	1	0	0	mbplot				GPL8845		NC_002655
25268779	FRIK2000 / EDL933 rep 1, 3	GSE17070	GSM427078,GSM427081	2	17	22	5	10	1	1	0	0	maplot				GPL8845		NC_002655
7210395	Mtb PDIM negative isolate 4 / Mtb PDIM positive isolate 8	GSE17232	GSM431498,GSM431499	2			1		1	0	1	0	mbplot				GPL8893		
7214759	Mtb PDIM negative isolate 3 / Mtb PDIM positive isolate 20	GSE17232	GSM431500,GSM431501	2			1		1	0	1	0	mbplot				GPL8893		
25274195	Sakai vs TW14359	GSE17389	GSM434476	2			2		0	0	0	0	mbplot				GPL7445		NC_002655
25279648	rpoS /WT (exponential)	GSE17420	GSM434737,GSM434738,GSM434739/GSM434734,GSM434735,GSM434736	1			1		0	0	0	0	mbplot				GPL3154	NC_002655	NC_002655
25290817	stationary phase / exponential phase (WT)	GSE17420	GSM434740,GSM434741,GSM434742/GSM434734,GSM434735,GSM434736	1			1		0	0	0	0	mbplot				GPL3154	NC_002655	NC_002655
25301986	stationary phase / exponential phase (rpoS)	GSE17420	GSM434743,GSM434744,GSM434745/GSM434737,GSM434738,GSM434739	1			1		0	0	0	0	mbplot				GPL3154	NC_002655	NC_002655
25311209	rpoS / WT (stationary phase)	GSE17420	GSM434743,GSM434744,GSM434745/GSM434740,GSM434741,GSM434742	1			1		0	0	0	0	mbplot				GPL3154	NC_002655	NC_002655
25320432	NTG-treated  / control ( - triclosan)	GSE17441	GSM435073	2			1		0	0	0	0	mbplot				GPL5482		NC_000913
25324854	NTG-treated / control ( + triclosan)	GSE17441	GSM435074	2			1		0	0	0	0	mbplot				GPL5482		NC_000913
25329276	rpoN mutant / wt (logarithmic)	GSE17467	GSM435805,GSM435806,GSM435807,GSM435808	2			1		0	0	0	0	mbplot				GPL7445		NC_002695
25339538	rpoN mutant / wt (transition)	GSE17467	GSM435809,GSM435810,GSM435811,GSM435812	2			1		0	0	0	0	mbplot				GPL7445		NC_002695
25349800	Recombinant T1 / Recombinant T0	GSE17505	GSM436463,GSM436464,GSM436465/GSM436460,GSM436461,GSM436462	1			1		1	1	0	0	mbplot				GPL199	NC_000913	NC_000913
25354403	Recombinant T4 / Recombinant T0	GSE17505	GSM436466,GSM436467,GSM436468/GSM436460,GSM436461,GSM436462	1			1		1	1	0	0	mbplot				GPL199	NC_000913	NC_000913
25359006	Recombinant T1 + IPTG / Recombinant T0	GSE17505	GSM436469,GSM436470,GSM436471/GSM436460,GSM436461,GSM436462	1			1		1	1	0	0	mbplot				GPL199	NC_000913	NC_000913
25363609	Recombinant T4 + IPTG / Recombinant T0	GSE17505	GSM436472,GSM436473,GSM436474/GSM436460,GSM436461,GSM436462	1			1		1	1	0	0	mbplot				GPL199	NC_000913	NC_000913
25368212	wt T1 / wt T0	GSE17505	GSM436478,GSM436479,GSM436480/GSM436475,GSM436476,GSM436477	1			1		1	1	0	0	mbplot				GPL199	NC_000913	NC_000913
25372815	wt T4 / wt T0	GSE17505	GSM436481,GSM436482,GSM436483/GSM436475,GSM436476,GSM436477	1			1		1	1	0	0	mbplot				GPL199	NC_000913	NC_000913
25379364	wt T1 + IPTG / wt T0	GSE17505	GSM436484,GSM436485,GSM436486/GSM436475,GSM436476,GSM436477	1			1		1	1	0	0	mbplot				GPL199	NC_000913	NC_000913
25385828	wt  T4 + IPTG / wt T0	GSE17505	GSM436487,GSM436488,GSM436489/GSM436475,GSM436476,GSM436477	1			1		1	1	0	0	mbplot				GPL199	NC_000913	NC_000913
25390516	serine hydroxamate T1  / recombinant T0	GSE17506	GSM436490,GSM436491,GSM436492/GSM436460,GSM436461,GSM436462	1			1		1	1	0	0	mbplot				GPL199	NC_000913	NC_000913
25396588	Heat-Shocked 15 min / Recombinant T0	GSE17507	GSM436493,GSM436494,GSM436495/GSM436460,GSM436461,GSM436462	1			1		1	1	0	0	mbplot				GPL199	NC_000913	NC_000913
25401668	Heat-Shocked 15 min + IPTG / Recombinant T0	GSE17507	GSM436496,GSM436497,GSM436498/GSM436460,GSM436461,GSM436462	1			1		1	1	0	0	mbplot				GPL199	NC_000913	NC_000913
25406271	0.5% (w/v) sodiumbenzoate_0min / 0% sodiumbenzoate_0min	GSE17519	GSM436569,GSM436572/GSM436542,GSM436549	1			1		1	0	0	0	mbplot				GPL3154	NC_002655	NC_002655
25415494	0.5% (w/v) sodiumbenzoate_5min / 0% sodiumbenzoate_5min	GSE17519	GSM436588,GSM436617/GSM436574,GSM436577	1			1		1	0	0	0	mbplot				GPL3154	NC_002655	NC_002655
25424717	0.5% (w/v) sodiumbenzoate_15min / 0% sodiumbenzoate_15min	GSE17519	GSM436620,GSM436621/GSM436618,GSM436619	1			1		1	1	0	0	mbplot				GPL3154	NC_002655	NC_002655
25434139	0.5% (w/v) sodiumbenzoate_30min / 0% sodiumbenzoate_30min	GSE17519	GSM436624,GSM436625/GSM436622,GSM436623	1			1		1	0	0	0	mbplot				GPL3154	NC_002655	NC_002655
25445109	0.5% (w/v) sodiumbenzoate_60min / 0% sodiumbenzoate_60min	GSE17519	GSM436628,GSM436629/GSM436626,GSM436627	1			1		1	1	0	0	mbplot				GPL3154	NC_002655	NC_002655
25454332	Crp* + Glucose / WT + Glucose	GSE17584	GSM438117,GSM438118,GSM438119,GSM438120,GSM438121/GSM438111,GSM438112,GSM438113	1			1		1	1	0	0	mbplot				GPL3154	NC_000913	NC_000913
25466568	Crp* / WT	GSE17584	GSM438122,GSM438123,GSM438124/GSM438114,GSM438115,GSM438116	1			1		1	1	0	0	mbplot				GPL3154	NC_000913	NC_000913
7197612	Treated with 2 ug/ml garlic (Allium stipitatum) extract for 6hrs / Control exposed to DMSO for 6hrs	GSE17640	GSM440246,GSM440248	2	6		5		1	1	0	0	mbplot				GPL9036		
7201873	Treated with 5 ug/ml garlic (Allium stipitatum) extract for 6hrs / Control exposed to DMSO for 6hrs	GSE17640	GSM440247	2	6		5		1	1	0	0	mbplot				GPL9036		
7206134	Treated with 10 ug/ml garlic (Allium stipitatum) extract for 6hrs / Control exposed to DMSO for 6hrs	GSE17640	GSM440249	2	6		5		1	1	0	0	mbplot				GPL9036		
26866159	PEL mutant, exponential phase / WT, exponential phase	GSE17767	GSM443787,GSM443788,GSM443789/GSM443784,GSM443785,GSM443786	1			1		1	1	0	0	maplot				GPL9080		
26864415	PEL mutant, exponential phase / PEL mutant, stationary phase	GSE17767	GSM443787,GSM443788,GSM443789/GSM443793,GSM443794,GSM443795	1			1		1	1	0	0	maplot				GPL9080		
26867903	PEL mutant, stationary phase / WT, stationary phase	GSE17767	GSM443793,GSM443794,GSM443795/GSM443790,GSM443791,GSM443792	1			1		1	1	0	0	maplot				GPL9080		
29900514	arcZ mutant strain(with pJV300) / wildtype (with pJV300)	GSE17771	GSM443806,GSM443807,GSM443808/GSM443803,GSM443804,GSM443805	1			2		1	1	0	0	maplot				GPL5780		
29904844	ArcZ pulse expression:with pBAD-ArcZ / control with pBAD-control	GSE17771	GSM443822,GSM443823,GSM443824/GSM443809,GSM443810,GSM443820	1			2		1	1	0	0	maplot				GPL5780		
29896184	arcZ overexpress(using pArcZ) /arcZ control(pJV300)	GSE17771	GSM443825,GSM443826,GSM443827/GSM443806,GSM443807,GSM443808	1			2		1	1	0	0	maplot				GPL5780		
25478804	LY180 + furfural / LY180	GSE17786	GSM443991,GSM443995/GSM443990,GSM443994	1			1		0	0	0	0	mbplot				GPL9088	NC_000913	NC_000913
25483222	EMFR9 + furfural / EMFR9	GSE17786	GSM443993,GSM443997/GSM443992,GSM443996	1			1		0	0	0	0	mbplot				GPL9088	NC_000913	NC_000913
25487640	LY180 del yqhC / LY180	GSE17788	GSM444007/GSM444006	1			1		1	1	0	0	mbplot				GPL9088	NC_000913	NC_000913
25492058	LY180   furfural / LY180	GSE17788	GSM444008/GSM444006	1			1		1	1	0	0	mbplot				GPL9088	NC_000913	NC_000913
25496476	LY180 del yqhC   furfural / LY180 del yqhC	GSE17788	GSM444009/GSM444007	1			1		1	1	0	0	mbplot				GPL9088	NC_000913	NC_000913
25500894	LY180 del yqhC   furfural / LY180   furfural	GSE17788	GSM444009/GSM444008	1			1		1	1	0	0	mbplot				GPL9088	NC_000913	NC_000913
25505312	E. coli DST160, tolerant to high succinic acid concentration / E. coli W3110 WT	GSE17991	GSM396441,GSM455500	2			1		0	0	0	0	mbplot				GPL5482		NC_000913
9973835	Salmonella 30C Control/ Salmonella 42C Treatment	GSE18089	GSM452201,GSM452203,GSM452205	2			1		0	0	0	0	mbplot				GPL9181		
9992458	Salmonella Control Cy3/ Salmonella 48C Treatment Cy5	GSE18089	GSM452207,GSM452209,GSM452211	2			1		0	0	0	0	mbplot				GPL9181		
9997767	Salmonella Control Cy5 / Salmonella  48C Treatment Cy3	GSE18089	GSM452208,GSM452210,GSM452212	2			1		0	0	0	0	mbplot				GPL9181		
25509733	qseA deletion mutant / wild-type	GSE18118	GSM452795/GSM452798	1			1		1	1	0	0	mbplot				GPL3154	NC_002655	NC_002655
19164562	exponential phase planktonic culture pknB mutant / exponential phase planktonic culture wild type	GSE18355	GSM458137,GSM458138,GSM458139	2			1		0	0	0	0	mbplot				GPL9332		
25518956	Biofilm / Planktonic	GSE18362	GSM458187,GSM458189/GSM458188,GSM458190	1			1		1	1	0	0	mbplot				GPL189	NC_000913	NC_000913
26133529	L. monocytogenes EGD-e Dlmo0096-0098 (mutant) / L. monocytogenes EGD-e (wildtype)	GSE18363	GSM458191,GSM458192,GSM458193	2			1		0	0	0	0	mbplot				GPL6554		
26133644	L. monocytogenes EGD-e Dlmo0781-0784 (mutant) / L. monocytogenes EGD-e (wildtype)	GSE18363	GSM458194,GSM458195,GSM458196	2			1		0	0	0	0	mbplot				GPL6554		
26134334	L. monocytogenes EGD-e DManPTS (mutant) / L. monocytogenes EGD-e (wildtype)	GSE18363	GSM458197,GSM458198	2			1		0	0	0	0	mbplot				GPL6554		
26134219	L. monocytogenes EGD-e DManPTS Dlmo0027 (mutant) / L. monocytogenes EGD-e (wildtype)	GSE18363	GSM458200,GSM458201,GSM458202	2			1		0	0	0	0	mbplot				GPL6554		
26134104	L. monocytogenes EGD-e Dlmo2683-2685 (mutant) / L. monocytogenes EGD-e (wildtype)	GSE18363	GSM458203,GSM458204,GSM458205	2			1		0	0	0	0	mbplot				GPL6554		
26133989	L. monocytogenes EGD-e Dlmo2683-2685 Dlmo0027 (mutant) / L. monocytogenes EGD-e (wildtype)	GSE18363	GSM458206,GSM458207,GSM458208	2			1		0	0	0	0	mbplot				GPL6554		
26133759	L. monocytogenes EGD-e Dlmo0785 (mutant) / L. monocytogenes EGD-e (wildtype)	GSE18363	GSM458209,GSM458210,GSM458211	2			1		0	0	0	0	mbplot				GPL6554		
26133874	L. monocytogenes EGD-e Dlmo1721 (mutant) / L. monocytogenes EGD-e (wildtype)	GSE18363	GSM458212,GSM458213,GSM458214	2			1		0	0	0	0	mbplot				GPL6554		
10427721	WT_MEP / Reference genomic DNA	GSE18424	GSM459105,GSM459106,GSM459107,GSM459108	2	1		2		1	1	0	0	mbplot				GPL9091		
10359459	StpA_MEP / Reference genomic DNA	GSE18424	GSM459109,GSM459110,GSM459111,GSM459112	2	1		2		1	1	0	0	mbplot				GPL9091		
10291201	StpA_LEP/ Reference genomic DNA	GSE18424	GSM459113,GSM459114,GSM459115,GSM459116	2	1		2		1	1	0	0	mbplot				GPL9091		
10410914	WT_LEP / Reference genomic DNA	GSE18424	GSM459117,GSM459118,GSM459119,GSM459120	2	1		2		1	1	0	0	mbplot				GPL9091		
10286871	StpA_EEP / Reference genomic DNA	GSE18424	GSM459239,GSM459240,GSM459241	2	1		2		1	1	0	0	mbplot				GPL5780		
10376441	StpA_Stat/ Reference genomic DNA	GSE18424	GSM459242,GSM459243,GSM459244	2	1		2		1	1	0	0	mbplot				GPL5780		
10393832	WT_EEP / Reference genomic DNA	GSE18424	GSM459245,GSM459246,GSM459247	2	1		2		1	1	0	0	mbplot				GPL5780		
10431884	WT_Stat/ Reference genomic DNA	GSE18424	GSM459248,GSM459271,GSM459272	2	1		2		1	1	0	0	mbplot				GPL5780		
8556054	MTB1254 WT / MTB1254 Rv3662c-3665c KOexperiment 2 OD 1.0	GSE18426	GSM459284,GSM459298,GSM459299,GSM459311	2			52		0	0	0	0	mbplot				GPL9357		
8559961	MTB1254 WT / MTB1254 Rv3662c-3665c KO experiment2 OD 1.5	GSE18426	GSM459285,GSM459294,GSM459300,GSM459302	2			52		0	0	0	0	mbplot				GPL9357		
8548240	MTB 1254 Rv3662c-3665c  (Opp) KO::complemented/ MTB1254 Rv3662c-3665c KO OD 1.5	GSE18426	GSM459286,GSM459289,GSM459295,GSM459297,GSM459307	2			52		0	0	0	0	mbplot				GPL9357		
8540426	MTB1254 WT / MTB1254 Rv3662c-3665c KO in OD0.3	GSE18426	GSM459287,GSM459305,GSM459306,GSM459308	2			52		0	0	0	0	mbplot				GPL9357		
8536519	MTB 1254 Rv3662c-3665c  (Opp) KO::complemented / MTB1254 Rv3662c-3665c KO at OD 1.0	GSE18426	GSM459288,GSM459293,GSM459310,GSM459312	2			52		0	0	0	0	mbplot				GPL9357		
8544333	MTB1254 WT / MTB1254 Rv3662c-3665c KO OD 1.0	GSE18426	GSM459290,GSM459291,GSM459304,GSM459309,GSM459313,GSM459314	2			52		0	0	0	0	mbplot				GPL9357		
8552147	MTB1254 WT / MTB1254 Rv3662c-3665c KO experiment2 in OD0.3	GSE18426	GSM459292,GSM459296,GSM459301,GSM459303	2			52		0	0	0	0	mbplot				GPL9357		
10643252	StpA_MEP(stpA deletion) / WT_MEP(wildtype)	GSE18428	GSM459124,GSM459125,GSM459126/GSM459121,GSM459122,GSM459123	1			1		1	1	0	0	maplot				GPL9091		
10655741	StpA_MEP(stpA deletion) / StpARpoS_MEP(stpA and rpoS deletion)	GSE18428	GSM459124,GSM459125,GSM459126/GSM459130,GSM459131,GSM459132	1			1		1	1	0	0	maplot				GPL9091		
29892021	RpoS_MEP(rpoS deletion) / WT_MEP(wildtype)	GSE18428	GSM459127,GSM459128,GSM459129/GSM459121,GSM459122,GSM459123	1			4		0	0	0	0	mbplot				GPL9091		
10639089	RpoS_MEP(rpoS deletion) / WT_MEP(wildtype)	GSE18428	GSM459127,GSM459128,GSM459129/GSM459121,GSM459122,GSM459123	1			1		1	1	0	0	maplot				GPL9091		
10659904	RpoS_MEP(rpoS deletion) / StpA_MEP(stpA deletion)	GSE18428	GSM459127,GSM459128,GSM459129/GSM459124,GSM459125,GSM459126	1			1		1	1	0	0	maplot				GPL9091		
10651578	RpoS_MEP(rpoS deletion) / StpARpoS_MEP(stpA and rpoS deletion)	GSE18428	GSM459127,GSM459128,GSM459129/GSM459130,GSM459131,GSM459132	1			1		1	1	0	0	maplot				GPL9091		
10647415	StpARpoS_MEP(stpA and rpoS deletion) / WT_MEP(wildtype)	GSE18428	GSM459130,GSM459131,GSM459132/GSM459121,GSM459122,GSM459123	1			1		1	1	0	0	maplot				GPL9091		
6993922	Cellobiose / Glucose	GSE18471	GSM459922,GSM459923,GSM459939/GSM459919,GSM459920,GSM459921	1			1		0	1	0	0	maplot				GPL9387		
6995515	Cellobiose / Galactose	GSE18471	GSM459922,GSM459923,GSM459939/GSM459940,GSM459941,GSM459942	1			1		0	1	0	0	maplot				GPL9387		
7011997	Cellobiose / Mannose	GSE18471	GSM459922,GSM459923,GSM459939/GSM459970,GSM459999,GSM460000	1			1		0	1	0	0	maplot				GPL9387		
7020251	Cellobiose / Maltose	GSE18471	GSM459922,GSM459923,GSM459939/GSM460001,GSM460002,GSM460003	1			1		0	1	0	0	maplot				GPL9387		
7013236	Cellobiose / Fructose	GSE18471	GSM459922,GSM459923,GSM459939/GSM460004,GSM460005,GSM460006	1			1		0	1	0	0	maplot				GPL9387		
7019366	Cellobiose / Lactose	GSE18471	GSM459922,GSM459923,GSM459939/GSM460010,GSM460011,GSM460012	1			1		0	1	0	0	maplot				GPL9387		
6993037	Galactose / Glucose	GSE18471	GSM459940,GSM459941,GSM459942/GSM459919,GSM459920,GSM459921	1			1		0	1	0	0	maplot				GPL9387		
6994630	Starch / Glucose	GSE18471	GSM459943,GSM459944,GSM459945/GSM459919,GSM459920,GSM459921	1			1		0	1	0	0	maplot				GPL9387		
7025349	Starch / Cellobiose	GSE18471	GSM459943,GSM459944,GSM459945/GSM459922,GSM459923,GSM459939	1			1		0	1	0	0	maplot				GPL9387		
6996223	Starch / Galactose	GSE18471	GSM459943,GSM459944,GSM459945/GSM459940,GSM459941,GSM459942	1			1		0	1	0	0	maplot				GPL9387		
7027197	Starch / Sucrose	GSE18471	GSM459943,GSM459944,GSM459945/GSM459946,GSM459947,GSM459948	1			1		0	1	0	0	maplot				GPL9387		
7027551	Starch / Arabinose	GSE18471	GSM459943,GSM459944,GSM459945/GSM459949,GSM459950,GSM459969	1			1		0	1	0	0	maplot				GPL9387		
7012705	Starch / Mannose	GSE18471	GSM459943,GSM459944,GSM459945/GSM459970,GSM459999,GSM460000	1			1		0	1	0	0	maplot				GPL9387		
7020959	Starch / Maltose	GSE18471	GSM459943,GSM459944,GSM459945/GSM460001,GSM460002,GSM460003	1			1		0	1	0	0	maplot				GPL9387		
7014535	Starch / Fructose	GSE18471	GSM459943,GSM459944,GSM459945/GSM460004,GSM460005,GSM460006	1			1		0	1	0	0	maplot				GPL9387		
7027728	Starch / Xylose	GSE18471	GSM459943,GSM459944,GSM459945/GSM460007,GSM460008,GSM460009	1			1		0	1	0	0	maplot				GPL9387		
7020074	Starch / Lactose	GSE18471	GSM459943,GSM459944,GSM459945/GSM460010,GSM460011,GSM460012	1			1		0	1	0	0	maplot				GPL9387		
6994099	Sucrose / Glucose	GSE18471	GSM459946,GSM459947,GSM459948/GSM459919,GSM459920,GSM459921	1			1		0	1	0	0	maplot				GPL9387		
7021136	Sucrose / Cellobiose	GSE18471	GSM459946,GSM459947,GSM459948/GSM459922,GSM459923,GSM459939	1			1		0	1	0	0	maplot				GPL9387		
6995692	Sucrose / Galactose	GSE18471	GSM459946,GSM459947,GSM459948/GSM459940,GSM459941,GSM459942	1			1		0	1	0	0	maplot				GPL9387		
7012174	Sucrose / Mannose	GSE18471	GSM459946,GSM459947,GSM459948/GSM459970,GSM459999,GSM460000	1			1		0	1	0	0	maplot				GPL9387		
7020428	Sucrose / Maltose	GSE18471	GSM459946,GSM459947,GSM459948/GSM460001,GSM460002,GSM460003	1			1		0	1	0	0	maplot				GPL9387		
7013413	Sucrose / Fructose	GSE18471	GSM459946,GSM459947,GSM459948/GSM460004,GSM460005,GSM460006	1			1		0	1	0	0	maplot				GPL9387		
7019543	Sucrose / Lactose	GSE18471	GSM459946,GSM459947,GSM459948/GSM460010,GSM460011,GSM460012	1			1		0	1	0	0	maplot				GPL9387		
6994276	Arabinose / Glucose	GSE18471	GSM459949,GSM459950,GSM459969/GSM459919,GSM459920,GSM459921	1			1		0	1	0	0	maplot				GPL9387		
7021313	Arabinose / Cellobiose	GSE18471	GSM459949,GSM459950,GSM459969/GSM459922,GSM459923,GSM459939	1			1		0	1	0	0	maplot				GPL9387		
6995869	Arabinose / Galactose	GSE18471	GSM459949,GSM459950,GSM459969/GSM459940,GSM459941,GSM459942	1			1		0	1	0	0	maplot				GPL9387		
7026843	Arabinose / Sucrose	GSE18471	GSM459949,GSM459950,GSM459969/GSM459946,GSM459947,GSM459948	1			1		0	1	0	0	maplot				GPL9387		
7012351	Arabinose / Mannose	GSE18471	GSM459949,GSM459950,GSM459969/GSM459970,GSM459999,GSM460000	1			1		0	1	0	0	maplot				GPL9387		
7020605	Arabinose / Maltose	GSE18471	GSM459949,GSM459950,GSM459969/GSM460001,GSM460002,GSM460003	1			1		0	1	0	0	maplot				GPL9387		
7013590	Arabinose / Fructose	GSE18471	GSM459949,GSM459950,GSM459969/GSM460004,GSM460005,GSM460006	1			1		0	1	0	0	maplot				GPL9387		
7019720	Arabinose / Lactose	GSE18471	GSM459949,GSM459950,GSM459969/GSM460010,GSM460011,GSM460012	1			1		0	1	0	0	maplot				GPL9387		
6993214	Mannose / Glucose	GSE18471	GSM459970,GSM459999,GSM460000/GSM459919,GSM459920,GSM459921	1			1		0	1	0	0	maplot				GPL9387		
6994807	Mannose / Galactose	GSE18471	GSM459970,GSM459999,GSM460000/GSM459940,GSM459941,GSM459942	1			1		0	1	0	0	maplot				GPL9387		
6993745	Maltose / Glucose	GSE18471	GSM460001,GSM460002,GSM460003/GSM459919,GSM459920,GSM459921	1			1		0	1	0	0	maplot				GPL9387		
6995338	Maltose / Galactose	GSE18471	GSM460001,GSM460002,GSM460003/GSM459940,GSM459941,GSM459942	1			1		0	1	0	0	maplot				GPL9387		
7011820	Maltose / Mannose	GSE18471	GSM460001,GSM460002,GSM460003/GSM459970,GSM459999,GSM460000	1			1		0	1	0	0	maplot				GPL9387		
7013059	Maltose / Fructose	GSE18471	GSM460001,GSM460002,GSM460003/GSM460004,GSM460005,GSM460006	1			1		0	1	0	0	maplot				GPL9387		
7019189	Maltose / Lactose	GSE18471	GSM460001,GSM460002,GSM460003/GSM460010,GSM460011,GSM460012	1			1		0	1	0	0	maplot				GPL9387		
6993391	Fructose / Glucose	GSE18471	GSM460004,GSM460005,GSM460006/GSM459919,GSM459920,GSM459921	1			1		0	1	0	0	maplot				GPL9387		
6994984	Fructose / Galactose	GSE18471	GSM460004,GSM460005,GSM460006/GSM459940,GSM459941,GSM459942	1			1		0	1	0	0	maplot				GPL9387		
7011466	Fructose / Mannose	GSE18471	GSM460004,GSM460005,GSM460006/GSM459970,GSM459999,GSM460000	1			1		0	1	0	0	maplot				GPL9387		
6994453	Xylose / Glucose	GSE18471	GSM460007,GSM460008,GSM460009/GSM459919,GSM459920,GSM459921	1			1		0	1	0	0	maplot				GPL9387		
7021490	Xylose / Cellobiose	GSE18471	GSM460007,GSM460008,GSM460009/GSM459922,GSM459923,GSM459939	1			1		0	1	0	0	maplot				GPL9387		
6996046	Xylose / Galactose	GSE18471	GSM460007,GSM460008,GSM460009/GSM459940,GSM459941,GSM459942	1			1		0	1	0	0	maplot				GPL9387		
7027020	Xylose / Sucrose	GSE18471	GSM460007,GSM460008,GSM460009/GSM459946,GSM459947,GSM459948	1			1		0	1	0	0	maplot				GPL9387		
7027374	Xylose / Arabinose	GSE18471	GSM460007,GSM460008,GSM460009/GSM459949,GSM459950,GSM459969	1			1		0	1	0	0	maplot				GPL9387		
7012528	Xylose / Mannose	GSE18471	GSM460007,GSM460008,GSM460009/GSM459970,GSM459999,GSM460000	1			1		0	1	0	0	maplot				GPL9387		
7020782	Xylose / Maltose	GSE18471	GSM460007,GSM460008,GSM460009/GSM460001,GSM460002,GSM460003	1			1		0	1	0	0	maplot				GPL9387		
7013767	Xylose / Fructose	GSE18471	GSM460007,GSM460008,GSM460009/GSM460004,GSM460005,GSM460006	1			1		0	1	0	0	maplot				GPL9387		
7019897	Xylose / Lactose	GSE18471	GSM460007,GSM460008,GSM460009/GSM460010,GSM460011,GSM460012	1			1		0	1	0	0	maplot				GPL9387		
6993568	Lactose / Glucose	GSE18471	GSM460010,GSM460011,GSM460012/GSM459919,GSM459920,GSM459921	1			1		0	1	0	0	maplot				GPL9387		
6995161	Lactose / Galactose	GSE18471	GSM460010,GSM460011,GSM460012/GSM459940,GSM459941,GSM459942	1			1		0	1	0	0	maplot				GPL9387		
7011643	Lactose / Mannose	GSE18471	GSM460010,GSM460011,GSM460012/GSM459970,GSM459999,GSM460000	1			1		0	1	0	0	maplot				GPL9387		
7012882	Lactose / Fructose	GSE18471	GSM460010,GSM460011,GSM460012/GSM460004,GSM460005,GSM460006	1			1		0	1	0	0	maplot				GPL9387		
7185234	Mycobacterium tuberculosis H37Rv Delta treS Delta glgE pMV361::treS aka mc27149 pMV361::treS / Mycobacterium tuberculosis H37Rv Delta treS Delta glgE pMV361 aka mc27149 pMV361	GSE18575	GSM462141,GSM462142,GSM462143	2			1		1	0	1	0	mbplot				GPL5774		
25523463	CHIR-090 / DMSO control	GSE18623	GSM462881,GSM462882,GSM462883/GSM462878,GSM462879,GSM462880	1			1		1	1	0	0	mbplot				GPL3154	NC_000913	NC_000913
10918167	agr mutant strain 252  / wild type strain 252	GSE18793	GSM466259,GSM466260,GSM466261/GSM466256,GSM466257,GSM466258	1			1		1	1	0	0	maplot				GPL8069		
10923279	agr mutant strain LAC  / wild type strain LAC	GSE18793	GSM466265,GSM466266,GSM466267/GSM466262,GSM466263,GSM466264	1			1		1	1	0	0	maplot				GPL8069		
10920723	agr mutant strain 6911 / wild type strain 6390	GSE18793	GSM466271,GSM466272,GSM466273/GSM466268,GSM466269,GSM466270	1			1		1	1	0	0	maplot				GPL8069		
25535699	hfq deletion / wt	GSE18852	GSM467153/GSM467152	1			1		1	1	0	0	mbplot				GPL3154	NC_000913	NC_000913
25547935	mgrR - / wt	GSE18935	GSM469139,GSM469140/GSM469137,GSM469138	1			1		1	0	0	0	mbplot				GPL3154	NC_000913	NC_000913
25560171	plasmid mgrR / plasmid control	GSE18935	GSM469143,GSM469144/GSM469141,GSM469142	1			1		1	0	0	0	mbplot				GPL3154	NC_000913	NC_000913
12759130	PycA mutant / Wild type EGDe	GSE19014	GSM470421,GSM470422,GSM470423,GSM470424	2			1		0	0	0	0	mbplot				GPL6846		
26875536	5448 WT, in vitro, 12h / 5448 AP, in vitro, 12h	GSE19103	GSM473346,GSM473347	2			1		0	0	0	0	mbplot				GPL9701		
26875657	5448 WT, in vitro, 18h / 5448 AP, in vitro, 18h	GSE19103	GSM473348,GSM473349,GSM473350,GSM473351,GSM473353,GSM473354	2			1		0	0	0	0	mbplot				GPL9701		
26875778	5448 WT, in vivo / 5448 AP, in vivo	GSE19103	GSM473355,GSM473356,GSM473357,GSM473358,GSM473359,GSM473360,GSM473361	2			1		0	0	0	0	mbplot				GPL9701		
26875899	5448 WT, in vitro / 5448 WT, in vivo	GSE19103	GSM473362,GSM473363,GSM473364,GSM473365,GSM473366,GSM473367,GSM473368	2			1		0	0	0	0	mbplot				GPL9701		
26875415	5448 AP, in vitro / 5448 AP, in vivo	GSE19103	GSM473369,GSM473370,GSM473371,GSM473372,GSM473373,GSM473374	2			1		0	0	0	0	mbplot				GPL9701		
7554375	13 grown in the presence of homocysteine / strain 13 grown in the presence of cystine	GSE19358	GSM480613,GSM480614,GSM480615,GSM480616,GSM480617,GSM480618	2			1		0	0	0	0	mbplot				GPL9765		
7521375	strain 13 delta cpe1786 erm grown with cystine / strain 13 grown with cystine	GSE19359	GSM480621,GSM480623,GSM480625	2			1		0	0	0	0	mbplot				GPL9765		
7527927	strain 13 delta cpe1786 erm grown with cystine / strain 13 grown with cystine (dye swap)	GSE19359	GSM480622,GSM480624,GSM480626	2			1		0	0	0	0	mbplot				GPL9765		
25572407	peroxynitrite / control	GSE19370	GSM480828,GSM480829,GSM480830,GSM480831,GSM480832,GSM480833	2			1		0	0	0	0	mbplot				GPL534		NC_000913
25576910	hydrogen peroxide / control	GSE19370	GSM480834,GSM480835,GSM480836,GSM480837,GSM480838,GSM480839	2			1		0	0	0	0	mbplot				GPL534		NC_000913
7937942	MDA 2D IT Nude / 14028 ON LB	GSE19609	GSM467935,GSM467937,GSM467939,GSM467944,GSM467945,GSM467949	2	3	4	15	16	1	1	0	0	mbplot				GPL6868		
7945664	PC3 2D IT Nude / 14028 ON LB	GSE19609	GSM467936,GSM467940,GSM467941,GSM467942,GSM467950,GSM467951	2	3	4	15	16	1	1	0	0	mbplot				GPL6868		
7951133	Liver 2D IV Nude / 14028 ON LB	GSE19609	GSM467938,GSM467947,GSM467952	2	3	4	15	16	1	1	0	0	mbplot				GPL6868		
7956359	Spleen 2D IV Nude / 14028 ON LB	GSE19609	GSM467943,GSM467946,GSM467948	2	3	4	15	16	1	1	0	0	mbplot				GPL6868		
7964324	Lung 2D IV Nude / 14028 ON LB	GSE19609	GSM468284,GSM468285,GSM468286	2	3	4	15	16	1	1	0	0	mbplot				GPL6868		
25581413	pFnrS / plasmid control	GSE19655	GSM490262,GSM490264,GSM490266/GSM490261,GSM490263,GSM490265	1			1		1	1	0	0	mbplot				GPL3154	NC_000913	NC_000913
26621161	wild-type mid-log RNA / wild-type mid-log RNA	GSE19656	GSM490267,GSM490268,GSM490269,GSM490270	2			1		0	0	0	0	mbplot				GPL5911		
26615323	spxA mid-log RNA / wild-type mid-log RNA	GSE19656	GSM490271,GSM490272,GSM490273,GSM490274	2			1		0	0	0	0	mbplot				GPL5911		
26619215	spxB mid-log RNA / wild-type mid-log RNA	GSE19656	GSM490275,GSM490276,GSM490277,GSM490278	2			1		0	0	0	0	mbplot				GPL5911		
26617269	spxAB mid-log RNA / wild-type mid-log RNA	GSE19656	GSM490279,GSM490280,GSM490281,GSM490282	2			1		0	0	0	0	mbplot				GPL5911		
25593649	Wild-type Cells / pooled reference RNA	GSE19742	GSM493002,GSM493003,GSM493004	2			1		0	0	0	0	mbplot				GPL9855		NC_000913
25597982	SHX-treated WT / pooled reference RNA	GSE19742	GSM493005,GSM493006,GSM493007	2			1		0	0	0	0	mbplot				GPL9855		NC_000913
25602315	Delta dksA Cells / pooled reference RNA	GSE19742	GSM493008,GSM493009,GSM493010	2			1		0	0	0	0	mbplot				GPL9855		NC_000913
25606648	SHX-treated Delta dksA Cells / pooled reference RNA	GSE19742	GSM493011,GSM493012,GSM493013	2			1		0	0	0	0	mbplot				GPL9855		NC_000913
25610981	reuterin / control	GSE19760	GSM493569,GSM493570,GSM493571,GSM493572,GSM493573	2			1		0	0	0	0	mbplot				GPL7445		NC_000913
26550317	Yersinia pestis CO92 LPP mutant cultured at 26?C / Yersinia pestis CO92 wild-type cultured at 26?C	GSE19840	GSM495712,GSM495713,GSM495714	2			1		0	0	0	0	mbplot				GPL4201		
26554768	Yersinia pestis CO92 LPP mutant cultured at 37?C / Yersinia pestis CO92 wild-type cultured at 37?C	GSE19840	GSM495715,GSM495716,GSM495717	2			1		0	0	0	0	mbplot				GPL4201		
25620244	EDL 933 with 0.1 mg/ml IAN / EDL 933 WT	GSE19842	GSM495719/GSM495718	1			1		1	1	0	0	mbplot				GPL3154	NC_002655	NC_002655
25629467	thymine limited - 15 / control - 0	GSE19879	GSM496909	2			1		0	0	0	0	mbplot				GPL3503		NC_000913
25633977	thymine limited - 30 / control - 0	GSE19879	GSM496910	2			1		0	0	0	0	mbplot				GPL3503		NC_000913
25638487	thymine limited - 45 / control - 0	GSE19879	GSM496911	2			1		0	0	0	0	mbplot				GPL3503		NC_000913
25642997	thymine limited - 60 / control - 0	GSE19879	GSM496912	2			1		0	0	0	0	mbplot				GPL3503		NC_000913
25647507	thymine limited - 90 / control - 0	GSE19879	GSM496913	2			1		0	0	0	0	mbplot				GPL3503		NC_000913
25652017	thymineless - 15 / control - 0	GSE19879	GSM496914,GSM496919	2			1		0	0	0	0	mbplot				GPL3503		NC_000913
25656527	thymineless - 30 / control - 0	GSE19879	GSM496915,GSM496920	2			1		0	0	0	0	mbplot				GPL3503		NC_000913
25661037	thymineless - 45 / control - 0	GSE19879	GSM496916,GSM496921	2			1		0	0	0	0	mbplot				GPL3503		NC_000913
25665547	thymineless - 60 / control - 0	GSE19879	GSM496917,GSM496922	2			1		0	0	0	0	mbplot				GPL3503		NC_000913
25670057	thymineless - 90 / control - 0	GSE19879	GSM496918,GSM496923	2			1		0	0	0	0	mbplot				GPL3503		NC_000913
30370903	EGD BHI broth, pH 5.0 / EGD BHI broth, pH 7.3	GSE19918	GSM497988,GSM497989,GSM497990,GSM497991	2			1		0	0	0	0	mbplot				GPL5334		
30376597	FW040025 BHI broth, pH 5.0 / FW040025 BHI broth, pH 7.3	GSE19918	GSM497992,GSM497993,GSM497994,GSM497995	2			1		0	0	0	0	mbplot				GPL5334		
30373750	EGD BHI broth, pH 5.0 21mM SDA / EGD BHI broth, pH 5.0	GSE19918	GSM497996,GSM497997,GSM497998,GSM497999	2			1		0	0	0	0	mbplot				GPL5334		
30379444	FW040025 BHI broth, pH 5.0 21mM SDA / FW040025 BHI broth, pH 5.0	GSE19918	GSM498000,GSM498001	2			1		0	0	0	0	mbplot				GPL5334		
25674567	O157:H7 86-24 / O157:H7 EDL933	GSE19953	GSM498648/GSM498647	1			1		1	1	0	0	mbplot				GPL3154	NC_002655	NC_002655
26848295	grown in human amnioic fluid at mid log phase / grown in THY at mid log phase	GSE19985	GSM499361,GSM499362,GSM499363/GSM499302,GSM499303,GSM499304	1			1		1	1	0	0	maplot				GPL9953		
26846556	grown in human amnioic fluid at mid log phase / grown in human amnioic fluid stationary phase	GSE19985	GSM499361,GSM499362,GSM499363/GSM499369,GSM499391,GSM499399	1			1		1	1	0	0	maplot				GPL9953		
26841339	grown in human amnioic fluid at late log phase / grown in THY at late log phase	GSE19985	GSM499364,GSM499365,GSM499367/GSM499305,GSM499306,GSM499313	1			1		1	1	0	0	maplot				GPL9953		
26843078	grown in human amnioic fluid at late log phase / grown in human amnioic fluid at mid log phase	GSE19985	GSM499364,GSM499365,GSM499367/GSM499361,GSM499362,GSM499363	1			1		1	1	0	0	maplot				GPL9953		
26844817	grown in human amnioic fluid at late log phase / grown in human amnioic fluid stationary phase	GSE19985	GSM499364,GSM499365,GSM499367/GSM499369,GSM499391,GSM499399	1			1		1	1	0	0	maplot				GPL9953		
26850034	grown in human amnioic fluid at stationary phase / grown in THY in stationary phase	GSE19985	GSM499369,GSM499391,GSM499399/GSM499314,GSM499315,GSM499360	1			1		1	1	0	0	maplot				GPL9953		
25683790	rpoS mutants / WT	GSE20095	GSM502096,GSM502097,GSM502098/GSM502093,GSM502094,GSM502095	1			1		1	1	0	0	mbplot				GPL3154	NC_000913	NC_000913
25696026	rpoN mutants / WT	GSE20095	GSM502099,GSM502100,GSM502101/GSM502093,GSM502094,GSM502095	1			1		1	1	0	0	mbplot				GPL3154	NC_000913	NC_000913
26885340	ccpA grown in mid-exponential phase in THY / MGAS2221 grown to mid-exponential phase in THY	GSE20212	GSM506860,GSM506861,GSM506862,GSM506863/GSM506856,GSM506857,GSM506858,GSM506859	1			1		1	1	0	0	maplot				GPL9080		
26881852	ccpA grown in mid-exponential phase in THY / covR grown in THY to mid-exponential phase	GSE20212	GSM506860,GSM506861,GSM506862,GSM506863/GSM506864,GSM506865,GSM506866,GSM506868	1			1		1	1	0	0	maplot				GPL9080		
26883596	ccpA grown in mid-exponential phase in THY/ covR ccpA grown to mid-exponential phase in THY	GSE20212	GSM506860,GSM506861,GSM506862,GSM506863/GSM506869,GSM506870,GSM506886,GSM506887	1			1		1	1	0	0	maplot				GPL9080		
26880108	ccpA grown in mid-exponential phase in THY / ccpA grown to stationary phase in THY	GSE20212	GSM506860,GSM506861,GSM506862,GSM506863/GSM506892,GSM506893,GSM506894,GSM506895	1			1		1	1	0	0	maplot				GPL9080		
26895804	covR grown to mid-exponential phase in THY /;MGAS2221 grown to mid-exponential phase in THY	GSE20212	GSM506864,GSM506865,GSM506866,GSM506868/GSM506856,GSM506857,GSM506858,GSM506859	1			1		1	1	0	0	maplot				GPL9080		
26894060	covR grown to mid-exponential phase in THY / covR ccpA grown to mid-exponential phase in THY	GSE20212	GSM506864,GSM506865,GSM506866,GSM506868/GSM506869,GSM506870,GSM506886,GSM506887	1			1		1	1	0	0	maplot				GPL9080		
26892316	covR grown to mid-exponential phase in THY / covR grown to stationary phase in THY	GSE20212	GSM506864,GSM506865,GSM506866,GSM506868/GSM506896,GSM506897,GSM506898,GSM506903	1			1		1	1	0	0	maplot				GPL9080		
26902780	covR ccpA grown to mid-exponential phase in THY / MGAS2221 grown to mid-exponential phase in THY	GSE20212	GSM506869,GSM506870,GSM506886,GSM506887/GSM506856,GSM506857,GSM506858,GSM506859	1			1		1	1	0	0	maplot				GPL9080		
26901036	covR ccpA grown to mid-exponential phase in THY / covR ccpA grown to stationary phase in THY	GSE20212	GSM506869,GSM506870,GSM506886,GSM506887/GSM506904,GSM506905,GSM506906,GSM506933	1			1		1	1	0	0	maplot				GPL9080		
26906268	MGAS2221 grown to stationary phase in THY / MGAS2221 grown to mid-exponential phase in THY	GSE20212	GSM506888,GSM506889,GSM506890,GSM506891/GSM506856,GSM506857,GSM506858,GSM506859	1			1		1	1	0	0	maplot				GPL9080		
26890572	ccpA grown to stationary phase in THY / MGAS2221 grown to stationary phase in THY	GSE20212	GSM506892,GSM506893,GSM506894,GSM506895/GSM506888,GSM506889,GSM506890,GSM506891	1			1		1	1	0	0	maplot				GPL9080		
26887084	ccpA grown to stationary phase in THY / covR grown to stationary phase in THY	GSE20212	GSM506892,GSM506893,GSM506894,GSM506895/GSM506896,GSM506897,GSM506898,GSM506903	1			1		1	1	0	0	maplot				GPL9080		
26888828	ccpA grown to stationary phase in THY / covR ccpA grown to stationary phase in THY	GSE20212	GSM506892,GSM506893,GSM506894,GSM506895/GSM506904,GSM506905,GSM506906,GSM506933	1			1		1	1	0	0	maplot				GPL9080		
26899292	covR grown to stationary phase in THY / MGAS2221 grown to stationary phase in THY	GSE20212	GSM506896,GSM506897,GSM506898,GSM506903/GSM506888,GSM506889,GSM506890,GSM506891	1			1		1	1	0	0	maplot				GPL9080		
26897548	covR grown to stationary phase in THY / covR ccpA grown to stationary phase in THY	GSE20212	GSM506896,GSM506897,GSM506898,GSM506903/GSM506904,GSM506905,GSM506906,GSM506933	1			1		1	1	0	0	maplot				GPL9080		
26904524	covR ccpA grown to stationary phase in THY / MGAS2221 grown to stationary phase in THY	GSE20212	GSM506904,GSM506905,GSM506906,GSM506933/GSM506888,GSM506889,GSM506890,GSM506891	1			1		1	1	0	0	maplot				GPL9080		
30358527	grow in Turkey deli meat/grow in BHI	GSE20274	GSM507969,GSM507970,GSM507971,GSM507972,GSM507973,GSM507974,GSM507975,GSM507976,GSM507977,GSM507978,GSM507979,GSM507980	2			1		0	0	0	0	mbplot				GPL5854		
5517084	cold stress T1 / control T1	GSE20305	GSM508925,GSM508933,GSM508941/GSM508949,GSM508957,GSM508965	1			1		1	1	0	0	mbplot				GPL10041	NC_000913	NC_000913
5521633	cold stress T2 / control T2	GSE20305	GSM508926,GSM508934,GSM508942/GSM508950,GSM508958,GSM508966	1			1		1	1	0	0	mbplot				GPL10041	NC_000913	NC_000913
5526182	cold stress T3 / control T3	GSE20305	GSM508927,GSM508935,GSM508943/GSM508951,GSM508959,GSM508967	1			1		1	1	0	0	mbplot				GPL10041	NC_000913	NC_000913
5530731	cold stress T4 / control T4	GSE20305	GSM508928,GSM508936,GSM508944/GSM508952,GSM508960,GSM508968	1			1		1	1	0	0	mbplot				GPL10041	NC_000913	NC_000913
5535280	cold stress T5 / control T5	GSE20305	GSM508929,GSM508937,GSM508945/GSM508953,GSM508961,GSM508969	1			1		1	1	0	0	mbplot				GPL10041	NC_000913	NC_000913
5539829	cold stress T6 / control T6	GSE20305	GSM508930,GSM508938,GSM508946/GSM508954,GSM508962,GSM508970	1			1		1	1	0	0	mbplot				GPL10041	NC_000913	NC_000913
5544378	cold stress T7 / control T7	GSE20305	GSM508931,GSM508939,GSM508947/GSM508955,GSM508963,GSM508971	1			1		1	1	0	0	mbplot				GPL10041	NC_000913	NC_000913
5548927	cold stress T8 / control T8	GSE20305	GSM508932,GSM508940,GSM508948/GSM508956,GSM508964,GSM508972	1			1		1	1	0	0	mbplot				GPL10041	NC_000913	NC_000913
5580770	heat stress T1 / control T1	GSE20305	GSM508973,GSM508981,GSM508989/GSM508949,GSM508957,GSM508965	1			1		1	1	0	0	mbplot				GPL10041	NC_000913	NC_000913
5585319	heat stress T2 / control T2	GSE20305	GSM508974,GSM508982,GSM508990/GSM508950,GSM508958,GSM508966	1			1		1	1	0	0	mbplot				GPL10041	NC_000913	NC_000913
5589868	heat stress T3 / control T3	GSE20305	GSM508975,GSM508983,GSM508991/GSM508951,GSM508959,GSM508967	1			1		1	1	0	0	mbplot				GPL10041	NC_000913	NC_000913
5594417	heat stress T4 / control T4	GSE20305	GSM508976,GSM508984,GSM508992/GSM508952,GSM508960,GSM508968	1			1		1	1	0	0	mbplot				GPL10041	NC_000913	NC_000913
5598966	heat stress T5 / control T5	GSE20305	GSM508977,GSM508985,GSM508993/GSM508953,GSM508961,GSM508969	1			1		1	1	0	0	mbplot				GPL10041	NC_000913	NC_000913
5603515	heat stress T6 / control T6	GSE20305	GSM508978,GSM508986,GSM508994/GSM508954,GSM508962,GSM508970	1			1		1	1	0	0	mbplot				GPL10041	NC_000913	NC_000913
5608064	heat stress T7 / control T7	GSE20305	GSM508979,GSM508987,GSM508995/GSM508955,GSM508963,GSM508971	1			1		1	1	0	0	mbplot				GPL10041	NC_000913	NC_000913
5612613	heat stress T8 / control T8	GSE20305	GSM508980,GSM508988,GSM508996/GSM508956,GSM508964,GSM508972	1			1		1	1	0	0	mbplot				GPL10041	NC_000913	NC_000913
5617162	oxidative stress T1 / control T1	GSE20305	GSM508997,GSM509008,GSM509020/GSM508949,GSM508957,GSM508965	1			1		1	1	0	0	mbplot				GPL10041	NC_000913	NC_000913
5621711	oxidative stress T2 / control T2	GSE20305	GSM508998,GSM509009,GSM509021/GSM508950,GSM508958,GSM508966	1			1		1	1	0	0	mbplot				GPL10041	NC_000913	NC_000913
5626260	oxidative stress T3 / control T3	GSE20305	GSM508999,GSM509010,GSM509022/GSM508951,GSM508959,GSM508967	1			1		1	1	0	0	mbplot				GPL10041	NC_000913	NC_000913
5630809	oxidative stress T4 / control T4	GSE20305	GSM509000,GSM509011,GSM509023/GSM508952,GSM508960,GSM508968	1			1		1	1	0	0	mbplot				GPL10041	NC_000913	NC_000913
5635358	oxidative stress T5 / control T5	GSE20305	GSM509001,GSM509012,GSM509024/GSM508953,GSM508961,GSM508969	1			1		1	1	0	0	mbplot				GPL10041	NC_000913	NC_000913
5644456	oxidative stress T6 / control T6	GSE20305	GSM509002,GSM509013,GSM509025/GSM508954,GSM508962,GSM508970	1			1		1	1	0	0	mbplot				GPL10041	NC_000913	NC_000913
5649005	oxidative stress T7 / control T7	GSE20305	GSM509003,GSM509014,GSM509026/GSM508955,GSM508963,GSM508971	1			1		1	1	0	0	mbplot				GPL10041	NC_000913	NC_000913
5653554	oxidative stress T8 / control T8	GSE20305	GSM509004,GSM509015,GSM509027/GSM508956,GSM508964,GSM508972	1			1		1	1	0	0	mbplot				GPL10041	NC_000913	NC_000913
5553476	glucose-lactose shift T2 / control T2	GSE20305	GSM509031,GSM509037,GSM509042/GSM508950,GSM508958,GSM508966	1			1		1	1	0	0	mbplot				GPL10041	NC_000913	NC_000913
5558025	glucose-lactose shift T3 / control T3	GSE20305	GSM509032,GSM509043/GSM508951,GSM508959,GSM508967	1			1		1	1	0	0	mbplot				GPL10041	NC_000913	NC_000913
5562574	glucose-lactose shift T4 / control T4	GSE20305	GSM509033,GSM509038,GSM509044/GSM508952,GSM508960,GSM508968	1			1		1	1	0	0	mbplot				GPL10041	NC_000913	NC_000913
5567123	glucose-lactose shift T5 / control T5	GSE20305	GSM509034,GSM509039,GSM509045/GSM508953,GSM508961,GSM508969	1			1		1	1	0	0	mbplot				GPL10041	NC_000913	NC_000913
5571672	glucose-lactose shift T6 / control T6	GSE20305	GSM509035,GSM509040,GSM509046/GSM508954,GSM508962,GSM508970	1			1		1	1	0	0	mbplot				GPL10041	NC_000913	NC_000913
5576221	glucose-lactose shift T7 / control T7	GSE20305	GSM509036,GSM509041/GSM508955,GSM508963,GSM508971	1			1		1	1	0	0	mbplot				GPL10041	NC_000913	NC_000913
10708820	S. Typhi Ty2 viaB mutant low salt / S. Typhi Ty2 tviB-vexE mutant low salt	GSE20321	GSM395582,GSM395583	2			1		0	0	0	0	mbplot				GPL8446		
10714073	S. Typhimurium IR715(pWSK29) low salt / S. Typhimurium IR715(pTVIA1) (control empty vector)low salt	GSE20321	GSM509223	2			1		0	0	0	0	mbplot				GPL8446		
25708262	NADH Oxidase / Reference	GSE20374	GSM510325,GSM510326,GSM510327/GSM510322,GSM510323,GSM510324	1			1		1	1	0	0	mbplot				GPL3154	NC_000913	NC_000913
25715872	ATPase / Reference	GSE20374	GSM510328,GSM510329,GSM510330/GSM510322,GSM510323,GSM510324	1			1		1	1	0	0	mbplot				GPL3154	NC_000913	NC_000913
25723482	clade 2, stx 1 and 2 / clade 2, stx 2	GSE20397	GSM510507,GSM510562,GSM510632	2			1		0	0	0	0	mbplot				GPL7445		NC_002655
25728935	clade 2, stx 2 / clade 2, stx 1 and 2 (dye swap)	GSE20397	GSM510508,GSM510631,GSM510635	2			1		0	0	0	0	mbplot				GPL7445		NC_002655
25734388	clade 8, stx 2 / clade 2, stx 1 and 2	GSE20397	GSM510647,GSM510649,GSM510651	2			1		0	0	0	0	mbplot				GPL7445		NC_002655
25739841	clade 2, stx 1 and 2 / clade 8, stx 2 (dye swap)	GSE20397	GSM510648,GSM510650,GSM510652	2			1		0	0	0	0	mbplot				GPL7445		NC_002655
25745294	clade 2, stx 1 and 2 / clade 8, stx 2 and 2c	GSE20397	GSM510653,GSM510655,GSM510657	2			1		0	0	0	0	mbplot				GPL7445		NC_002655
25750747	clade 8, stx 2 and 2c / clade 2, stx 1 and 2 (dye swap)	GSE20397	GSM510654,GSM510656,GSM510658	2			1		0	0	0	0	mbplot				GPL7445		NC_002655
25756200	clade 8, stx 2 / clade 2, stx 2	GSE20397	GSM510659,GSM510661,GSM510663	2			1		0	0	0	0	mbplot				GPL7445		NC_002655
25761653	clade 2, stx 2 / clade 8, stx 2 (dye swap)	GSE20397	GSM510660,GSM510662,GSM510664	2			1		0	0	0	0	mbplot				GPL7445		NC_002655
25767106	clade 2, stx 2 / clade 8, stx 2 and 2c	GSE20397	GSM510665,GSM510667,GSM510789	2			1		0	0	0	0	mbplot				GPL7445		NC_002655
25772559	clade 8, stx 2 and 2c / clade 2, stx 2 (dye swap)	GSE20397	GSM510666,GSM510668,GSM510837	2			1		0	0	0	0	mbplot				GPL7445		NC_002655
25778012	clade 8, stx 2 and 2c / clade 8, stx 2	GSE20397	GSM510838,GSM510840,GSM510981	2			1		0	0	0	0	mbplot				GPL7445		NC_002655
25783465	clade 8, stx 2 / clade 8, stx 2 and 2c (dye swap)	GSE20397	GSM510839,GSM510980,GSM510982	2			1		0	0	0	0	mbplot				GPL7445		NC_002655
25788918	EHEC DMEM QseD / EHEC DMEM WT	GSE20413	GSM511648/GSM511647	1			1		1	1	0	0	mbplot				GPL3154	NC_000913	NC_000913
25801154	K-12 DMEM QseD / K-12 DMEM WT	GSE20413	GSM511650/GSM511649	1			1		1	1	0	0	mbplot				GPL3154	NC_000913	NC_000913
25813390	K-12 LB QseD / K-12 LB WT	GSE20413	GSM511652/GSM511651	1			1		1	1	0	0	mbplot				GPL3154	NC_000913	NC_000913
25825626	luxS deletion / WT	GSE20606	GSM517416,GSM517417	2			1		0	0	0	0	mbplot				GPL8609		NC_000913
10723656	Salmonella enterica Enteritidis, chlorine, 130ppm 30min / Salmonella enterica Enteritidis, control	GSE20701	GSM519637,GSM519638,GSM519639/GSM519634,GSM519635,GSM519636	1			1		1	1	0	0	maplot				GPL10151		
10728400	Salmonella enterica Enteritidis, chlorine, 390ppm 10min / Salmonella enterica Enteritidis, control	GSE20701	GSM519640,GSM519641,GSM519642/GSM519634,GSM519635,GSM519636	1			1		1	1	0	0	maplot				GPL10151		
10733144	Salmonella enterica Typhimurium, control / Salmonella enterica Enteritidis, control	GSE20701	GSM519643,GSM519644,GSM519645/GSM519634,GSM519635,GSM519636	1			1		1	1	0	0	maplot				GPL10151		
10752120	Salmonella enterica Typhimurium, chlorine, 130ppm 30min / Salmonella enterica Enteritidis, chlorine, 130ppm 30min	GSE20701	GSM519646,GSM519647,GSM519648/GSM519637,GSM519638,GSM519639	1			1		1	1	0	0	maplot				GPL10151		
10737888	Salmonella enterica Typhimurium, chlorine, 130ppm 30min / Salmonella enterica Typhimurium, control	GSE20701	GSM519646,GSM519647,GSM519648/GSM519643,GSM519644,GSM519645	1			1		1	1	0	0	maplot				GPL10151		
10747376	Salmonella enterica Typhimurium, chlorine, 390ppm 10min / Salmonella enterica Enteritidis, chlorine, 390ppm 10min	GSE20701	GSM519649,GSM519650,GSM519651/GSM519640,GSM519641,GSM519642	1			1		1	1	0	0	maplot				GPL10151		
10742632	Salmonella enterica Typhimurium, chlorine, 390ppm 10min / Salmonella enterica Typhimurium, control	GSE20701	GSM519649,GSM519650,GSM519651/GSM519643,GSM519644,GSM519645	1			1		1	1	0	0	maplot				GPL10151		
11720841	JKD6229(SCV) / JKD6210	GSE20957	GSM523985,GSM523986,GSM523987,GSM523988	2			1		0	0	0	0	mbplot				GPL10229		
26972218	delta arcS /wildtype	GSE21044	GSM525512,GSM525513,GSM525514/GSM525509,GSM525510,GSM525511	1			1		1	1	0	0	maplot				GPL10101		
6691461	Clinical isolate 4850-03_EAI / CDC1551 reference strain	GSE21114	GSM528052,GSM528073,GSM528079	2	12		11		1	1	0	0	maplot				GPL10265		NC_003317
6685494	Clinical isolate 2336-02_Haarlem / CDC1551 reference strain	GSE21114	GSM528053,GSM528056,GSM528068	2	12		11		1	1	0	0	maplot				GPL10265		NC_003317
6697428	Lab strain H37Rv / CDC1551 reference strain	GSE21114	GSM528054,GSM528060,GSM528089	2	12		11		1	1	0	0	mbplot				GPL10265		NC_003317
6703395	Clinical isolate 12954-03_Beijing / CDC1551 reference strain	GSE21114	GSM528055,GSM528075,GSM528095	2	12		11		1	1	0	0	mbplot				GPL10265		NC_003317
6782247	Clinical isolate 9532-03_Haarlem / CDC1551 reference strain	GSE21114	GSM528057,GSM528058,GSM528064	2	12		11		1	1	0	0	mbplot				GPL10265		
6778339	Clinical isolate 947-01_EAI / CDC1551 reference strain	GSE21114	GSM528059,GSM528077,GSM528098	2	12		11		1	1	0	0	mbplot				GPL10265		
6770233	Clinical isolate 4130-02_Haarlem / CDC1551 reference strain	GSE21114	GSM528061,GSM528083,GSM528091	2	12		11		1	1	0	0	mbplot				GPL10265		
6758788	Clinical isolate 2169-99_Uganda / CDC1551 reference strain	GSE21114	GSM528062,GSM528066,GSM528081	2	12		11		1	1	0	0	mbplot				GPL10265		
6742213	Clinical isolate 10514-01_Afri2 / CDC1551 reference strain	GSE21114	GSM528063,GSM528084,GSM528094	2	12		11		1	1	0	0	mbplot				GPL10265		
6774431	Clinical isolate 5468-02_Afri2 / CDC1551 reference strain	GSE21114	GSM528065,GSM528072,GSM528082	2	12		11		1	1	0	0	mbplot				GPL10265		
6746121	Clinical isolate 10517-01_Afri2 / CDC1551 reference strain	GSE21114	GSM528067,GSM528070,GSM528074	2	12		11		1	1	0	0	mbplot				GPL10265		
6750972	Clinical isolate 1797-03_EAI / CDC1551 reference strain	GSE21114	GSM528069,GSM528071,GSM528076	2	12		11		1	1	0	0	mbplot				GPL10265		
6762696	Clinical isolate 2191-99_Uganda / CDC1551 reference strain	GSE21114	GSM528078,GSM528086,GSM528096	2	12		11		1	1	0	0	mbplot				GPL10265		
6766604	Clinical isolate 2333-99_Uganda / CDC1551 reference strain	GSE21114	GSM528080,GSM528088,GSM528099	2	12		11		1	1	0	0	mbplot				GPL10265		
6750029	Clinical isolate 1500-03_Beijing / CDC1551 reference strain	GSE21114	GSM528085,GSM528090,GSM528093	2	12		11		1	1	0	0	mbplot				GPL10265		
6754880	Clinical isolate 1934-03_Beijing / CDC1551 reference strain	GSE21114	GSM528087,GSM528092,GSM528097	2	12		11		1	1	0	0	mbplot				GPL10265		
6894504	Clinical isolate 2333-99_Uganda in resting macrophages / Extracellular Clinical isolate 2333-99_Uganda	GSE21114	GSM528100,GSM528124	2	12		11		1	1	0	0	maplot				GPL10266		
6846898	Clinical isolate 1500-03_Beijing in resting macrophages / Extracellular Clinical isolate 1500-03_Beijing	GSE21114	GSM528101,GSM528115	2	12		11		1	1	0	0	maplot				GPL10266		
6886688	Clinical isolate 2191-99_Uganda in resting macrophages / Extracellular Clinical isolate 2191-99_Uganda	GSE21114	GSM528104,GSM528126	2	12		11		1	1	0	0	maplot				GPL10266		
6790056	CDC1551 strain in resting macrophages / Extracellular CDC1551 strain	GSE21114	GSM528105,GSM528107	2	12		11		1	1	0	0	mbplot				GPL10266		
6797872	Clinical isolate 10514-01_Afri2 in resting macrophages / Extracellular Clinical isolate 10514-01_Afri2	GSE21114	GSM528108,GSM528118	2	12		11		1	1	0	0	mbplot				GPL10266		
6830556	Clinical isolate 12954-03_Beijing in resting macrophages / Extracellular Clinical isolate 12954-03_Beijing	GSE21114	GSM528112,GSM528129	2	12		11		1	1	0	0	maplot				GPL10266		
6871056	Clinical isolate 1934-03_Beijing in resting macrophages / Extracellular Clinical isolate 1934-03_Beijing	GSE21114	GSM528114,GSM528122	2	12		11		1	1	0	0	maplot				GPL10266		
6814214	Clinical isolate 10517-01_Afri2 in resting macrophages / Extracellular Clinical isolate 10517-01_Afri2	GSE21114	GSM528116,GSM528123	2	12		11		1	1	0	0	maplot				GPL10266		
6863240	Clinical isolate 1797-03_EAI in resting macrophages / Extracellular Clinical isolate 1797-03_EAI	GSE21114	GSM528119,GSM528130	2	12		11		1	1	0	0	maplot				GPL10266		
6878872	Clinical isolate 2169-99_Uganda in resting macrophages / Extracellular Clinical isolate 2169-99_Uganda	GSE21114	GSM528121,GSM528133	2	12		11		1	1	0	0	maplot				GPL10266		
6842990	Clinical isolate 1500-03_Beijing in activated macrophages / Extracellular Clinical isolate 1500-03_Beijing	GSE21114	GSM528137,GSM528142	2	12		11		1	1	0	0	maplot				GPL10266		
6793964	Clinical isolate 10514-01_Afri2 in activated macrophages / Extracellular Clinical isolate 10514-01_Afri2	GSE21114	GSM528138,GSM528156	2	12		11		1	1	0	0	mbplot				GPL10266		
6801780	Clinical isolate 10517-01_Afri2 in activated macrophages / Extracellular Clinical isolate 10517-01_Afri2	GSE21114	GSM528141,GSM528154	2	12		11		1	1	0	0	mbplot				GPL10266		
6786148	CDC1551 strain in activated macrophages / Extracellular CDC1551 strain	GSE21114	GSM528143,GSM528147	2	12		11		1	1	0	0	mbplot				GPL10266		
6822385	Clinical isolate 12954-03_Beijing in activated macrophages / Extracellular Clinical isolate 12954-03_Beijing	GSE21114	GSM528145,GSM528150	2	12		11		1	1	0	0	maplot				GPL10266		
6859332	Clinical isolate 1797-03_EAI in activated macrophages / Extracellular Clinical isolate 1797-03_EAI	GSE21114	GSM528146,GSM528162	2	12		11		1	1	0	0	maplot				GPL10266		
6890596	Clinical isolate 2333-99_Uganda in activated macrophages / Extracellular Clinical isolate 2333-99_Uganda	GSE21114	GSM528148,GSM528160	2	12		11		1	1	0	0	maplot				GPL10266		
6882780	Clinical isolate 2191-99_Uganda in activated macrophages / Extracellular Clinical isolate 2191-99_Uganda	GSE21114	GSM528151,GSM528155	2	12		11		1	1	0	0	maplot				GPL10266		
6874964	Clinical isolate 2169-99_Uganda in activated macrophages / Extracellular Clinical isolate 2169-99_Uganda	GSE21114	GSM528152,GSM528158	2	12		11		1	1	0	0	maplot				GPL10266		
6867148	Clinical isolate 1934-03_Beijing in activated macrophages / Extracellular Clinical isolate 1934-03_Beijing	GSE21114	GSM528157,GSM528164	2	12		11		1	1	0	0	maplot				GPL10266		
25836427	HG228 / MG1655	GSE21194	GSM530258,GSM530259	2			1		0	0	0	0	mbplot				GPL10286		NC_000913
26869889	Streptococcus pyogenes (pharyngeal) / Streptococcus pyogenes (blood)	GSE21316	GSM532753/GSM532754	1			1		1	1	0	0	maplot				GPL10318		
11684421	Newman D stp1 mutant  / Newman WT	GSE21426	GSM535673/GSM535672	1			1		1	1	0	0	maplot				GPL10347		
11695985	Newman D stp1 mutant / Newman D stk1 mutant	GSE21426	GSM535673/GSM535674	1			1		1	1	0	0	maplot				GPL10347		
11689370	Newman D stk1 mutant / Newman WT	GSE21426	GSM535674/GSM535672	1			1		1	1	0	0	maplot				GPL10347		
26137642	Lineage I FSL J1-194 wildtype / Lineage I FSL C6-001 delete sigma B mutant	GSE21427	GSM535669	2			1		0	0	0	0	mbplot				GPL4281		
26142153	Lineage II 10403S wildtype / Lineage II FSL A1-254 delete sigma B mutant	GSE21427	GSM535676	2			1		0	0	0	0	mbplot				GPL4281		
26147390	Lineage IIIA FSL J2-071 wildtype / Lineage IIIA FSL O1-006 delete sigma B mutant	GSE21427	GSM535677	2			1		0	0	0	0	mbplot				GPL4281		
26152484	Lineage IIIB FSL J1-194 wildtype / Lineage IIIB FSL O1-005 delete sigma B mutant	GSE21427	GSM535678	2			1		0	0	0	0	mbplot				GPL4281		
26111630	A909 stp1 deletion mutant / A909 WT	GSE21564	GSM538701/GSM538699	1			1		1	1	0	0	maplot				GPL10363		
8401204	7 day hypoxia RNA / 12 hours reaeration RNA	GSE21590	GSM538997,GSM538998,GSM538999,GSM539000,GSM539001,GSM539002	2			1		0	0	0	0	mbplot				GPL4293		
29069457	uninduced cells / uninduced cells	GSE21619	GSM539745,GSM539746,GSM539747	2			1		0	0	0	0	mbplot				GPL5902		
29060441	2.5 min. post-competence induction / uninduced cells	GSE21619	GSM539748,GSM539749,GSM539750	2			1		0	0	0	0	mbplot				GPL5902		
29064949	5.0 min. post-competence induction / uninduced cells	GSE21619	GSM539751,GSM539752,GSM539753	2			1		0	0	0	0	mbplot				GPL5902		
29067203	7.5 min. post-competence induction / uninduced cells	GSE21619	GSM539754,GSM539755,GSM539756	2			1		0	0	0	0	mbplot				GPL5902		
29049171	10 min. post-competence induction / uninduced cells	GSE21619	GSM539757,GSM539758,GSM539759	2			1		0	0	0	0	mbplot				GPL5902		
29051425	12.5 min. post-competence induction / uninduced cells	GSE21619	GSM539760,GSM539761,GSM539762	2			1		0	0	0	0	mbplot				GPL5902		
29053679	15 min. post-competence induction / uninduced cells	GSE21619	GSM539763,GSM539764,GSM539765	2			1		0	0	0	0	mbplot				GPL5902		
29058187	17.5 min. post-competence induction / uninduced cells	GSE21619	GSM539766,GSM539767	2			1		0	0	0	0	mbplot				GPL5902		
29062695	20 min. post-competence induction / uninduced cells	GSE21619	GSM539768,GSM539769,GSM539770	2			1		0	0	0	0	mbplot				GPL5902		
25840755	E. coli mutant aerobic / WT anaerobic	GSE21839	GSM543456,GSM543462,GSM543463,GSM543464/GSM543456,GSM543457,GSM543458	1			1		1	1	0	0	mbplot				GPL3154	NC_000913	NC_000913
25852991	E. coli mutant  aerobic / WT aerobic	GSE21839	GSM543459,GSM543460,GSM543461/GSM543453,GSM543454,GSM543455	1			1		1	1	0	0	mbplot				GPL3154	NC_000913	NC_000913
10756864	naringenin treated / DMSO treated	GSE21873	GSM543949,GSM543950,GSM543951,GSM543952,GSM543953,GSM543954	2			1		0	0	0	0	mbplot				GPL10421		
25865227	clpV deleted mutant / Wild Type	GSE21893	GSM544425/GSM544428	1			1		1	1	0	0	mbplot				GPL3154	NC_000913	NC_000913
25877463	hcp deleted mutant / Wild Type	GSE21893	GSM544426/GSM544428	1			1		1	1	0	0	mbplot				GPL3154	NC_000913	NC_000913
25889699	icmF deleted mutant / Wild Type	GSE21893	GSM544427/GSM544428	1			1		1	1	0	0	mbplot				GPL3154	NC_000913	NC_000913
8319057	BCG::pMFdosR_with_OD0.4 / BCG WT	GSE21932	GSM545593,GSM545595,GSM545596,GSM545605	2			52		0	0	0	0	mbplot				GPL9900		
8303429	BCG::pMV361_empty_OD0.2 / BCG WT	GSE21932	GSM545594,GSM545606,GSM545608,GSM545610	2			52		0	0	0	0	mbplot				GPL9900		
8311243	BCG::pMV361_empty_OD0.2 / BCG WT	GSE21932	GSM545597,GSM545598,GSM545601,GSM545603,GSM545609	2			52		0	0	0	0	mbplot				GPL9900		
8315150	BCG::pMFdosR_with _OD0.2/ BCG WT	GSE21932	GSM545599,GSM545602,GSM545604,GSM545612,GSM545614	2			52		0	0	0	0	mbplot				GPL9900		
8322964	BCG SSI 1331::pMFdosR_with_OD0.4 / MTB H37Rv Rv3132c-Rv3134c KO (dosR KO)	GSE21932	GSM545600,GSM545607,GSM545611,GSM545613	2			52		0	0	0	0	mbplot				GPL9900		
29071711	Streptococcus suis 2, 05ZYH33 rgg isogenic mutant strain, postexponential phase of growth / Streptococcus suis 2, 05ZYH33 wild-type strain, postexponential phase of growth	GSE21940	GSM545814/GSM545813	1			1		1	1	0	0	maplot				GPL10447		
25901935	ldhA pflB mutated / wild type	GSE21995	GSM546950/GSM546949	1			1		1	1	0	0	mbplot				GPL199	NC_000913	NC_000913
26632801	Streptococcus mutans UA159 without CSP / Streptococcus mutans UA159 with CSP	GSE22019	GSM547345,GSM547346,GSM547347,GSM547348,GSM547349,GSM547553	2			1		0	0	0	0	mbplot				GPL5911		
26445797	Yersinia pestis KIM5 strain in J774A.1 cells, 1.5h  / Yersinia pestis KIM5 strain in DMEM, 4h	GSE22168	GSM550704,GSM550783	2			1		0	0	0	0	mbplot				GPL4199		
26432621	Yersinia pestis KIM5 strain in DMEM, 4h  / Yersinia pestis KIM5 strain in DJ774A.1 cells, 1.5h	GSE22168	GSM550705,GSM550784	2			1		0	0	0	0	mbplot				GPL4199		
26450189	Yersinia pestis KIM5 strain in J774A.1 cells, 4h  / Yersinia pestis KIM5 strain in DMEM, 4h	GSE22168	GSM551244,GSM551245	2			1		0	0	0	0	mbplot				GPL4199		
26454581	Yersinia pestis KIM5 strain inside J774A.1 cells, 8h / Yersinia pestis KIM5 strain in DMEM, 4h	GSE22168	GSM551246,GSM551247	2			1		0	0	0	0	mbplot				GPL4199		
26437013	Yersinia pestis KIM5 strain in DMEM, 4h  / Yersinia pestis KIM5 strain inside J774A.1 cells, 4h	GSE22168	GSM551248,GSM551249	2			1		0	0	0	0	mbplot				GPL4199		
26441405	Yersinia pestis KIM5 strain in DMEM, 4h  / Yersinia pestis KIM5 strain inside J774A.1 cells, 8h	GSE22168	GSM551250,GSM551251	2			1		0	0	0	0	mbplot				GPL4199		
19284122	rpoE knockout mutant under hydrogen peroxide stress / wild type under hydrogen peroxide stress	GSE22333	GSM555960,GSM555968,GSM555972	2			1		0	0	0	0	mbplot				GPL10540		
19274335	wild type at early stationary phase of growth / rpoE knockout mutant at early stationary phase of growth	GSE22333	GSM555961,GSM555962,GSM555965	2			1		0	0	0	0	mbplot				GPL10540		
19228636	wild type under acid   hydrogen peroxide stress / rpoE knockout mutant under acid   hydrogen peroxide stress	GSE22333	GSM555963,GSM555967,GSM555971	2			1		0	0	0	0	mbplot				GPL10540		
19266137	rpoE knockout mutant under acid stress / wild type under acid stress	GSE22333	GSM555964,GSM555969,GSM555973	2			1		0	0	0	0	mbplot				GPL10540		
19293983	rpoE knockout mutant at logarithmic phase of growth / wild type at logarithmic phase of growth	GSE22333	GSM555966,GSM555970,GSM555974	2			1		0	0	0	0	mbplot				GPL10540		
26266821	S. aureus ecsA mutant, 3 hours / S. aureus WT, 3 hours	GSE22353	GSM559034,GSM559035,GSM559036,GSM559037	2			1		0	0	0	0	mbplot				GPL10537		
26269484	S. aureus ecsA mutant, 6 hours / S. aureus WT, 6 hours	GSE22353	GSM559038,GSM559039,GSM559040,GSM559041	2			1		0	0	0	0	mbplot				GPL10537		
8346729	Clostridium thermocellum, cellobiose, growth rate 0.048 / Clostridium thermocellum, cellobiose, growth rate 0.025	GSE22426	GSM557421/GSM557420	1			1		0	0	0	0	maplot				GPL10557		
8349919	Clostridium thermocellum, cellobiose, growth rate 0.064 / Clostridium thermocellum, cellobiose, growth rate 0.025	GSE22426	GSM557422/GSM557420	1			1		0	0	0	0	maplot				GPL10557		
8353109	Clostridium thermocellum, cellobiose, growth rate 0.129 / Clostridium thermocellum, cellobiose, growth rate 0.025	GSE22426	GSM557423/GSM557420	1			1		0	0	0	0	maplot				GPL10557		
8356299	Clostridium thermocellum, cellobiose, growth rate 0.158 / Clostridium thermocellum, cellobiose, growth rate 0.025	GSE22426	GSM557424/GSM557420	1			1		0	0	0	0	maplot				GPL10557		
8296331	Clostridium thermocellum, cellulose, growth rate 0.084 / Clostridium thermocellum, cellulose, growth rate 0.013	GSE22426	GSM557426/GSM557425	1			1		0	0	0	0	maplot				GPL10557		
8326871	Clostridium thermocellum, cellulose, growth rate 0.105 / Clostridium thermocellum, cellulose, growth rate 0.013	GSE22426	GSM557427/GSM557425	1			1		0	0	0	0	maplot				GPL10557		
8363397	Clostridium thermocellum, cellulose, growth rate 0.129 / Clostridium thermocellum, cellulose, growth rate 0.013	GSE22426	GSM557428/GSM557425	1			1		0	0	0	0	maplot				GPL10557		
8336441	Clostridium thermocellum, cellulose, growth rate 0.159 / Clostridium thermocellum, cellulose, growth rate 0.013	GSE22426	GSM557429/GSM557425	1			1		0	0	0	0	maplot				GPL10557		
8343539	Clostridium thermocellum, cellulose, growth rate 0.206 / Clostridium thermocellum, cellulose, growth rate 0.013	GSE22426	GSM557430/GSM557425	1			1		0	0	0	0	maplot				GPL10557		
30363685	ctsR mutant cells / wild type cells	GSE22819	GSM563916,GSM563917,GSM563918,GSM563919	2			1		0	0	0	0	mbplot				GPL6489		
25906538	nusA11 mutant / WT	GSE22829	GSM564424,GSM564425,GSM564426/GSM564421,GSM564422,GSM564423	1			1		1	1	0	0	mbplot				GPL199	NC_000913	NC_000913
25911141	T2 exposed norfloxacin and indole / T0 exposed norfloxacin	GSE22833	GSM564478/GSM564477	1			1		1	1	0	0	mbplot				GPL10659	NC_000913	NC_000913
25915562	T3 reexposed norfloxacin / T0 exposed norfloxacin	GSE22833	GSM564479/GSM564477	1			1		1	1	0	0	mbplot				GPL10659	NC_000913	NC_000913
6941572	CDC1551 aprABC null mutant / Wild type Mtb CDC1551	GSE22854	GSM564803,GSM564808,GSM564814	2	11		12		1	1	0	0	mbplot				GPL10667		
6933756	CDC1551 aprC null mutant / Wild type Mtb CDC1551	GSE22854	GSM564804,GSM564810,GSM564812	2	11		12		1	1	0	0	mbplot				GPL10667		
6929848	CDC1551 aprBC null mutant / Wild type Mtb CDC1551	GSE22854	GSM564805,GSM564809,GSM564811	2	11		12		1	1	0	0	mbplot				GPL10667		
6937664	CDC1551 phoP transposon mutant / Wild type Mtb CDC1551	GSE22854	GSM564806,GSM564807,GSM564813	2	11		12		1	1	0	0	mbplot				GPL10667		
26630891	Streptococcus mutans UA140 no brsR expression  / Streptococcus mutans UA140 inducible brsR strain	GSE22902	GSM565623/GSM565624	1			1		1	1	0	0	maplot				GPL4769		
10218350	in vitro /Patient 3 in vivo	GSE22958	GSM590729,GSM590730,GSM590731	2			1		0	0	0	0	mbplot				GPL10883		
29869600	in vivo /Patient 2 in vitro	GSE22958	GSM590732,GSM590733,GSM590734	2			1		0	0	0	0	mbplot				GPL10883		
10228428	in vitro / Patient 1 in vivo	GSE22958	GSM590735,GSM590736,GSM590737,GSM590738	2			1		0	0	0	0	mbplot				GPL10883		
8698638	M. tuberculosis CDC1551 strain cell culture growing in the suplemented with Cu / M. tuberculosis csoR strain cell culture growing in the suplemented with Cu Sauton's minimal media	GSE23498	GSM575151,GSM575221	2			1		0	0	0	0	mbplot				GPL5773		
8689810	M. tuberculosis CDC1551 strain cell culture growing in the suplemented with Cu / M. tuberculosis CDC1551 strain cell culture growing in the suplemented with Cu Sauton's minimal media	GSE23498	GSM575203,GSM575232	2			1		0	0	0	0	mbplot				GPL5773		
8694224	M. tuberculosis CDC1551 strain cell culture growing to mid log Sauton's minimal media no cu /M. tuberculosis csoR strain cell culture growing 7H9 minimal media to early stationary phase	GSE23498	GSM575231,GSM575241	2			1		0	0	0	0	mbplot				GPL5773		
8685396	;M. tuberculosis CDC1551 strain cell culture growing to mid log / M. tuberculosis csoR strain cell culture growing to mid log both No copper sulfate treatment and Sauton's minimal media	GSE23498	GSM575242,GSM575254	2			1		0	0	0	0	mbplot				GPL5773		
8663326	M. tuberculosis CDC1551 strain cell culture growing in the suplemented with Cu / M. tuberculosis Rv0190 strain cell culture growing in the suplemented with Cu	GSE23498	GSM575519,GSM575525	2			1		0	0	0	0	mbplot				GPL5773		
8672154	M. tuberculosis CDC1551 strain cell culture growing in the suplemented with Cu / M. tuberculosis Rv0190 strain cell culture growing in the suplemented with Cu Sauton's minimal media	GSE23498	GSM575522,GSM575528	2			1		0	0	0	0	mbplot				GPL5773		
8667740	M. tuberculosis CDC1551 strain cell culture growing to mid log / M. tuberculosis Rv0190 strain cell cell culture growing to mid log Sauton's minimal media	GSE23498	GSM575531,GSM575535	2			1		0	0	0	0	mbplot				GPL5773		
8676568	M. tuberculosis CDC1551 strain cell culture growing to mid log / M. tuberculosis Rv0190 strain cell cell culture growing to mid log Sauton's minimal media	GSE23498	GSM575537,GSM575540	2			1		0	0	0	0	mbplot				GPL5773		
8680982	M. tuberculosis CDC1551 strain cell culture growing in the absence of Cu / M. tuberculosis CDC1551 strain cell culture growing in the suplemented with Cu Sauton's minimal media	GSE23498	GSM575541,GSM575542	2			1		0	0	0	0	mbplot				GPL5773		
18240909	strain A20 mid-log in vitro / strain NS88.2 mid-log in vitro	GSE23825	GSM587406,GSM587421,GSM587423,GSM587436/GSM587407,GSM587408,GSM587422,GSM587425	1			1		1	0	0	0	maplot				GPL10857		
18241815	strain A20 mid-log in vitro / strain NS88.2rep mid-log in vitro	GSE23825	GSM587406,GSM587421,GSM587423,GSM587436/GSM587409,GSM587410,GSM587424,GSM587427	1			1		1	0	0	0	maplot				GPL10857		
18235363	strain A20 mid-log in vitro / strain ALAB4 mid-log in vitro	GSE23825	GSM587406,GSM587421,GSM587423,GSM587436/GSM587415,GSM587416,GSM587430,GSM587433	1			1		1	0	0	0	maplot				GPL10857		
18239582	strain A20 mid-log in vitro / strain NS730 mid-log in vitro	GSE23825	GSM587406,GSM587421,GSM587423,GSM587436/GSM587417,GSM587418,GSM587432,GSM587435	1			1		1	0	0	0	maplot				GPL10857		
18238295	strain A20 mid-log in vitro / strain NS488 mid-log in vitro	GSE23825	GSM587406,GSM587421,GSM587423,GSM587436/GSM587419,GSM587420,GSM587434,GSM587437	1			1		1	0	0	0	maplot				GPL10857		
18263933	strain NS88.2 mid-log in vitro / strain NS88.2rep mid-log in vitro	GSE23825	GSM587407,GSM587408,GSM587422,GSM587425/GSM587409,GSM587410,GSM587424,GSM587427	1			1		1	0	0	0	maplot				GPL10857		
18222185	strain 5448AP mid-log in vitro / strain A20 mid-log in vitro	GSE23825	GSM587411,GSM587412,GSM587426,GSM587429/GSM587406,GSM587421,GSM587423,GSM587436	1			1		1	0	0	0	maplot				GPL10857		
18228337	strain 5448AP mid-log in vitro / strain NS88.2 mid-log in vitro	GSE23825	GSM587411,GSM587412,GSM587426,GSM587429/GSM587407,GSM587408,GSM587422,GSM587425	1			1		1	0	0	0	maplot				GPL10857		
18229487	strain 5448AP mid-log in vitro / strain NS88.2rep mid-log in vitro	GSE23825	GSM587411,GSM587412,GSM587426,GSM587429/GSM587409,GSM587410,GSM587424,GSM587427	1			1		1	0	0	0	maplot				GPL10857		
18223852	strain 5448AP mid-log in vitro / strain ALAB4 mid-log in vitro	GSE23825	GSM587411,GSM587412,GSM587426,GSM587429/GSM587415,GSM587416,GSM587430,GSM587433	1			1		1	0	0	0	maplot				GPL10857		
18226930	strain 5448AP mid-log in vitro / strain NS730 mid-log in vitro	GSE23825	GSM587411,GSM587412,GSM587426,GSM587429/GSM587417,GSM587418,GSM587432,GSM587435	1			1		1	0	0	0	maplot				GPL10857		
18225186	strain 5448AP mid-log in vitro / strain NS488 mid-log in vitro	GSE23825	GSM587411,GSM587412,GSM587426,GSM587429/GSM587419,GSM587420,GSM587434,GSM587437	1			1		1	0	0	0	maplot				GPL10857		
18205795	strain 5448 mid-log in vitro / strain A20 mid-log in vitro	GSE23825	GSM587413,GSM587414,GSM587428,GSM587431/GSM587406,GSM587421,GSM587423,GSM587436	1			1		1	0	0	0	maplot				GPL10857		
18218430	strain 5448 mid-log in vitro / strain NS88.2 mid-log in vitro	GSE23825	GSM587413,GSM587414,GSM587428,GSM587431/GSM587407,GSM587408,GSM587422,GSM587425	1			1		1	0	0	0	maplot				GPL10857		
18219690	strain 5448 mid-log in vitro / strain NS88.2rep mid-log in vitro	GSE23825	GSM587413,GSM587414,GSM587428,GSM587431/GSM587409,GSM587410,GSM587424,GSM587427	1			1		1	0	0	0	maplot				GPL10857		
18201277	strain 5448 mid-log in vitro / strain 5448AP mid-log in vitro	GSE23825	GSM587413,GSM587414,GSM587428,GSM587431/GSM587411,GSM587412,GSM587426,GSM587429	1			1		1	1	0	0	maplot				GPL10857		
18213570	strain 5448 mid-log in vitro / strain ALAB4 mid-log in vitro	GSE23825	GSM587413,GSM587414,GSM587428,GSM587431/GSM587415,GSM587416,GSM587430,GSM587433	1			1		1	0	0	0	maplot				GPL10857		
18217780	strain 5448 mid-log in vitro / strain NS730 mid-log in vitro	GSE23825	GSM587413,GSM587414,GSM587428,GSM587431/GSM587417,GSM587418,GSM587432,GSM587435	1			1		1	0	0	0	maplot				GPL10857		
18216161	strain 5448 mid-log in vitro / strain NS488 mid-log in vitro	GSE23825	GSM587413,GSM587414,GSM587428,GSM587431/GSM587419,GSM587420,GSM587434,GSM587437	1			1		1	0	0	0	maplot				GPL10857		
18253040	strain ALAB49 mid-log in vitro / strain NS88.2rep mid-log in vitro	GSE23825	GSM587415,GSM587416,GSM587430,GSM587433/GSM587409,GSM587410,GSM587424,GSM587427	1			1		1	0	0	0	maplot				GPL10857		
18247892	strain ALAB49 mid-log in vitro / strain NS730 mid-log in vitro	GSE23825	GSM587415,GSM587416,GSM587430,GSM587433/GSM587417,GSM587418,GSM587432,GSM587435	1			1		1	0	0	0	maplot				GPL10857		
18245427	strain ALAB49 mid-log in vitro / strain NS488 mid-log in vitro	GSE23825	GSM587415,GSM587416,GSM587430,GSM587433/GSM587419,GSM587420,GSM587434,GSM587437	1			1		1	0	0	0	maplot				GPL10857		
18262304	strain NS730 mid-log in vitro / strain NS88.2 mid-log in vitro	GSE23825	GSM587417,GSM587418,GSM587432,GSM587435/GSM587407,GSM587408,GSM587422,GSM587425	1			1		1	0	0	0	maplot				GPL10857		
18263116	strain NS730 mid-log in vitro / strain NS88.2rep mid-log in vitro	GSE23825	GSM587417,GSM587418,GSM587432,GSM587435/GSM587409,GSM587410,GSM587424,GSM587427	1			1		1	0	0	0	maplot				GPL10857		
18260982	strain NS488 mid-log in vitro / strain NS88.2 mid-log in vitro	GSE23825	GSM587419,GSM587420,GSM587434,GSM587437/GSM587407,GSM587408,GSM587422,GSM587425	1			1		1	0	0	0	maplot				GPL10857		
18261604	strain NS488 mid-log in vitro / strain NS88.2rep mid-log in vitro	GSE23825	GSM587419,GSM587420,GSM587434,GSM587437/GSM587409,GSM587410,GSM587424,GSM587427	1			1		1	0	0	0	maplot				GPL10857		
25919983	specific growth rate 0.21 1/h / specific growth rate 0.11 1/h	GSE23920	GSM589790	2			1		0	0	0	0	mbplot				GPL10306		NC_000913
25924336	specific growth rate 0.26 1/h / specific growth rate 0.11 1/h	GSE23920	GSM589791	2			1		0	0	0	0	mbplot				GPL10306		NC_000913
25928689	specific growth rate 0.31 1/h / specific growth rate 0.11 1/h	GSE23920	GSM589792	2			1		0	0	0	0	mbplot				GPL10306		NC_000913
25933042	specific growth rate 0.36 1/h / specific growth rate 0.11 1/h	GSE23920	GSM589793	2			1		0	0	0	0	mbplot				GPL10306		NC_000913
25937395	specific growth rate 0.40 1/h / specific growth rate 0.11 1/h	GSE23920	GSM589794	2			1		0	0	0	0	mbplot				GPL10306		NC_000913
25941748	specific growth rate 0.48 1/h / specific growth rate 0.11 1/h	GSE23920	GSM589795	2			1		0	0	0	0	mbplot				GPL10306		NC_000913
25946101	A-stat, specific growth rate 0.48 1/h / chemostat, specific growth rate 0.51 1/h	GSE23920	GSM589796	2			1		0	0	0	0	mbplot				GPL10306		NC_000913
29691986	Streptomyces clavuligerus DS48802(clavulanic acid high-producer strain) during antibiotics production phase / Streptomyces clavuligerus WT during antibiotics production phase	GSE24033	GSM591494,GSM591495/GSM591492,GSM591493	1			1		1	1	0	0	maplot				GPL10894		
7159835	Mycobacterium tuberculosis_Chelerythrine [test] / Mycobacterium tuberculosis_DMSO [reference]	GSE24035	GSM591599,GSM591600	2			1		0	0	0	0	mbplot				GPL10895		
12801093	EGD-e delta LiaRLM / EGD-e	GSE24107	GSM593286,GSM593287,GSM593288,GSM593289	2			1		0	0	0	0	mbplot				GPL10909		
12809406	EGD-e delta LiaSLM / EGD-e	GSE24107	GSM593290,GSM593291,GSM593292,GSM593293,GSM593294,GSM593295,GSM593296	2			1		0	0	0	0	mbplot				GPL10909		
10896629	Animal Passaged strain of WT 5448 cy5 / WT M1T1 5448 cy5	GSE24246	GSM596457,GSM596459,GSM596471,GSM596485/GSM596462,GSM596474,GSM596476	1			1		1	1	0	0	maplot				GPL10950		
10910258	CovS deleted 5448 cy3 / WT M1T1 5448 cy3	GSE24246	GSM596461,GSM596473,GSM596475/GSM596458,GSM596460,GSM596464,GSM596472,GSM596478,GSM596486,GSM596490	1			1		1	1	0	0	maplot				GPL10950		
10912205	CovS deleted 5448 cy3 / Animal Passaged strain of WT 5448 cy3	GSE24246	GSM596461,GSM596473,GSM596475/GSM596467,GSM596469,GSM596481,GSM596483,GSM596493,GSM596495	1			1		1	1	0	0	maplot				GPL10950		
10902470	CovR deleted 5448 cy5 / Animal Passaged strain of WT 5448 cy5	GSE24246	GSM596463,GSM596470,GSM596477,GSM596484,GSM596489,GSM596496/GSM596457,GSM596459,GSM596471,GSM596485	1			1		1	1	0	0	maplot				GPL10950		
10900523	CovR deleted 5448 cy5 / WT M1T1 5448 cy5	GSE24246	GSM596463,GSM596470,GSM596477,GSM596484,GSM596489,GSM596496/GSM596462,GSM596474,GSM596476	1			1		1	1	0	0	maplot				GPL10950		
10908311	CovR deleted 5448 cy5 / CovS deleted 5448 cy5	GSE24246	GSM596463,GSM596470,GSM596477,GSM596484,GSM596489,GSM596496/GSM596466,GSM596468,GSM596480,GSM596482,GSM596488,GSM596492,GSM596494	1			1		1	1	0	0	maplot				GPL10950		
10898576	CovR deleted 5448 cy3 / WT M1T1 5448 cy3	GSE24246	GSM596465,GSM596479,GSM596487,GSM596491/GSM596458,GSM596460,GSM596464,GSM596472,GSM596478,GSM596486,GSM596490	1			1		1	1	0	0	maplot				GPL10950		
10906364	CovR deleted 5448 cy3 / CovS deleted 5448 cy3	GSE24246	GSM596465,GSM596479,GSM596487,GSM596491/GSM596461,GSM596473,GSM596475	1			1		1	1	0	0	maplot				GPL10950		
10904417	CovR deleted 5448 cy3 / Animal Passaged strain of WT 5448 cy3	GSE24246	GSM596465,GSM596479,GSM596487,GSM596491/GSM596467,GSM596469,GSM596481,GSM596483,GSM596493,GSM596495	1			1		1	1	0	0	maplot				GPL10950		
10914152	CovS deleted 5448 cy5 / Animal Passaged strain of WT 5448 cy5	GSE24246	GSM596466,GSM596468,GSM596480,GSM596482,GSM596488,GSM596492,GSM596494/GSM596457,GSM596459,GSM596471,GSM596485	1			1		1	1	0	0	maplot				GPL10950		
10916099	CovS deleted 5448 cy5 / WT M1T1 5448 cy5	GSE24246	GSM596466,GSM596468,GSM596480,GSM596482,GSM596488,GSM596492,GSM596494/GSM596462,GSM596474,GSM596476	1			1		1	1	0	0	maplot				GPL10950		
10894682	Animal Passaged strain of WT 5448 cy3 / WT M1T1 5448 cy3	GSE24246	GSM596467,GSM596469,GSM596481,GSM596483,GSM596493,GSM596495/GSM596458,GSM596460,GSM596464,GSM596472,GSM596478,GSM596486,GSM596490	1			1		0	1	0	0	maplot				GPL10950		
26181442	Listeria monocytogenes 10403S / Listeria monocytogenes C3-126 (sigH null mutant) stationary phase	GSE24339	GSM599934	2			1		0	0	0	0	mbplot				GPL5029		
26184349	Listeria monocytogenes 10403S / Listeria monocytogenes B2-124 (sigL null mutant) i stationary phase	GSE24339	GSM599935	2			1		0	0	0	0	mbplot				GPL5029		
26175628	Listeria monocytogenes 10403S / Listeria monocytogenes C3-113 (sigC null mutant) grown to stationary phase	GSE24339	GSM599936	2			1		0	0	0	0	mbplot				GPL5029		
26172721	Listeria monocytogenes 10403S / Listeria monocytogenes C3-113 (sigC null mutant)  which grown at 37?C to Log phase (OD600 	GSE24339	GSM599937	2			1		0	0	0	0	mbplot				GPL5029		
26178535	Listeria monocytogenes C3-143 (IPTG-iducible sigC expression) / Listeria monocytogenes C3-113 (sigC null mutant) at log phase	GSE24339	GSM599938	2			1		0	0	0	0	mbplot				GPL5029		
25950454	ptsN mutant / WT	GSE24373	GSM600987,GSM600988	2			1		0	0	0	0	mbplot				GPL5482		NC_000913
25954876	Escherichia coli, 051, in vivo / Escherichia coli, 051, in vitro	GSE24478	GSM602883,GSM602884,GSM602885/GSM602859,GSM602860,GSM602861	1			1		1	1	0	0	mbplot				GPL11006	NC_004431	NC_004431
25960256	Escherichia coli, 121, in vivo / Escherichia coli, 121, in vitro	GSE24478	GSM602886,GSM602887,GSM602888/GSM602862,GSM602863,GSM602864	1			1		1	1	0	0	mbplot				GPL11006	NC_004431	NC_004431
25965636	Escherichia coli, 151, in vivo / Escherichia coli, 151, in vitro	GSE24478	GSM602889,GSM602890,GSM602891/GSM602865,GSM602866,GSM602867	1			1		1	1	0	0	mbplot				GPL11006	NC_004431	NC_004431
25971016	Escherichia coli, 231, in vivo / Escherichia coli, 231, in vitro	GSE24478	GSM602892,GSM602893,GSM602894/GSM602868,GSM602869,GSM602870	1			1		1	1	0	0	mbplot				GPL11006	NC_004431	NC_004431
25976396	Escherichia coli, 241, in vivo / Escherichia coli, 241, in vitro	GSE24478	GSM602895,GSM602896,GSM602897/GSM602871,GSM602872,GSM602873	1			1		1	1	0	0	mbplot				GPL11006	NC_004431	NC_004431
25981776	Escherichia coli, 291, in vivo / Escherichia coli, 291, in vitro	GSE24478	GSM602898,GSM602899,GSM602900/GSM602874,GSM602875,GSM602876	1			1		1	1	0	0	mbplot				GPL11006	NC_004431	NC_004431
25987156	Escherichia coli, 361, in vivo / Escherichia coli, 361, in vitro	GSE24478	GSM602901,GSM602902,GSM602903/GSM602877,GSM602878,GSM602879	1			1		1	1	0	0	mbplot				GPL11006	NC_004431	NC_004431
25992536	Escherichia coli, 371, in vivo / Escherichia coli, 371, in vitro	GSE24478	GSM602904,GSM602905,GSM602906/GSM602880,GSM602881,GSM602882	1			1		1	1	0	0	mbplot				GPL11006	NC_004431	NC_004431
10183019	ArcA null mutant / WT	GSE24564	GSM605489,GSM605596,GSM605597	2	3	9	12	15	1	1	0	0	mbplot				GPL1835		
10188087	ArcA null mutant / WT	GSE24564	GSM605602,GSM605603,GSM605606	2	12	15	3	6	1	1	0	0	mbplot				GPL1835		
25997916	pSpoT / pBRplac ,control	GSE24875	GSM611681,GSM611683,GSM611685/GSM611680,GSM611682,GSM611684	1			1		1	0	0	0	mbplot				GPL3154	NC_000913	NC_000913
26010152	MG1655star on glucose  / WT on glucose	GSE25106	GSM617016/GSM617014,GSM617015	1			1		0	0	0	0	mbplot				GPL6702	NC_000913	NC_000913
26018196	flhD on glucose / WT on glucose	GSE25106	GSM617017/GSM617014,GSM617015	1			1		0	0	0	0	mbplot				GPL6702	NC_000913	NC_000913
26026240	MG1655star on mannose / WT on mannose	GSE25106	GSM617019/GSM617018	1			1		0	0	0	0	mbplot				GPL6702	NC_000913	NC_000913
26034284	flhD on mannose / WT on mannose	GSE25106	GSM617020/GSM617018	1			1		0	0	0	0	mbplot				GPL6702	NC_000913	NC_000913
26042328	MG1655star A600=0.2 mucus / WT A600=0.2 mucus	GSE25106	GSM617022/GSM617021	1			1		0	0	0	0	mbplot				GPL6702	NC_000913	NC_000913
26050372	flhD A600=0.2 mucus / WT A600=0.2 mucus	GSE25106	GSM617023/GSM617021	1			1		0	0	0	0	mbplot				GPL6702	NC_000913	NC_000913
26058416	MG1655star A600=0.5 mucus / WT A600=0.5 mucus	GSE25106	GSM617025/GSM617024	1			1		0	0	0	0	mbplot				GPL6702	NC_000913	NC_000913
26066460	flhD A600=0.5 mucus / WT A600=0.5 mucus	GSE25106	GSM617026/GSM617024	1			1		0	0	0	0	mbplot				GPL6702	NC_000913	NC_000913
12920158	f6854_SDA treated / f6854_CTRL treated	GSE25195	GSM619069,GSM619074,GSM619078,GSM619083	2			1		0	0	0	0	mbplot				GPL5856		
12902415	f6854_PL treated / f6854_CTRL treated	GSE25195	GSM619070,GSM619075,GSM619077,GSM619082	2			1		0	0	0	0	mbplot				GPL5856		
12877848	f6854_PLSDA treated / f6854_PL treated	GSE25195	GSM619071,GSM619076,GSM619080,GSM619084	2			1		0	0	0	0	mbplot				GPL5856		
12890455	f6854_PLSDA treated / f6854_SDA treated	GSE25195	GSM619072,GSM619073,GSM619079,GSM619081	2			1		0	0	0	0	mbplot				GPL5856		
12951590	h7858_PLSDA treated / h7858_SDA treated	GSE25195	GSM619085,GSM619089,GSM619096,GSM619097	2			1		0	0	0	0	mbplot				GPL5856		
12939315	h7858_PLSDA treated / h7858_PL treated	GSE25195	GSM619086,GSM619091,GSM619095,GSM619098	2			1		0	0	0	0	mbplot				GPL5856		
12962364	h7858_PL treated / h7858_CTRL treated	GSE25195	GSM619087,GSM619092,GSM619094,GSM619099	2			1		0	0	0	0	mbplot				GPL5856		
17895263	HSC5 exponential phase of growth, C medium   1% Glucose / HSC5 exponential phase of growth, C medium	GSE25253	GSM621290,GSM621291,GSM621292,GSM621293	2			1		0	0	0	0	mbplot				GPL11190		
17882940	Delta CcpA exponential phase of growth, C medium  1 % glucose / HSC5 exponential phase of growth, C medium   1% glucose	GSE25253	GSM621294,GSM621295,GSM621296,GSM621297	2			1		0	0	0	0	mbplot				GPL11190		
17902219	Delta LacD.1 stationary phase of growth, C medium   1% glucose / HSC5 stationary phase of growth, C medium   1% glucose	GSE25253	GSM621298,GSM621299,GSM621300,GSM621301	2			1		0	0	0	0	mbplot				GPL11190		
19324649	FACS GFPminus with CSP / Cells not induced with CSP	GSE25284	GSM622125,GSM622126	2			1		0	0	0	0	mbplot				GPL10540		
19336152	FACS GFPplus with CSP / Cells not induced with CSP	GSE25284	GSM622127,GSM622128	2			1		0	0	0	0	mbplot				GPL10540		
19344249	All cells with CSP / Cells not induced with CSP	GSE25284	GSM622129,GSM622130	2			1		0	0	0	0	mbplot				GPL10540		
26414831	fis  / 14028s in LB medium log phase	GSE25441	GSM623568	2			1		0	0	0	0	mbplot				GPL10213		
26417203	fis  / 14028s in LMP medium log in 4 hours	GSE25441	GSM623569	2			1		0	0	0	0	mbplot				GPL10213		
26421947	phoPQ vs 14028s in LB medium in log phase	GSE25441	GSM623993	2			1		0	0	0	0	mbplot				GPL10213		
26424319	phoPQ vs 14028s in LPM medium in 4 hours	GSE25441	GSM623996	2			1		0	0	0	0	mbplot				GPL10213		
26423133	phoPQ vs 14028s in LPM medium in 20 hours	GSE25441	GSM623997	2			1		0	0	0	0	mbplot				GPL10213		
26399413	14028s / phoPQ in LB medium in log phase	GSE25441	GSM623998	2			1		0	0	0	0	mbplot				GPL10213		
26405343	14028s / phoPQ in LPM medium 20hr	GSE25441	GSM623999	2			1		0	0	0	0	mbplot				GPL10213		
26411273	14028s / phoPQ in LPM medium 4hr	GSE25441	GSM624000	2			1		0	0	0	0	mbplot				GPL10213		
26400599	14028s/ssrAB  in LB medium in log phase	GSE25441	GSM624001	2			1		0	0	0	0	mbplot				GPL10213		
26406529	14028s / ssrAB in LPM medium 20hr	GSE25441	GSM624002	2			1		0	0	0	0	mbplot				GPL10213		
26412459	14028s / ssrAB in LPM medium 4hr	GSE25441	GSM624003	2			1		0	0	0	0	mbplot				GPL10213		
26431435	ssrAB vs 14028s in LB medium in log phase	GSE25441	GSM624004	2			1		0	0	0	0	mbplot				GPL10213		
26426691	ssrAB vs 14028s in LPM medium in 4 hours	GSE25441	GSM624005	2			1		0	0	0	0	mbplot				GPL10213		
26425505	ssrAB vs 14028s in LPM medium in 20 hours	GSE25441	GSM624006	2			1		0	0	0	0	mbplot				GPL10213		
26430249	STM3096 vs 14028s in LB medium in log phase	GSE25441	GSM624017	2			1		0	0	0	0	mbplot				GPL10213		
26429063	STM3096 vs 14028s in LPM medium in 4 hours	GSE25441	GSM624018	2			1		0	0	0	0	mbplot				GPL10213		
26427877	STM3096 vs 14028s in LPM medium in 20 hours	GSE25441	GSM624046	2			1		0	0	0	0	mbplot				GPL10213		
26407715	14028s / STM3096 in LPM medium 20hr	GSE25441	GSM624062	2			1		0	0	0	0	mbplot				GPL10213		
26413645	14028s / STM3096 in LPM medium 4hr	GSE25441	GSM624063	2			1		0	0	0	0	mbplot				GPL10213		
26401785	14028s /STM3096 in LB medium in log phase	GSE25441	GSM624064	2			1		0	0	0	0	mbplot				GPL10213		
26404157	14028s / hilD in LPM medium 20hr	GSE25441	GSM624082	2			1		0	0	0	0	mbplot				GPL10213		
26410087	14028s / hilD  in LPM medium 4hr	GSE25441	GSM624083	2			1		0	0	0	0	mbplot				GPL10213		
26398227	14028s/  hilD in LB medium in log phase	GSE25441	GSM624085	2			1		0	0	0	0	mbplot				GPL10213		
26419575	hilD vs 14028s in LPM medium in 20 hours	GSE25441	GSM624088	2			1		0	0	0	0	mbplot				GPL10213		
26420761	hilD vs 14028s in LPM medium in 4 hours	GSE25441	GSM624093	2			1		0	0	0	0	mbplot				GPL10213		
26418389	hilD  / 14028s in LB medium log phase	GSE25441	GSM624097	2			1		0	0	0	0	mbplot				GPL10213		
26416017	fis  / 14028s in LMP medium in 20 hours	GSE25441	GSM624412	2			1		0	0	0	0	mbplot				GPL10213		
26397041	14028s in LB medium in log phase / fisLBlogpool	GSE25441	GSM624414	2			1		0	0	0	0	mbplot				GPL10213		
26408901	14028s / fis in LPM medium 4hr	GSE25441	GSM624424	2			1		0	0	0	0	mbplot				GPL10213		
26402971	14028s / fis in LPM medium 20hr	GSE25441	GSM624425	2			1		0	0	0	0	mbplot				GPL10213		
26374037	media is TSB time point 0/ media is TSB time point 30	GSE25454	GSM624708,GSM624721,GSM624730,GSM624743,GSM624756,GSM624769/GSM624709,GSM624731,GSM624744,GSM624757,GSM624770	1			1		1	1	0	0	maplot				GPL8069		
26376593	media is TSB time point 0 / media is TSB time point 60	GSE25454	GSM624708,GSM624721,GSM624730,GSM624743,GSM624756,GSM624769/GSM624710,GSM624732,GSM624745,GSM624758,GSM624771	1			1		1	1	0	0	maplot				GPL8069		
26379149	media is TSB time point 0 / media is TSB time point 90	GSE25454	GSM624708,GSM624721,GSM624730,GSM624743,GSM624756,GSM624769/GSM624711,GSM624722,GSM624733,GSM624746,GSM624759,GSM624772	1			1		1	1	0	0	maplot				GPL8069		
26371481	media is TSB time point 0 / media is TSB time point 120	GSE25454	GSM624708,GSM624721,GSM624730,GSM624743,GSM624756,GSM624769/GSM624712,GSM624723,GSM624734,GSM624747,GSM624760,GSM624773	1			1		1	1	0	0	maplot				GPL8069		
26389373	media is TSB time point 30 / media is TSB time point 60	GSE25454	GSM624709,GSM624731,GSM624744,GSM624757,GSM624770/GSM624710,GSM624732,GSM624745,GSM624758,GSM624771	1			1		1	1	0	0	maplot				GPL8069		
26391929	media is TSB time point 30/ media is TSB time point 90	GSE25454	GSM624709,GSM624731,GSM624744,GSM624757,GSM624770/GSM624711,GSM624722,GSM624733,GSM624746,GSM624759,GSM624772	1			1		1	1	0	0	maplot				GPL8069		
26394485	media is TSB time point 60 / media is TSB time point 90	GSE25454	GSM624710,GSM624732,GSM624745,GSM624758,GSM624771/GSM624711,GSM624722,GSM624733,GSM624746,GSM624759,GSM624772	1			1		1	1	0	0	maplot				GPL8069		
26381705	media is TSB time point 120 / media is TSB time point 30	GSE25454	GSM624712,GSM624723,GSM624734,GSM624747,GSM624760,GSM624773/GSM624709,GSM624731,GSM624744,GSM624757,GSM624770	1			1		1	1	0	0	maplot				GPL8069		
26384261	media is TSB time point 120  / media is TSB time point 60	GSE25454	GSM624712,GSM624723,GSM624734,GSM624747,GSM624760,GSM624773/GSM624710,GSM624732,GSM624745,GSM624758,GSM624771	1			1		1	1	0	0	maplot				GPL8069		
26386817	media is TSB time point 120 / media is TSB time point 90	GSE25454	GSM624712,GSM624723,GSM624734,GSM624747,GSM624760,GSM624773/GSM624711,GSM624722,GSM624733,GSM624746,GSM624759,GSM624772	1			1		1	1	0	0	maplot				GPL8069		
26356145	media is Serum time point 30  / media is TSB time point 30	GSE25454	GSM624713,GSM624735,GSM624748,GSM624761,GSM624774/GSM624709,GSM624731,GSM624744,GSM624757,GSM624770	1			1		1	1	0	0	maplot				GPL8069		
26358701	media is Serum time point 30 / media is Serum time point 60	GSE25454	GSM624713,GSM624735,GSM624748,GSM624761,GSM624774/GSM624714,GSM624736,GSM624749,GSM624762,GSM624775	1			1		1	1	0	0	maplot				GPL8069		
26361257	media is Serum time point 30 / media is Serum time point 90	GSE25454	GSM624713,GSM624735,GSM624748,GSM624761,GSM624774/GSM624715,GSM624724,GSM624737,GSM624750,GSM624763,GSM624776	1			1		1	1	0	0	maplot				GPL8069		
26363813	media is Serum time point 60  / mediais TSB time point 60	GSE25454	GSM624714,GSM624736,GSM624749,GSM624762,GSM624775/GSM624710,GSM624732,GSM624745,GSM624758,GSM624771	1			1		1	1	0	0	maplot				GPL8069		
26366369	media is Serum time point 60  / media is Serum time point 90	GSE25454	GSM624714,GSM624736,GSM624749,GSM624762,GSM624775/GSM624715,GSM624724,GSM624737,GSM624750,GSM624763,GSM624776	1			1		1	1	0	0	maplot				GPL8069		
26368925	media is Serum time point 90 / media is TSB time point 90	GSE25454	GSM624715,GSM624724,GSM624737,GSM624750,GSM624763,GSM624776/GSM624711,GSM624722,GSM624733,GSM624746,GSM624759,GSM624772	1			1		1	1	0	0	maplot				GPL8069		
26345921	media is Serum time point 120 / media is TSB time point 120	GSE25454	GSM624716,GSM624725,GSM624738,GSM624751,GSM624764,GSM624777/GSM624712,GSM624723,GSM624734,GSM624747,GSM624760,GSM624773	1			1		1	1	0	0	maplot				GPL8069		
26348477	media is Serum time point 120  / media is Serum time point 30	GSE25454	GSM624716,GSM624725,GSM624738,GSM624751,GSM624764,GSM624777/GSM624713,GSM624735,GSM624748,GSM624761,GSM624774	1			1		1	1	0	0	maplot				GPL8069		
26351033	media is Serum time point 120 / media is Serum time point 60	GSE25454	GSM624716,GSM624725,GSM624738,GSM624751,GSM624764,GSM624777/GSM624714,GSM624736,GSM624749,GSM624762,GSM624775	1			1		1	1	0	0	maplot				GPL8069		
26353589	media is Serum time point 120/ media is Serum time point 90	GSE25454	GSM624716,GSM624725,GSM624738,GSM624751,GSM624764,GSM624777/GSM624715,GSM624724,GSM624737,GSM624750,GSM624763,GSM624776	1			1		1	1	0	0	maplot				GPL8069		
26325473	media is Blood time point 30 / media is TSB time point 30	GSE25454	GSM624717,GSM624726,GSM624739,GSM624752,GSM624765,GSM624778/GSM624709,GSM624731,GSM624744,GSM624757,GSM624770	1			1		1	1	0	0	maplot				GPL8069		
26322917	media is Blood time point 30 / media is Serum time point 30	GSE25454	GSM624717,GSM624726,GSM624739,GSM624752,GSM624765,GSM624778/GSM624713,GSM624735,GSM624748,GSM624761,GSM624774	1			1		1	1	0	0	maplot				GPL8069		
26328029	media is Blood time point 30  / media is Blood time point 60	GSE25454	GSM624717,GSM624726,GSM624739,GSM624752,GSM624765,GSM624778/GSM624718,GSM624727,GSM624740,GSM624753,GSM624766,GSM624779	1			1		1	1	0	0	maplot				GPL8069		
26330585	media is Blood time point 30 / media is Blood time point 90	GSE25454	GSM624717,GSM624726,GSM624739,GSM624752,GSM624765,GSM624778/GSM624719,GSM624728,GSM624741,GSM624754,GSM624767,GSM624780	1			1		1	1	0	0	maplot				GPL8069		
26335697	media is Blood time point 60  / media is TSB time point 60	GSE25454	GSM624718,GSM624727,GSM624740,GSM624753,GSM624766,GSM624779/GSM624710,GSM624732,GSM624745,GSM624758,GSM624771	1			1		1	1	0	0	maplot				GPL8069		
26333141	media is Blood time point 60 / media is Serum time point 60	GSE25454	GSM624718,GSM624727,GSM624740,GSM624753,GSM624766,GSM624779/GSM624714,GSM624736,GSM624749,GSM624762,GSM624775	1			1		1	1	0	0	maplot				GPL8069		
26338253	media is Blood time point 60  / media is Blood time point 90	GSE25454	GSM624718,GSM624727,GSM624740,GSM624753,GSM624766,GSM624779/GSM624719,GSM624728,GSM624741,GSM624754,GSM624767,GSM624780	1			1		1	1	0	0	maplot				GPL8069		
26343365	media is Blood time point 90 / media is TSB time point 90	GSE25454	GSM624719,GSM624728,GSM624741,GSM624754,GSM624767,GSM624780/GSM624711,GSM624722,GSM624733,GSM624746,GSM624759,GSM624772	1			1		1	1	0	0	maplot				GPL8069		
26340809	media is Blood time point 90 / media is Serum time point 90	GSE25454	GSM624719,GSM624728,GSM624741,GSM624754,GSM624767,GSM624780/GSM624715,GSM624724,GSM624737,GSM624750,GSM624763,GSM624776	1			1		1	1	0	0	maplot				GPL8069		
26312693	hlgABC-deletion strainderived from wild type USA300 / wild type USA300 strain	GSE25454	GSM624720,GSM624729,GSM624742,GSM624755,GSM624768,GSM624781/GSM624712,GSM624723,GSM624734,GSM624747,GSM624760,GSM624773	1			1		1	1	0	0	maplot				GPL8069		
26310137	media is blood  with time point 120 / media is Blood , time point 60	GSE25454	GSM624720,GSM624729,GSM624742,GSM624755,GSM624768,GSM624781/GSM624716,GSM624725,GSM624738,GSM624751,GSM624764,GSM624777	1			1		1	1	0	0	maplot				GPL8069		
26315249	media is blood  with time point 120 / media is Blood , time point 30	GSE25454	GSM624720,GSM624729,GSM624742,GSM624755,GSM624768,GSM624781/GSM624717,GSM624726,GSM624739,GSM624752,GSM624765,GSM624778	1			1		1	1	0	0	maplot				GPL8069		
26317805	media is blood  with time point 120/media is TSB , time point 120	GSE25454	GSM624720,GSM624729,GSM624742,GSM624755,GSM624768,GSM624781/GSM624718,GSM624727,GSM624740,GSM624753,GSM624766,GSM624779	1			1		1	1	0	0	maplot				GPL8069		
26320361	media is blood  with time point 120/ media is Blood , time point 90	GSE25454	GSM624720,GSM624729,GSM624742,GSM624755,GSM624768,GSM624781/GSM624719,GSM624728,GSM624741,GSM624754,GSM624767,GSM624780	1			1		1	1	0	0	maplot				GPL8069		
26307581	media is blood  with time point 120 / media is Serum , time point 120	GSE25454	GSM644335,GSM644336,GSM644337/GSM644332,GSM644333,GSM644334	1			1		1	1	0	0	maplot				GPL8069		
7173518	strain C630E grown 4h in TY (test) / strain C630E in TY 10h of growth (reference)	GSE25521	GSM625914,GSM625915,GSM625916,GSM625917	2			1		0	0	0	0	mbplot				GPL10556		
7177095	sigH mutant grown 10h in TY (test) / strain C630E grown 10h in TY (reference)	GSE25521	GSM625918,GSM625919,GSM625920,GSM625921	2			1		0	0	0	0	mbplot	dye swap., but swapped ones have inverted log values			GPL10556		
26074504	CFT073 LB PACs / CFT073 LB	GSE25745	GSM632644,GSM632645,GSM632646/GSM632641,GSM632642,GSM632643	1			1		1	1	0	0	mbplot				GPL3154	NC_004431	NC_004431
26935588	mgtA mutant / wildtype	GSE26154	GSM659167,GSM659168,GSM659169	2			1		0	0	0	0	mbplot				GPL11484		
26833531	Streptococcus mutans, treated / Streptococcus mutans, untreated	GSE26274	GSM645255,GSM645256,GSM645257,GSM645258	2			1		0	0	0	0	mbplot				GPL10540		
26831585	Streptococcus mutans, untreated / Streptococcus mutans, treated	GSE26274	GSM645259,GSM645260,GSM645261,GSM645262	2			1		0	0	0	0	mbplot				GPL10540		
24881383	Streptococcus mutans, treated, 20 min / Streptococcus mutans, untreated, 20 min	GSE26441	GSM648754,GSM648755,GSM648756,GSM648757,GSM648758,GSM648759	2			1		0	0	0	0	mbplot				GPL10540		
24900891	Streptococcus mutans, treated, 40 min / Streptococcus mutans, untreated, 40 min	GSE26441	GSM648760,GSM648761	2			1		0	0	0	0	mbplot				GPL10540		
24950310	Streptococcus mutans, treated, 60 min / Streptococcus mutans, untreated, 60min	GSE26441	GSM648762,GSM648763,GSM648764,GSM648765,GSM648766,GSM648767	2			1		0	0	0	0	mbplot				GPL10540		
24847811	Streptococcus mutans, treated, 120 min / Streptococcus mutans, untreated	GSE26441	GSM648768,GSM648769,GSM648770,GSM648771	2			1		0	0	0	0	mbplot				GPL10540		
24891271	Streptococcus mutans, treated, 300 min / Streptococcus mutans, untreated, 300 min	GSE26441	GSM648772,GSM648773,GSM648774,GSM648775,GSM648776,GSM648777	2			1		0	0	0	0	mbplot				GPL10540		
8289742	Mycobacterium smegmatis mc2 155 delta-MSMEG_0166 / Mycobacterium smegmatis mc2 155 wild-type	GSE26474	GSM651062,GSM651063,GSM651064/GSM651059,GSM651060,GSM651061	1			1		1	0	0	0	maplot				GPL11392		
7560927	revR mutant during exponential growth / wild-type strain 13 during exponential growth	GSE26508	GSM651707,GSM651709,GSM651710	2			1		0	0	0	0	mbplot				GPL11408		
10891070	WT at mid-exponential phase / WT at stationary phase	GSE26590	GSM654490,GSM654491,GSM654492,GSM654493,GSM654494/GSM654510,GSM654511,GSM654512,GSM654513,GSM654514	1			1		1	1	0	0	maplot				GPL11420		
26854482	codY mutant at mid-exponential phase / WT at mid-exponential phase	GSE26590	GSM654495,GSM654496,GSM654497,GSM654498,GSM654499/GSM654490,GSM654491,GSM654492,GSM654493,GSM654494	1			1		1	1	0	0	maplot				GPL11420		
26853579	codY mutant at mid-exponential phase/ covRS mutant at mid-exponential phase	GSE26590	GSM654495,GSM654496,GSM654497,GSM654498,GSM654499/GSM654500,GSM654501,GSM654502,GSM654503,GSM654504	1			1		1	1	0	0	maplot				GPL11420		
26852676	codY mutant at mid-exponential phase / codYcovRS mutant at mid-exponential phase	GSE26590	GSM654495,GSM654496,GSM654497,GSM654498,GSM654499/GSM654505,GSM654506,GSM654507,GSM654508,GSM654509	1			1		1	1	0	0	maplot				GPL11420		
26851773	codY mutant at mid-exponential phase / codY mutant at stationary phase	GSE26590	GSM654495,GSM654496,GSM654497,GSM654498,GSM654499/GSM654515,GSM654516,GSM654517,GSM654518,GSM654519	1			1		1	1	0	0	maplot				GPL11420		
26861706	covRS mutant at mid-exponential phase / WT at mid-exponential phase	GSE26590	GSM654500,GSM654501,GSM654502,GSM654503,GSM654504/GSM654490,GSM654491,GSM654492,GSM654493,GSM654494	1			1		1	1	0	0	maplot				GPL11420		
10893779	covRS mutant at mid-exponential phase/ covRS mutant at stationary phase	GSE26590	GSM654500,GSM654501,GSM654502,GSM654503,GSM654504/GSM654520,GSM654521,GSM654522,GSM654523,GSM654524	1			1		1	1	0	0	maplot				GPL11420		
26858997	codYcovRS mutant at mid-exponential phase / WT at mid-exponential phase	GSE26590	GSM654505,GSM654506,GSM654507,GSM654508,GSM654509/GSM654490,GSM654491,GSM654492,GSM654493,GSM654494	1			1		1	1	0	0	maplot				GPL11420		
26858094	codYcovRS mutant at mid-exponential phase / covRS mutant at mid-exponential phase	GSE26590	GSM654505,GSM654506,GSM654507,GSM654508,GSM654509/GSM654500,GSM654501,GSM654502,GSM654503,GSM654504	1			1		1	1	0	0	maplot				GPL11420		
10892876	codYcovRS mutant at mid-exponential phase / codYcovRS mutant at stationary phase	GSE26590	GSM654505,GSM654506,GSM654507,GSM654508,GSM654509/GSM654525,GSM654526,GSM654527,GSM654528,GSM654529	1			1		1	1	0	0	maplot				GPL11420		
26857191	codY mutant at stationary phase / WT at stationary phase	GSE26590	GSM654515,GSM654516,GSM654517,GSM654518,GSM654519/GSM654510,GSM654511,GSM654512,GSM654513,GSM654514	1			1		1	1	0	0	maplot				GPL11420		
26856288	codY mutant at stationary phase / covRS mutant at stationary phase	GSE26590	GSM654515,GSM654516,GSM654517,GSM654518,GSM654519/GSM654520,GSM654521,GSM654522,GSM654523,GSM654524	1			1		1	1	0	0	maplot				GPL11420		
26855385	codY mutant at stationary phase / codYcovRS mutant at stationary phase	GSE26590	GSM654515,GSM654516,GSM654517,GSM654518,GSM654519/GSM654525,GSM654526,GSM654527,GSM654528,GSM654529	1			1		1	1	0	0	maplot				GPL11420		
26862609	covRS mutant at stationary phase / WT at stationary phase	GSE26590	GSM654520,GSM654521,GSM654522,GSM654523,GSM654524/GSM654510,GSM654511,GSM654512,GSM654513,GSM654514	1			1		1	1	0	0	maplot				GPL11420		
26860803	codYcovRS mutant at stationary phase / WT at stationary phase	GSE26590	GSM654525,GSM654526,GSM654527,GSM654528,GSM654529/GSM654510,GSM654511,GSM654512,GSM654513,GSM654514	1			1		1	1	0	0	maplot				GPL11420		
26859900	codYcovRS mutant at stationary phase / covRS mutant at stationary phase	GSE26590	GSM654525,GSM654526,GSM654527,GSM654528,GSM654529/GSM654520,GSM654521,GSM654522,GSM654523,GSM654524	1			1		1	1	0	0	maplot				GPL11420		
26563025	ompR null mutant (?ompR);WT / ompR null mutant (?ompR);WT	GSE26601	GSM821274,GSM821275,GSM821276,GSM821277	2			1		0	0	0	0	mbplot				GPL11443		
26877438	10870deltaropB grown to early stationary phase in THY / MGAS10870 grown to early stationary phase in THY;Strain MGAS10870 grown to early stationary phase in THY	GSE26655	GSM656267,GSM656268/GSM656257,GSM656264	1			1		1	1	0	0	maplot				GPL9080		
26876186	10870deltaropB grown to early stationary phase in THY / 9937deltaropB grown to early stationary phase in THY	GSE26655	GSM656267,GSM656268/GSM656271,GSM656272	1			1		1	1	0	0	maplot				GPL9080		
26878690	9937deltaropB grown to early stationary phase in THY / MGAS9937 grown to early stationary phase in THY	GSE26655	GSM656271,GSM656272/GSM656269,GSM656270	1			1		1	1	0	0	maplot				GPL9080		
30393571	L. monocytogenes RNA after 13hr incubation in TSBYE / L. monocytogenes RNA after reincubation in TSBYE	GSE26690	GSM657103,GSM657104/GSM657101,GSM657102	1			1		0	0	0	0	maplot				GPL11577		
30385111	L. monocytogenes RNA after 13hr incubation in TSBYE / L. monocytogenes RNA after 17hr incubation in TSBYE	GSE26690	GSM657103,GSM657104/GSM657105,GSM657106	1			1		0	0	0	0	maplot				GPL11577		
30387931	L. monocytogenes RNA after 13hr incubation in TSBYE / L. monocytogenes RNA after 24hr incubation in TSBYE	GSE26690	GSM657103,GSM657104/GSM657107,GSM657108	1			1		0	0	0	0	maplot				GPL11577		
30382291	L. monocytogenes RNA after 13hr incubation in TSBYE / L. monocytogenes RNA after 168hr incubation in TSBYE	GSE26690	GSM657103,GSM657104/GSM657109,GSM657110	1			1		0	0	0	0	maplot				GPL11577		
30390751	L. monocytogenes RNA after 13hr incubation in TSBYE / L. monocytogenes RNA after 336hr incubation in TSBYE	GSE26690	GSM657103,GSM657104/GSM657111,GSM657112	1			1		0	0	0	0	maplot				GPL11577		
30413311	L. monocytogenes RNA after 17hr incubation in TSBYE / L. monocytogenes RNA after reincubation in TSBYE	GSE26690	GSM657105,GSM657106/GSM657101,GSM657102	1			1		0	0	0	0	maplot				GPL11577		
30407671	L. monocytogenes RNA after 17hr incubation in TSBYE / L. monocytogenes RNA after 24hr incubation in TSBYE	GSE26690	GSM657105,GSM657106/GSM657107,GSM657108	1			1		0	0	0	0	maplot				GPL11577		
30410491	L. monocytogenes RNA after 17hr incubation in TSBYE / L. monocytogenes RNA after 336hr incubation in TSBYE	GSE26690	GSM657105,GSM657106/GSM657111,GSM657112	1			1		0	0	0	0	maplot				GPL11577		
30418951	L. monocytogenes RNA after 24hr incubation in TSBYE / L. monocytogenes RNA after reincubation in TSBYE	GSE26690	GSM657107,GSM657108/GSM657101,GSM657102	1			1		0	0	0	0	maplot				GPL11577		
30416131	L. monocytogenes RNA after 24hr incubation in TSBYE / L. monocytogenes RNA after 336hr incubation in TSBYE	GSE26690	GSM657107,GSM657108/GSM657111,GSM657112	1			1		0	0	0	0	maplot				GPL11577		
30404851	L. monocytogenes RNA after 168hr incubation in TSBYE / L. monocytogenes RNA after reincubation in TSBYE	GSE26690	GSM657109,GSM657110/GSM657101,GSM657102	1			1		0	0	0	0	maplot				GPL11577		
30396391	L. monocytogenes RNA after 168hr incubation in TSBYE / L. monocytogenes RNA after 17hr incubation in TSBYE	GSE26690	GSM657109,GSM657110/GSM657105,GSM657106	1			1		0	0	0	0	maplot				GPL11577		
30399211	L. monocytogenes RNA after 168hr incubation in TSBYE / L. monocytogenes RNA after 24hr incubation in TSBYE	GSE26690	GSM657109,GSM657110/GSM657107,GSM657108	1			1		0	0	0	0	maplot				GPL11577		
30402031	L. monocytogenes RNA after 168hr incubation in TSBYE / L. monocytogenes RNA after 336hr incubation in TSBYE	GSE26690	GSM657109,GSM657110/GSM657111,GSM657112	1			1		0	0	0	0	maplot				GPL11577		
30421771	L. monocytogenes RNA after 336hr incubation in TSBYE / L. monocytogenes RNA after reincubation in TSBYE	GSE26690	GSM657111,GSM657112/GSM657101,GSM657102	1			1		0	0	0	0	maplot				GPL11577		
30461521	Listeria monocytogenes EGD delta LhrA / Listeria monocytogenes EGD	GSE26818	GSM659585	2			1		0	0	0	0	mbplot				GPL5029		
26233265	SACOL2645_mutant_SH1000 / Wild_type_SH1000	GSE27061	GSM667890,GSM667891,GSM667892,GSM667893	2			1		0	0	0	0	mbplot				GPL5879		
26923791	1E2   CSP2 - 8 min / untreated	GSE27258	GSM673839/GSM673840	1			1		1	1	0	0	maplot				GPL13163		
26925796	31B12 / untreated	GSE27258	GSM673841/GSM673840	1			1		1	1	0	0	maplot				GPL13163		
26911761	1E2 / 1E2   CSP2 - 8 min	GSE27258	GSM673842/GSM673839	1			1		1	1	0	0	maplot				GPL13163		
26915771	1E2 / untreated	GSE27258	GSM673842/GSM673840	1			1		1	1	0	0	maplot				GPL13163		
26913766	1E2 / 31B12	GSE27258	GSM673842/GSM673841	1			1		1	1	0	0	maplot				GPL13163		
26909756	1E2 / 1E2   CSP2 - 2 min	GSE27258	GSM673842/GSM673843	1			1		1	1	0	0	maplot				GPL13163		
26917776	1E2   CSP2 - 2 min / 1E2   CSP2 - 8 min	GSE27258	GSM673843/GSM673839	1			1		1	1	0	0	maplot				GPL13163		
26921786	1E2   CSP2 - 2 min / untreated	GSE27258	GSM673843/GSM673840	1			1		1	1	0	0	maplot				GPL13163		
26919781	1E2   CSP2 - 2 min / CSP2-2 min	GSE27258	GSM673843/GSM673845	1			1		1	1	0	0	maplot				GPL13163		
26927801	CSP2-2 min / untreated	GSE27258	GSM673845/GSM673840	1			1		1	1	0	0	maplot				GPL13163		
10177929	S. Typhimurium exposed to 9ml of the following at 55 C for 1 min: 2.5% solutions of SP (pH 4.0). / S. Typhimurium exposed to dH2O (pH 4) at 55 C for 1 min.	GSE27922	GSM689851,GSM689852,GSM689853,GSM689854,GSM689855,GSM689856	2			1		0	0	0	0	mbplot				GPL13274		
10180614	S. Typhimurium exposed to 9ml of the following at 55 C for 1 min: 2.5% solutions of SA (pH 4.0). /S. Typhimurium exposed to dH2O (pH 4) at 55 C for 1 min.	GSE27922	GSM689857,GSM689858,GSM689859,GSM689860,GSM689861,GSM689862	2			1		0	0	0	0	mbplot				GPL13274		
26821999	S. mutans UA159, dual-species culture with S. gordonii / S. mutans UA159, monoculture	GSE28259	GSM699465,GSM699466/GSM699463,GSM699464	1			1		1	1	0	0	mbplot				GPL4769		
26820089	S. mutans UA159, dual-species culture with S. gordonii / S. mutans UA159, dual-species culture with Veillonella	GSE28259	GSM699465,GSM699466/GSM699467,GSM699468	1			1		1	1	0	0	mbplot				GPL4769		
26818179	S. mutans UA159, dual-species culture with S. gordonii / S. mutans UA159, tri-species culture with Veillonella and S. gordonii	GSE28259	GSM699465,GSM699466/GSM699469,GSM699470	1			1		1	1	0	0	mbplot				GPL4769		
26827729	S. mutans UA159, dual-species culture with Veillonella / S. mutans UA159, monoculture	GSE28259	GSM699467,GSM699468/GSM699463,GSM699464	1			1		1	1	0	0	mbplot				GPL4769		
26825819	S. mutans UA159, tri-species culture with Veillonella and S. gordonii / S. mutans UA159, monoculture	GSE28259	GSM699469,GSM699470/GSM699463,GSM699464	1			1		1	1	0	0	mbplot				GPL4769		
26823909	S. mutans UA159, tri-species culture with Veillonella and S. gordonii / S. mutans UA159, dual-species culture with Veillonella	GSE28259	GSM699469,GSM699470/GSM699467,GSM699468	1			1		1	1	0	0	mbplot				GPL4769		
30368700	WT 10403S LM grown in BHI / pooled reference total RNA from all samples used in this experiment (6 samples)	GSE28507	GSM706196,GSM706197,GSM706198	2			1		0	0	0	0	mbplot				GPL13395		
30366497	WT 10403S LM grown in BHI   1% bile / pooled reference total RNA from all samples used in this experiment (6 samples)	GSE28507	GSM706199,GSM706200,GSM706201	2			1		0	0	0	0	mbplot				GPL13395		
7974391	12h / 6h	GSE29554	GSM731684,GSM731686,GSM731705,GSM731707/GSM731685,GSM731687,GSM731688,GSM731690,GSM731693,GSM731695,GSM731696,GSM731698,GSM731700,GSM731702,GSM731704,GSM731706,GSM731709,GSM731713,GSM731716,GSM731718,GSM731720,GSM731722	1			1		0	0	0	0	maplot				GPL13640		
7984710	16h / 6h	GSE29554	GSM731689,GSM731691,GSM731708,GSM731710/GSM731685,GSM731687,GSM731688,GSM731690,GSM731693,GSM731695,GSM731696,GSM731698,GSM731700,GSM731702,GSM731704,GSM731706,GSM731709,GSM731713,GSM731716,GSM731718,GSM731720,GSM731722	1			1		0	0	0	0	maplot				GPL13640		
7961585	10h / 6h	GSE29554	GSM731692,GSM731694,GSM731712,GSM731714/GSM731685,GSM731687,GSM731688,GSM731690,GSM731693,GSM731695,GSM731696,GSM731698,GSM731700,GSM731702,GSM731704,GSM731706,GSM731709,GSM731713,GSM731716,GSM731718,GSM731720,GSM731722	1			1		0	0	0	0	maplot				GPL13640		
7935203	8h / 6h	GSE29554	GSM731697,GSM731699,GSM731715,GSM731717/GSM731685,GSM731687,GSM731688,GSM731690,GSM731693,GSM731695,GSM731696,GSM731698,GSM731700,GSM731702,GSM731704,GSM731706,GSM731709,GSM731713,GSM731716,GSM731718,GSM731720,GSM731722	1			1		0	0	0	0	maplot				GPL13640		
7977130	14h / 6h	GSE29554	GSM731701,GSM731703,GSM731719,GSM731721/GSM731685,GSM731687,GSM731688,GSM731690,GSM731693,GSM731695,GSM731696,GSM731698,GSM731700,GSM731702,GSM731704,GSM731706,GSM731709,GSM731713,GSM731716,GSM731718,GSM731720,GSM731722	1			1		0	0	0	0	maplot				GPL13640		
8593709	Transcription profile from 14028s grown anaerobically to log phase in CRHyd without hydrogen / Transcription profile from 14028s grown anaerobically to log phase in CRHyd in presence of 20% hydrogen	GSE29739	GSM737238,GSM737239,GSM737242	2	15	16	3	4	1	1	0	0	mbplot				GPL11279		
8603293	Transcription profile from 14028s grown anaerobically to log phase in CRHyd without hydrogen / Transcription profile from 14028s grown anaerobically to log phase in CRHyd in presence of 20% hydrogen	GSE29739	GSM737240,GSM737241,GSM737243	2	15	16	3	4	1	1	0	0	mbplot				GPL11279		
25215772	wild-type mid-log RNA / wild-type mid-log RNA	GSE29871	GSM739925,GSM739926,GSM739927,GSM739928	2			1		0	0	0	0	mbplot				GPL5911		
25194576	clpP mid-log RNA / wild-type mid-log RNA	GSE29871	GSM739929,GSM739930,GSM739931,GSM739932	2			1		0	0	0	0	mbplot				GPL5911		
25204695	clpX mid-log RNA / wild-type mid-log RNA	GSE29871	GSM739933,GSM739934,GSM739935,GSM739936	2			1		0	0	0	0	mbplot				GPL5911		
26939134	copY mutant / Wild type control	GSE30414	GSM757642,GSM757643,GSM757644,GSM757645	2			1		0	0	0	0	mbplot				GPL11484		
18571707	with 0.05mM copper / without copper	GSE30415	GSM757638,GSM757639,GSM757640,GSM757641	2			1		0	0	0	0	mbplot				GPL11484		
10693113	in vivo(blood) / in vitro(LB media)	GSE30565	GSM758465,GSM758466,GSM758467,GSM758468,GSM758469,GSM758470,GSM758471,GSM758472,GSM758473,GSM758474,GSM758475,GSM758476,GSM758477,GSM758478,GSM758479,GSM758480,GSM758481,GSM758482,GSM758483,GSM758484	2			1		0	0	0	0	mbplot				GPL13884		
10761279	COW5 Total RNA extracted after 2 hours at 37 degrees / Total RNA extracted after 2 hours at 26 degrees	GSE30634	GSM759012,GSM759743	2			1		0	0	0	0	mbplot				GPL9009		
10767121	COW5 Total RNA extracted after 1 hour at 37 degrees / Total RNA extracted after 1 hour at 26 degrees	GSE30634	GSM759013,GSM759764	2			1		0	0	0	0	mbplot				GPL9009		
10772963	COW5 Total RNA extracted after 4 hours at 37 degrees / Total RNA extracted after 4 hours at 26 degrees	GSE30634	GSM759043,GSM759765	2			1		0	0	0	0	mbplot				GPL9009		
10778805	COW5 Total RNA extracted after 8 hours at 37 degrees / Total RNA extracted after 8 hours at 26 degrees	GSE30634	GSM759044,GSM759766	2			1		0	0	0	0	mbplot				GPL9009		
10784647	PBIB15 Total RNA extracted after 1 hour at 37 degrees / Total RNA extracted after 1 hour at 26 degrees	GSE30634	GSM759045,GSM759773	2			1		0	0	0	0	mbplot				GPL9009		
10790489	PBIB15 Total RNA extracted after 2 hours at 37 degrees;Total RNA extracted after 2 hours 37 degrees / Total RNA extracted after 2 hours at 26 degrees;Total RNA extracted after 2 hours 26 degrees	GSE30634	GSM759046,GSM759774	2			1		0	0	0	0	mbplot				GPL9009		
10796331	PBIB15 Total RNA extracted after 4 hours at 37 degrees / Total RNA extracted after 4 hours at 26 degrees	GSE30634	GSM759047,GSM759780	2			1		0	0	0	0	mbplot				GPL9009		
10802173	PBIB15 Total RNA extracted after 8 hours at 37 degrees / Total RNA extracted after 8 hours at 26 degrees	GSE30634	GSM759070,GSM759781	2			1		0	0	0	0	mbplot				GPL9009		
10808015	PestF Total RNA extracted after 1 hour at 37 degrees / Total RNA extracted after 1 hour at 26 degrees	GSE30634	GSM759071,GSM759782	2			1		0	0	0	0	mbplot				GPL9009		
10813857	PestF Total RNA extracted after 2 hours at 37 degrees / Total RNA extracted after 2 hours at 26 degrees	GSE30634	GSM759740,GSM759783	2			1		0	0	0	0	mbplot				GPL9009		
10819699	PestF Total RNA extracted after 4 hours at 37 degrees / Total RNA extracted after 4 hours at 26 degrees	GSE30634	GSM759741,GSM759790	2			1		0	0	0	0	mbplot				GPL9009		
10825541	PestF Total RNA extracted after 8 hours at 37 degrees / Total RNA extracted after 8 hours at 26 degrees	GSE30634	GSM759742,GSM759791	2			1		0	0	0	0	mbplot				GPL9009		
26230435	Diclofenac Treatment /control	GSE30724	GSM762679,GSM762680,GSM762681,GSM762706	2			1		0	0	0	0	mbplot				GPL5879		
26933816	celR mutant / wildtype	GSE30891	GSM766138,GSM766139,GSM766140	2			1		0	0	0	0	mbplot				GPL11484		
24783307	Streptcoccus mutans, wild-type, bacitracin-treated. / Streptcoccus mutans, wild-type, non-treated.	GSE31502	GSM782279/GSM782278	1			1		1	0	0	0	maplot				GPL14174		
26967922	S. onidensis MR-1 -MEC-Fe Nano-Decorared-Carbon / S. onidensis MR-1 -MEC-Control- Carbon- anode	GSE31535	GSM782755,GSM782756,GSM782757/GSM782758,GSM782759,GSM782760	1			1		1	1	0	0	maplot				GPL14177		
18577040	ccpA mutant / wild type in MID-log phase	GSE31815	GSM789257,GSM789258,GSM789259	2			1		0	0	0	0	mbplot				GPL11484		
18575222	ccpA mutant / wild type grown to transition (TS) phase	GSE31816	GSM789260,GSM789261,GSM789262	2			1		0	0	0	0	mbplot				GPL11484		
18616092	ccpA mutant / wildtype MID-log phase in CDM medium with Galactose as the sole carbon source	GSE31817	GSM789263,GSM789264,GSM789265	2			1		0	0	0	0	mbplot				GPL11484		
18602338	ccpA mutant / wildtype in transition (TS) phase in CDM medium with galactose as the sole carbon source	GSE31818	GSM789266,GSM789267	2			1		0	0	0	0	mbplot				GPL11484		
18573450	wildtype / ahrC mutant	GSE33033	GSM818720,GSM818721	2			1		0	0	0	0	mbplot				GPL11484		
26937316	argR1 mutant/ wildtype	GSE33034	GSM818723,GSM818724,GSM818725	2			1		0	0	0	0	mbplot				GPL11484		
26940877	argR1-ahrC mutant / wildtype	GSE33035	GSM818726,GSM818727	2			1		0	0	0	0	mbplot				GPL11484		
18636578	wt 0.05 mM Arginine /wt 10 mM Arginine in MID-log phase in CDM	GSE33036	GSM818728,GSM818729	2			1		0	0	0	0	mbplot				GPL11484		
